
d:/git/igh/igh_shield/target/1.5.2/boron/igh_shield.elf:     file format elf32-littlearm

Sections:
Idx Name          Size      VMA       LMA       File off  Algn
  0 .module_info  00000018  000d4000  000d4000  00004000  2**2
                  CONTENTS, ALLOC, LOAD, READONLY, DATA
  1 .dynalib      00000004  000d4018  000d4018  00004018  2**2
                  CONTENTS, ALLOC, LOAD, READONLY, DATA
  2 .text         00008530  000d4020  000d4020  00004020  2**3
                  CONTENTS, ALLOC, LOAD, READONLY, CODE
  3 .backup       00000004  2003f400  000dc550  0000f400  2**2
                  CONTENTS, ALLOC, LOAD, DATA
  4 .data         000000ec  2003d8d0  000dc554  0001d8d0  2**2
                  CONTENTS, ALLOC, LOAD, DATA
  5 .bss          00000e34  2003d9bc  2003d9bc  0002d9bc  2**2
                  ALLOC
  6 .module_info_suffix 00000028  000dc640  000dc640  0002c640  2**0
                  CONTENTS, ALLOC, LOAD, READONLY, DATA
  7 .module_info_crc 00000004  000dc668  000dc668  0002c668  2**0
                  CONTENTS, ALLOC, LOAD, READONLY, DATA
  8 .debug_info   001dccf0  00000000  00000000  0002c66c  2**0
                  CONTENTS, READONLY, DEBUGGING
  9 .debug_abbrev 0002811a  00000000  00000000  0020935c  2**0
                  CONTENTS, READONLY, DEBUGGING
 10 .debug_loc    000330d3  00000000  00000000  00231476  2**0
                  CONTENTS, READONLY, DEBUGGING
 11 .debug_aranges 000039b0  00000000  00000000  00264549  2**0
                  CONTENTS, READONLY, DEBUGGING
 12 .debug_ranges 00006a68  00000000  00000000  00267ef9  2**0
                  CONTENTS, READONLY, DEBUGGING
 13 .debug_macro  0005ec26  00000000  00000000  0026e961  2**0
                  CONTENTS, READONLY, DEBUGGING
 14 .debug_line   0007034f  00000000  00000000  002cd587  2**0
                  CONTENTS, READONLY, DEBUGGING
 15 .debug_str    0011cb3e  00000000  00000000  0033d8d6  2**0
                  CONTENTS, READONLY, DEBUGGING
 16 .debug_frame  00010b44  00000000  00000000  0045a414  2**2
                  CONTENTS, READONLY, DEBUGGING

Disassembly of section .text:

000d4020 <module_user_pre_init>:
/**
 * Initializes this user module. Returns the start of the heap.
 */
void* module_user_pre_init() {

    if ( (&link_global_data_start!=&link_global_data_initial_values) && (link_global_data_size != 0))
   d4020:	4809      	ldr	r0, [pc, #36]	; (d4048 <module_user_pre_init+0x28>)
   d4022:	490a      	ldr	r1, [pc, #40]	; (d404c <module_user_pre_init+0x2c>)
   d4024:	4288      	cmp	r0, r1
extern constructor_ptr_t link_constructors_end;

/**
 * Initializes this user module. Returns the start of the heap.
 */
void* module_user_pre_init() {
   d4026:	b508      	push	{r3, lr}

    if ( (&link_global_data_start!=&link_global_data_initial_values) && (link_global_data_size != 0))
   d4028:	d005      	beq.n	d4036 <module_user_pre_init+0x16>
   d402a:	4a09      	ldr	r2, [pc, #36]	; (d4050 <module_user_pre_init+0x30>)
   d402c:	4282      	cmp	r2, r0
   d402e:	d002      	beq.n	d4036 <module_user_pre_init+0x16>
    {
        memcpy(&link_global_data_start, &link_global_data_initial_values, link_global_data_size);
   d4030:	1a12      	subs	r2, r2, r0
   d4032:	f007 f9cc 	bl	db3ce <memcpy>
    }

    memset(&link_bss_location, 0, link_bss_size );
   d4036:	4807      	ldr	r0, [pc, #28]	; (d4054 <module_user_pre_init+0x34>)
   d4038:	4a07      	ldr	r2, [pc, #28]	; (d4058 <module_user_pre_init+0x38>)
   d403a:	2100      	movs	r1, #0
   d403c:	1a12      	subs	r2, r2, r0
   d403e:	f007 f9d1 	bl	db3e4 <memset>
    return &link_global_data_start;
}
   d4042:	4801      	ldr	r0, [pc, #4]	; (d4048 <module_user_pre_init+0x28>)
   d4044:	bd08      	pop	{r3, pc}
   d4046:	bf00      	nop
   d4048:	2003d8d0 	.word	0x2003d8d0
   d404c:	000dc554 	.word	0x000dc554
   d4050:	2003d9bc 	.word	0x2003d9bc
   d4054:	2003d9bc 	.word	0x2003d9bc
   d4058:	2003e7f0 	.word	0x2003e7f0

000d405c <module_user_init>:
extern constructor_ptr_t link_constructors_location[];
extern constructor_ptr_t link_constructors_end;
#define link_constructors_size   ((unsigned long)&link_constructors_end  -  (unsigned long)&link_constructors_location )

void module_user_init()
{
   d405c:	b570      	push	{r4, r5, r6, lr}
    module_user_init_hook();
   d405e:	f005 fb03 	bl	d9668 <module_user_init_hook>
   d4062:	4c07      	ldr	r4, [pc, #28]	; (d4080 <module_user_init+0x24>)
   d4064:	4b07      	ldr	r3, [pc, #28]	; (d4084 <module_user_init+0x28>)
   d4066:	1ae4      	subs	r4, r4, r3
   d4068:	08a4      	lsrs	r4, r4, #2

    // invoke constructors
    int ctor_num;
    for (ctor_num=0; ctor_num < link_constructors_size/sizeof(constructor_ptr_t); ctor_num++ )
   d406a:	2500      	movs	r5, #0
   d406c:	461e      	mov	r6, r3
   d406e:	42a5      	cmp	r5, r4
   d4070:	d004      	beq.n	d407c <module_user_init+0x20>
    {
        link_constructors_location[ctor_num]();
   d4072:	f856 3025 	ldr.w	r3, [r6, r5, lsl #2]
   d4076:	4798      	blx	r3
{
    module_user_init_hook();

    // invoke constructors
    int ctor_num;
    for (ctor_num=0; ctor_num < link_constructors_size/sizeof(constructor_ptr_t); ctor_num++ )
   d4078:	3501      	adds	r5, #1
   d407a:	e7f8      	b.n	d406e <module_user_init+0x12>
    {
        link_constructors_location[ctor_num]();
    }
}
   d407c:	bd70      	pop	{r4, r5, r6, pc}
   d407e:	bf00      	nop
   d4080:	000dc550 	.word	0x000dc550
   d4084:	000dc4ac 	.word	0x000dc4ac

000d4088 <module_user_setup>:

/**
 * Export these functions with a fuller name so they don't clash with the setup/loop wrappers in the system module.
 */
void module_user_setup() {
    setup();
   d4088:	f000 baca 	b.w	d4620 <setup>

000d408c <module_user_loop>:
}

void module_user_loop() {
   d408c:	b508      	push	{r3, lr}
    loop();
   d408e:	f000 fac9 	bl	d4624 <loop>
    _post_loop();
}
   d4092:	e8bd 4008 	ldmia.w	sp!, {r3, lr}
    setup();
}

void module_user_loop() {
    loop();
    _post_loop();
   d4096:	f005 baa9 	b.w	d95ec <_post_loop>

000d409a <_Znwj>:
   d409a:	f004 bd8f 	b.w	d8bbc <malloc>

000d409e <_Znaj>:
	return malloc(size);
}

void *operator new[](size_t size)
{
	return malloc(size);
   d409e:	f004 bd8d 	b.w	d8bbc <malloc>

000d40a2 <_ZdlPv>:
   d40a2:	f004 bd93 	b.w	d8bcc <free>

000d40a6 <_ZdaPv>:
	free(p);
}

void operator delete[](void *p)
{
	free(p);
   d40a6:	f004 bd91 	b.w	d8bcc <free>

000d40aa <__cxa_guard_acquire>:

/* Provide default implemenation for __cxa_guard_acquire() and
 * __cxa_guard_release(). Note: these must be revisited if a multitasking
 * OS is ported to this platform. */
__extension__ typedef int __guard __attribute__((mode (__DI__)));
int __cxa_guard_acquire(__guard *g) {return !*(char *)(g);};
   d40aa:	7800      	ldrb	r0, [r0, #0]
   d40ac:	fab0 f080 	clz	r0, r0
   d40b0:	0940      	lsrs	r0, r0, #5
   d40b2:	4770      	bx	lr

000d40b4 <__cxa_guard_release>:
void __cxa_guard_release (__guard *g) {*(char *)g = 1;};
   d40b4:	2301      	movs	r3, #1
   d40b6:	7003      	strb	r3, [r0, #0]
   d40b8:	4770      	bx	lr
	...

000d40bc <igh_settings_process_settings_tuples>:
    igh_default_thresholds.checksum = igh_settings_calculate_checksum(&igh_default_thresholds, sizeof(igh_default_thresholds));

} 

uint8_t igh_settings_process_settings_tuples( uint8_t * settings, uint8_t byte_tracker, uint8_t end_index )
{
   d40bc:	e92d 4ff8 	stmdb	sp!, {r3, r4, r5, r6, r7, r8, r9, sl, fp, lr}
            case SUBID_WATER_DISPENSED_PERIOD_HIGH:
                if(LENGTH_SUBID_WATER_DISPENSED_PERIOD_HIGH == current_tuple_length)
                {
                    uint8_t new_water_dispensed_period_high[LENGTH_SUBID_WATER_DISPENSED_PERIOD_HIGH]; 
                    memcpy(new_water_dispensed_period_high, &settings[current_data_index], LENGTH_SUBID_WATER_DISPENSED_PERIOD_HIGH);
                    igh_current_threshold_settings.water_dispensed_period_high = GET32(new_water_dispensed_period_high);
   d40c0:	4fab      	ldr	r7, [pc, #684]	; (d4370 <igh_settings_process_settings_tuples+0x2b4>)
            case SUBID_MQTT_BROKER_PORT:
                if(LENGTH_SUBID_MQTT_PORT == current_tuple_length)
                {
                    uint8_t new_mqtt_port[LENGTH_SUBID_MQTT_PORT]; 
                    memcpy(new_mqtt_port, &settings[current_data_index], LENGTH_SUBID_MQTT_PORT);
                    igh_current_system_settings.broker_port = GET16(new_mqtt_port);
   d40c2:	f8df 82bc 	ldr.w	r8, [pc, #700]	; d4380 <igh_settings_process_settings_tuples+0x2c4>
                    mqtt_set_broker = 1;
   d40c6:	f8df 92bc 	ldr.w	r9, [pc, #700]	; d4384 <igh_settings_process_settings_tuples+0x2c8>
    igh_default_thresholds.checksum = igh_settings_calculate_checksum(&igh_default_thresholds, sizeof(igh_default_thresholds));

} 

uint8_t igh_settings_process_settings_tuples( uint8_t * settings, uint8_t byte_tracker, uint8_t end_index )
{
   d40ca:	4605      	mov	r5, r0
   d40cc:	468b      	mov	fp, r1
   d40ce:	4692      	mov	sl, r2
    //cycle through tuples to get the settings data
    uint8_t current_tuple_id;
    uint8_t current_tuple_length;
    uint8_t current_data_index;

    while(byte_tracker < end_index)
   d40d0:	45d3      	cmp	fp, sl
   d40d2:	f080 81b2 	bcs.w	d443a <igh_settings_process_settings_tuples+0x37e>
    {
        // extract tuples
        current_tuple_id = settings[byte_tracker];
        // extract the length
        current_tuple_length = settings[byte_tracker + 1]; // should always follow
   d40d6:	eb05 030b 	add.w	r3, r5, fp
        // extract the tuple data based on tuple id
        current_data_index = byte_tracker + 2;
   d40da:	f10b 0402 	add.w	r4, fp, #2
    while(byte_tracker < end_index)
    {
        // extract tuples
        current_tuple_id = settings[byte_tracker];
        // extract the length
        current_tuple_length = settings[byte_tracker + 1]; // should always follow
   d40de:	785e      	ldrb	r6, [r3, #1]
        // extract the tuple data based on tuple id
        current_data_index = byte_tracker + 2;

        switch(current_tuple_id)
   d40e0:	f815 300b 	ldrb.w	r3, [r5, fp]
   d40e4:	3b01      	subs	r3, #1
        // extract tuples
        current_tuple_id = settings[byte_tracker];
        // extract the length
        current_tuple_length = settings[byte_tracker + 1]; // should always follow
        // extract the tuple data based on tuple id
        current_data_index = byte_tracker + 2;
   d40e6:	b2e4      	uxtb	r4, r4

        switch(current_tuple_id)
   d40e8:	2b39      	cmp	r3, #57	; 0x39
   d40ea:	f200 81a0 	bhi.w	d442e <igh_settings_process_settings_tuples+0x372>
   d40ee:	e8df f013 	tbh	[pc, r3, lsl #1]
   d40f2:	003a      	.short	0x003a
   d40f4:	00820071 	.word	0x00820071
   d40f8:	00930063 	.word	0x00930063
   d40fc:	004400a6 	.word	0x004400a6
   d4100:	0190005c 	.word	0x0190005c
   d4104:	019e019e 	.word	0x019e019e
   d4108:	019e019e 	.word	0x019e019e
   d410c:	019e019e 	.word	0x019e019e
   d4110:	00c800b4 	.word	0x00c800b4
   d4114:	00f000dc 	.word	0x00f000dc
   d4118:	01180104 	.word	0x01180104
   d411c:	014b0135 	.word	0x014b0135
   d4120:	016f015d 	.word	0x016f015d
   d4124:	019e0181 	.word	0x019e0181
   d4128:	019e019e 	.word	0x019e019e
   d412c:	019e019e 	.word	0x019e019e
   d4130:	019e019e 	.word	0x019e019e
   d4134:	019e019e 	.word	0x019e019e
   d4138:	019e019e 	.word	0x019e019e
   d413c:	019e019e 	.word	0x019e019e
   d4140:	019e019e 	.word	0x019e019e
   d4144:	019e019e 	.word	0x019e019e
   d4148:	019e019e 	.word	0x019e019e
   d414c:	019e019e 	.word	0x019e019e
   d4150:	00d200be 	.word	0x00d200be
   d4154:	00fa00e6 	.word	0x00fa00e6
   d4158:	0122010e 	.word	0x0122010e
   d415c:	0154012c 	.word	0x0154012c
   d4160:	01780166 	.word	0x01780166
   d4164:	0190      	.short	0x0190
        {
            case SUBID_OPSTATE:
                if(LENGTH_SUBID_OPSTATE == current_tuple_length)
   d4166:	2e01      	cmp	r6, #1
   d4168:	f040 816a 	bne.w	d4440 <igh_settings_process_settings_tuples+0x384>
                {
                    // check if new state is valid
                    if( (OP_INACTIVE == (settings[current_data_index]))|| 
   d416c:	5d2b      	ldrb	r3, [r5, r4]
   d416e:	2b03      	cmp	r3, #3
   d4170:	f200 815d 	bhi.w	d442e <igh_settings_process_settings_tuples+0x372>
                        (OP_BASIC == (settings[current_data_index]))||
                        (OP_STANDARD == (settings[current_data_index]))||
                        (OP_PREMIUM == (settings[current_data_index]))  
                    )
                    {
                        igh_current_system_settings.op_state = (device_op_state)settings[current_data_index];
   d4174:	f888 3009 	strb.w	r3, [r8, #9]
   d4178:	e159      	b.n	d442e <igh_settings_process_settings_tuples+0x372>
                    return 0;
                }
                break;

            case SUBID_TIMEZONE:
                if(LENGTH_SUBID_SUBID_TIMEZONE == current_tuple_length)
   d417a:	2e02      	cmp	r6, #2
   d417c:	f040 8160 	bne.w	d4440 <igh_settings_process_settings_tuples+0x384>
                {
                    // check if new timezone is valid
                    if( POSITIVE_TIME_ZONE == settings[current_data_index] )
   d4180:	5d2b      	ldrb	r3, [r5, r4]
   d4182:	2bff      	cmp	r3, #255	; 0xff
   d4184:	d105      	bne.n	d4192 <igh_settings_process_settings_tuples+0xd6>
                    {
                        if( MAX_TIMEZONE > settings[current_data_index + 1] )
   d4186:	442c      	add	r4, r5
   d4188:	7863      	ldrb	r3, [r4, #1]
   d418a:	2b0b      	cmp	r3, #11
   d418c:	f200 814f 	bhi.w	d442e <igh_settings_process_settings_tuples+0x372>
   d4190:	e008      	b.n	d41a4 <igh_settings_process_settings_tuples+0xe8>
                        {
                            igh_current_system_settings.timezone = (int)settings[current_data_index + 1];
                        }
                    }

                    else if( NEGATIVE_TIME_ZONE == settings[current_data_index] )
   d4192:	2b00      	cmp	r3, #0
   d4194:	f040 814b 	bne.w	d442e <igh_settings_process_settings_tuples+0x372>
                    {
                        if( MAX_TIMEZONE > settings[current_data_index + 1] )
   d4198:	442c      	add	r4, r5
   d419a:	7863      	ldrb	r3, [r4, #1]
   d419c:	2b0b      	cmp	r3, #11
   d419e:	f200 8146 	bhi.w	d442e <igh_settings_process_settings_tuples+0x372>
                        {
                            igh_current_system_settings.timezone = -1 * settings[current_data_index + 1];
   d41a2:	425b      	negs	r3, r3
   d41a4:	f8c8 3004 	str.w	r3, [r8, #4]
   d41a8:	e141      	b.n	d442e <igh_settings_process_settings_tuples+0x372>
                    return 0;
                }
                break;

            case SUBID_IRRIGATION_HR:
                if(LENGTH_SUBID_SUBID_IRRIGATION_HR == current_tuple_length)
   d41aa:	2e01      	cmp	r6, #1
   d41ac:	f040 8148 	bne.w	d4440 <igh_settings_process_settings_tuples+0x384>
                {
                    // check if the time is within 24 hours
                    if( MAX_HOUR >  (settings[current_data_index]) ||
                        MIN_HOUR <= (settings[current_data_index]))
                    {
                        igh_current_system_settings.irrigation_hr = settings[current_data_index];
   d41b0:	5d2b      	ldrb	r3, [r5, r4]
   d41b2:	f888 3008 	strb.w	r3, [r8, #8]
   d41b6:	e13a      	b.n	d442e <igh_settings_process_settings_tuples+0x372>
                    return 0;
                }
                break;

            case SUBID_SET_SERIAL_NUMBER:
                if(LENGTH_SUBID_SET_SERIAL_NUMBER == current_tuple_length)
   d41b8:	2e0c      	cmp	r6, #12
   d41ba:	f040 8141 	bne.w	d4440 <igh_settings_process_settings_tuples+0x384>
                {
                    memcpy(igh_current_system_settings.serial_number, &settings[current_data_index], LENGTH_SUBID_SET_SERIAL_NUMBER);
   d41be:	442c      	add	r4, r5
   d41c0:	4b6c      	ldr	r3, [pc, #432]	; (d4374 <igh_settings_process_settings_tuples+0x2b8>)
   d41c2:	6820      	ldr	r0, [r4, #0]
   d41c4:	6861      	ldr	r1, [r4, #4]
   d41c6:	c303      	stmia	r3!, {r0, r1}
   d41c8:	68a0      	ldr	r0, [r4, #8]
   d41ca:	6018      	str	r0, [r3, #0]
                    initialize_rfm69 = 1;
   d41cc:	4b6a      	ldr	r3, [pc, #424]	; (d4378 <igh_settings_process_settings_tuples+0x2bc>)
   d41ce:	2201      	movs	r2, #1
   d41d0:	701a      	strb	r2, [r3, #0]
                else
                {
                    // stop processing any more settings as they may be corrupt
                    return 0;
                }
                break;
   d41d2:	e12c      	b.n	d442e <igh_settings_process_settings_tuples+0x372>

            case SUBID_REPORTING_INTERVAL:
                if(LENGTH_SUBID_REPORTING_INTERVAL == current_tuple_length)
   d41d4:	2e04      	cmp	r6, #4
   d41d6:	f040 8133 	bne.w	d4440 <igh_settings_process_settings_tuples+0x384>
                {
                    uint8_t new_reporting_interval[LENGTH_SUBID_REPORTING_INTERVAL]; 
                    memcpy(new_reporting_interval, &settings[current_data_index], LENGTH_SUBID_REPORTING_INTERVAL);
   d41da:	1929      	adds	r1, r5, r4
                    igh_current_system_settings.reporting_interval = GET32(new_reporting_interval);
   d41dc:	5d2a      	ldrb	r2, [r5, r4]
   d41de:	784b      	ldrb	r3, [r1, #1]
   d41e0:	041b      	lsls	r3, r3, #16
   d41e2:	eb03 6302 	add.w	r3, r3, r2, lsl #24
   d41e6:	78ca      	ldrb	r2, [r1, #3]
   d41e8:	4413      	add	r3, r2
   d41ea:	788a      	ldrb	r2, [r1, #2]
   d41ec:	eb03 2302 	add.w	r3, r3, r2, lsl #8
   d41f0:	f8c8 3010 	str.w	r3, [r8, #16]
                else
                {
                    // stop processing any more settings as they may be corrupt
                    return 0;
                }
                break;
   d41f4:	e11b      	b.n	d442e <igh_settings_process_settings_tuples+0x372>

            case SUBID_DATA_RESOLUTION:
                if(LENGTH_SUBID_DATA_RESOLUTION == current_tuple_length)
   d41f6:	2e04      	cmp	r6, #4
   d41f8:	f040 8122 	bne.w	d4440 <igh_settings_process_settings_tuples+0x384>
                {
                    uint8_t new_data_resolution[LENGTH_SUBID_DATA_RESOLUTION]; 
                    memcpy(new_data_resolution, &settings[current_data_index], LENGTH_SUBID_DATA_RESOLUTION);
   d41fc:	1929      	adds	r1, r5, r4
                    igh_current_system_settings.data_resolution = GET32(new_data_resolution);
   d41fe:	5d2a      	ldrb	r2, [r5, r4]
   d4200:	784b      	ldrb	r3, [r1, #1]
   d4202:	041b      	lsls	r3, r3, #16
   d4204:	eb03 6302 	add.w	r3, r3, r2, lsl #24
   d4208:	78ca      	ldrb	r2, [r1, #3]
   d420a:	4413      	add	r3, r2
   d420c:	788a      	ldrb	r2, [r1, #2]
   d420e:	eb03 2302 	add.w	r3, r3, r2, lsl #8
   d4212:	f8c8 3014 	str.w	r3, [r8, #20]
                }
                else
                {
                    return 0;
                }
                break;
   d4216:	e10a      	b.n	d442e <igh_settings_process_settings_tuples+0x372>

            case SUBID_MQTT_BROKER:
                if( sizeof(igh_current_system_settings.broker) > current_tuple_length)
   d4218:	2e1f      	cmp	r6, #31
   d421a:	f200 8111 	bhi.w	d4440 <igh_settings_process_settings_tuples+0x384>
                {
                    memset(igh_current_system_settings.broker, '\0', sizeof(igh_current_system_settings.broker));
   d421e:	2220      	movs	r2, #32
   d4220:	2100      	movs	r1, #0
   d4222:	4856      	ldr	r0, [pc, #344]	; (d437c <igh_settings_process_settings_tuples+0x2c0>)
   d4224:	f007 f8de 	bl	db3e4 <memset>
                    memcpy(igh_current_system_settings.broker, &settings[current_data_index], current_tuple_length);
   d4228:	4632      	mov	r2, r6
   d422a:	1929      	adds	r1, r5, r4
   d422c:	4853      	ldr	r0, [pc, #332]	; (d437c <igh_settings_process_settings_tuples+0x2c0>)
   d422e:	f007 f8ce 	bl	db3ce <memcpy>
                    igh_current_system_settings.broker[current_tuple_length] = '\0'; // terminate the string
   d4232:	eb08 0306 	add.w	r3, r8, r6
   d4236:	2200      	movs	r2, #0
   d4238:	f883 2024 	strb.w	r2, [r3, #36]	; 0x24
   d423c:	e009      	b.n	d4252 <igh_settings_process_settings_tuples+0x196>
                    return 0;
                }
                break;

            case SUBID_MQTT_BROKER_PORT:
                if(LENGTH_SUBID_MQTT_PORT == current_tuple_length)
   d423e:	2e02      	cmp	r6, #2
   d4240:	f040 80fe 	bne.w	d4440 <igh_settings_process_settings_tuples+0x384>
                {
                    uint8_t new_mqtt_port[LENGTH_SUBID_MQTT_PORT]; 
                    memcpy(new_mqtt_port, &settings[current_data_index], LENGTH_SUBID_MQTT_PORT);
   d4244:	192b      	adds	r3, r5, r4
                    igh_current_system_settings.broker_port = GET16(new_mqtt_port);
   d4246:	5d2a      	ldrb	r2, [r5, r4]
   d4248:	785b      	ldrb	r3, [r3, #1]
   d424a:	eb03 2302 	add.w	r3, r3, r2, lsl #8
   d424e:	f8a8 3044 	strh.w	r3, [r8, #68]	; 0x44
                    mqtt_set_broker = 1;
   d4252:	2301      	movs	r3, #1
   d4254:	f889 3000 	strb.w	r3, [r9]
                }
                else
                {
                    return 0;
                }
                break; 
   d4258:	e0e9      	b.n	d442e <igh_settings_process_settings_tuples+0x372>

            case SUBID_SOIL_MOISTURE_LOW:
                if(LENGTH_SUBID_SOIL_MOISTURE_LOW == current_tuple_length)
   d425a:	2e02      	cmp	r6, #2
   d425c:	f040 80f0 	bne.w	d4440 <igh_settings_process_settings_tuples+0x384>
                {
                    uint8_t new_moisture_low_th[LENGTH_SUBID_SOIL_MOISTURE_LOW]; 
                    memcpy(new_moisture_low_th, &settings[current_data_index], LENGTH_SUBID_SOIL_MOISTURE_LOW);
   d4260:	192b      	adds	r3, r5, r4
                    igh_current_threshold_settings.soil_moisture_low = GET16(new_moisture_low_th);
   d4262:	5d2a      	ldrb	r2, [r5, r4]
   d4264:	785b      	ldrb	r3, [r3, #1]
   d4266:	eb03 2302 	add.w	r3, r3, r2, lsl #8
   d426a:	807b      	strh	r3, [r7, #2]
                }
                else
                {
                    return 0;
                }
                break; 
   d426c:	e0df      	b.n	d442e <igh_settings_process_settings_tuples+0x372>

            case SUBID_SOIL_MOISTURE_HIGH:
                if(LENGTH_SUBID_SOIL_MOISTURE_HIGH == current_tuple_length)
   d426e:	2e02      	cmp	r6, #2
   d4270:	f040 80e6 	bne.w	d4440 <igh_settings_process_settings_tuples+0x384>
                {
                    uint8_t new_moisture_high_th[LENGTH_SUBID_SOIL_MOISTURE_HIGH]; 
                    memcpy(new_moisture_high_th, &settings[current_data_index], LENGTH_SUBID_SOIL_MOISTURE_LOW);
   d4274:	192b      	adds	r3, r5, r4
                    igh_current_threshold_settings.soil_moisture_high = GET16(new_moisture_high_th);
   d4276:	5d2a      	ldrb	r2, [r5, r4]
   d4278:	785b      	ldrb	r3, [r3, #1]
   d427a:	eb03 2302 	add.w	r3, r3, r2, lsl #8
   d427e:	83bb      	strh	r3, [r7, #28]
                }
                else
                {
                    return 0;
                }
                break; 
   d4280:	e0d5      	b.n	d442e <igh_settings_process_settings_tuples+0x372>

            case SUBID_AIR_HUMIDITY_LOW:
                if(LENGTH_SUBID_AIR_HUMIDITY_LOW  == current_tuple_length)
   d4282:	2e02      	cmp	r6, #2
   d4284:	f040 80dc 	bne.w	d4440 <igh_settings_process_settings_tuples+0x384>
                {
                    uint8_t new_air_humidity_low_th[LENGTH_SUBID_AIR_HUMIDITY_LOW]; 
                    memcpy(new_air_humidity_low_th, &settings[current_data_index], LENGTH_SUBID_AIR_HUMIDITY_LOW);
   d4288:	192b      	adds	r3, r5, r4
                    igh_current_threshold_settings.air_humidity_low = GET16(new_air_humidity_low_th);
   d428a:	5d2a      	ldrb	r2, [r5, r4]
   d428c:	785b      	ldrb	r3, [r3, #1]
   d428e:	eb03 2302 	add.w	r3, r3, r2, lsl #8
   d4292:	80bb      	strh	r3, [r7, #4]
                }
                else
                {
                    return 0;
                }
                break; 
   d4294:	e0cb      	b.n	d442e <igh_settings_process_settings_tuples+0x372>

            case SUBID_AIR_HUMIDITY_HIGH:
                if(LENGTH_SUBID_AIR_HUMIDITY_HIGH  == current_tuple_length)
   d4296:	2e02      	cmp	r6, #2
   d4298:	f040 80d2 	bne.w	d4440 <igh_settings_process_settings_tuples+0x384>
                {
                    uint8_t new_air_humidity_high_th[LENGTH_SUBID_AIR_HUMIDITY_HIGH]; 
                    memcpy(new_air_humidity_high_th, &settings[current_data_index], LENGTH_SUBID_AIR_HUMIDITY_HIGH);
   d429c:	192b      	adds	r3, r5, r4
                    igh_current_threshold_settings.air_humidity_high = GET16(new_air_humidity_high_th);
   d429e:	5d2a      	ldrb	r2, [r5, r4]
   d42a0:	785b      	ldrb	r3, [r3, #1]
   d42a2:	eb03 2302 	add.w	r3, r3, r2, lsl #8
   d42a6:	83fb      	strh	r3, [r7, #30]
                }
                else
                {
                    return 0;
                }
                break;
   d42a8:	e0c1      	b.n	d442e <igh_settings_process_settings_tuples+0x372>

            case SUBID_SOIL_HUMIDITY_LOW:
                if(LENGTH_SUBID_SOIL_HUMIDITY_LOW  == current_tuple_length)
   d42aa:	2e02      	cmp	r6, #2
   d42ac:	f040 80c8 	bne.w	d4440 <igh_settings_process_settings_tuples+0x384>
                {
                    uint8_t new_soil_humidity_low_th[LENGTH_SUBID_SOIL_HUMIDITY_LOW]; 
                    memcpy(new_soil_humidity_low_th, &settings[current_data_index], LENGTH_SUBID_SOIL_HUMIDITY_LOW);
   d42b0:	192b      	adds	r3, r5, r4
                    igh_current_threshold_settings.soil_humidity_low = GET16(new_soil_humidity_low_th);
   d42b2:	5d2a      	ldrb	r2, [r5, r4]
   d42b4:	785b      	ldrb	r3, [r3, #1]
   d42b6:	eb03 2302 	add.w	r3, r3, r2, lsl #8
   d42ba:	80fb      	strh	r3, [r7, #6]
                }
                else
                {
                    return 0;
                }
                break; 
   d42bc:	e0b7      	b.n	d442e <igh_settings_process_settings_tuples+0x372>

            case SUBID_SOIL_HUMIDITY_HIGH:
                if(LENGTH_SUBID_SOIL_HUMIDITY_HIGH  == current_tuple_length)
   d42be:	2e02      	cmp	r6, #2
   d42c0:	f040 80be 	bne.w	d4440 <igh_settings_process_settings_tuples+0x384>
                {
                    uint8_t new_soil_humidity_high_th[LENGTH_SUBID_SOIL_HUMIDITY_HIGH]; 
                    memcpy(new_soil_humidity_high_th, &settings[current_data_index], LENGTH_SUBID_SOIL_HUMIDITY_HIGH);
   d42c4:	192b      	adds	r3, r5, r4
                    igh_current_threshold_settings.soil_humidity_high = GET16(new_soil_humidity_high_th);
   d42c6:	5d2a      	ldrb	r2, [r5, r4]
   d42c8:	785b      	ldrb	r3, [r3, #1]
   d42ca:	eb03 2302 	add.w	r3, r3, r2, lsl #8
   d42ce:	843b      	strh	r3, [r7, #32]
                }
                else
                {
                    return 0;
                }
                break;
   d42d0:	e0ad      	b.n	d442e <igh_settings_process_settings_tuples+0x372>

            case SUBID_CARBON_DIOXIDE_LOW:
                if(LENGTH_SUBID_CARBON_DIOXIDE_LOW  == current_tuple_length)
   d42d2:	2e02      	cmp	r6, #2
   d42d4:	f040 80b4 	bne.w	d4440 <igh_settings_process_settings_tuples+0x384>
                {
                    uint8_t new_carbon_dioxide_low_th[LENGTH_SUBID_CARBON_DIOXIDE_LOW]; 
                    memcpy(new_carbon_dioxide_low_th, &settings[current_data_index], LENGTH_SUBID_CARBON_DIOXIDE_LOW);
   d42d8:	192b      	adds	r3, r5, r4
                    igh_current_threshold_settings.carbon_dioxide_low = GET16(new_carbon_dioxide_low_th);
   d42da:	5d2a      	ldrb	r2, [r5, r4]
   d42dc:	785b      	ldrb	r3, [r3, #1]
   d42de:	eb03 2302 	add.w	r3, r3, r2, lsl #8
   d42e2:	813b      	strh	r3, [r7, #8]
                }
                else
                {
                    return 0;
                }
                break; 
   d42e4:	e0a3      	b.n	d442e <igh_settings_process_settings_tuples+0x372>

            case SUBID_CARBON_DIOXIDE_HIGH:
                if(LENGTH_SUBID_CARBON_DIOXIDE_HIGH  == current_tuple_length)
   d42e6:	2e02      	cmp	r6, #2
   d42e8:	f040 80aa 	bne.w	d4440 <igh_settings_process_settings_tuples+0x384>
                {
                    uint8_t new_carbon_dioxide_high_th[LENGTH_SUBID_CARBON_DIOXIDE_HIGH]; 
                    memcpy(new_carbon_dioxide_high_th, &settings[current_data_index], LENGTH_SUBID_CARBON_DIOXIDE_HIGH);
   d42ec:	192b      	adds	r3, r5, r4
                    igh_current_threshold_settings.carbon_dioxide_high = GET16(new_carbon_dioxide_high_th);
   d42ee:	5d2a      	ldrb	r2, [r5, r4]
   d42f0:	785b      	ldrb	r3, [r3, #1]
   d42f2:	eb03 2302 	add.w	r3, r3, r2, lsl #8
   d42f6:	847b      	strh	r3, [r7, #34]	; 0x22
                }
                else
                {
                    return 0;
                }
                break;
   d42f8:	e099      	b.n	d442e <igh_settings_process_settings_tuples+0x372>

            case SUBID_AIR_TEMPERATURE_LOW:
                if(LENGTH_SUBID_AIR_TEMPERATURE_LOW  == current_tuple_length)
   d42fa:	2e02      	cmp	r6, #2
   d42fc:	f040 80a0 	bne.w	d4440 <igh_settings_process_settings_tuples+0x384>
                {
                    uint8_t new_air_temperature_low_th[LENGTH_SUBID_AIR_TEMPERATURE_LOW]; 
                    memcpy(new_air_temperature_low_th, &settings[current_data_index], LENGTH_SUBID_AIR_TEMPERATURE_LOW);
   d4300:	192b      	adds	r3, r5, r4
                    igh_current_threshold_settings.air_temperature_low = GET16(new_air_temperature_low_th);
   d4302:	5d2a      	ldrb	r2, [r5, r4]
   d4304:	785b      	ldrb	r3, [r3, #1]
   d4306:	eb03 2302 	add.w	r3, r3, r2, lsl #8
   d430a:	817b      	strh	r3, [r7, #10]
                }
                else
                {
                    return 0;
                }
                break; 
   d430c:	e08f      	b.n	d442e <igh_settings_process_settings_tuples+0x372>

            case SUBID_AIR_TEMPERATURE_HIGH:
                if(LENGTH_SUBID_AIR_TEMPERATURE_HIGH  == current_tuple_length)
   d430e:	2e02      	cmp	r6, #2
   d4310:	f040 8096 	bne.w	d4440 <igh_settings_process_settings_tuples+0x384>
                {
                    uint8_t new_air_temperature_high_th[LENGTH_SUBID_AIR_TEMPERATURE_HIGH]; 
                    memcpy(new_air_temperature_high_th, &settings[current_data_index], LENGTH_SUBID_AIR_TEMPERATURE_HIGH);
   d4314:	192b      	adds	r3, r5, r4
                    igh_current_threshold_settings.air_temperature_high = GET16(new_air_temperature_high_th);
   d4316:	5d2a      	ldrb	r2, [r5, r4]
   d4318:	785b      	ldrb	r3, [r3, #1]
   d431a:	eb03 2302 	add.w	r3, r3, r2, lsl #8
   d431e:	84bb      	strh	r3, [r7, #36]	; 0x24
                }
                else
                {
                    return 0;
                }
                break;
   d4320:	e085      	b.n	d442e <igh_settings_process_settings_tuples+0x372>

            case SUBID_SOIL_TEMPERATURE_LOW:
                if(LENGTH_SUBID_SOIL_TEMPERATURE_LOW  == current_tuple_length)
   d4322:	2e02      	cmp	r6, #2
   d4324:	f040 808c 	bne.w	d4440 <igh_settings_process_settings_tuples+0x384>
                {
                    uint8_t new_soil_temperature_low_th[LENGTH_SUBID_SOIL_TEMPERATURE_LOW]; 
                    memcpy(new_soil_temperature_low_th, &settings[current_data_index], LENGTH_SUBID_SOIL_TEMPERATURE_LOW);
   d4328:	192b      	adds	r3, r5, r4
                    igh_current_threshold_settings.soil_temperature_low = GET16(new_soil_temperature_low_th);
   d432a:	5d2a      	ldrb	r2, [r5, r4]
   d432c:	785b      	ldrb	r3, [r3, #1]
   d432e:	eb03 2302 	add.w	r3, r3, r2, lsl #8
   d4332:	81bb      	strh	r3, [r7, #12]
                }
                else
                {
                    return 0;
                }
                break; 
   d4334:	e07b      	b.n	d442e <igh_settings_process_settings_tuples+0x372>

            case SUBID_SOIL_TEMPERATURE_HIGH:
                if(LENGTH_SUBID_SOIL_TEMPERATURE_HIGH  == current_tuple_length)
   d4336:	2e02      	cmp	r6, #2
   d4338:	f040 8082 	bne.w	d4440 <igh_settings_process_settings_tuples+0x384>
                {
                    uint8_t new_soil_temperature_high_th[LENGTH_SUBID_SOIL_TEMPERATURE_HIGH]; 
                    memcpy(new_soil_temperature_high_th, &settings[current_data_index], LENGTH_SUBID_SOIL_TEMPERATURE_HIGH);
   d433c:	192b      	adds	r3, r5, r4
                    igh_current_threshold_settings.soil_temperature_high = GET16(new_soil_temperature_high_th);
   d433e:	5d2a      	ldrb	r2, [r5, r4]
   d4340:	785b      	ldrb	r3, [r3, #1]
   d4342:	eb03 2302 	add.w	r3, r3, r2, lsl #8
   d4346:	84fb      	strh	r3, [r7, #38]	; 0x26
                }
                else
                {
                    return 0;
                }
                break;    
   d4348:	e071      	b.n	d442e <igh_settings_process_settings_tuples+0x372>

            case SUBID_SOIL_NPK_HIGH:
                if(LENGTH_SUBID_SOIL_NPK_HIGH  == current_tuple_length)
   d434a:	2e02      	cmp	r6, #2
   d434c:	d178      	bne.n	d4440 <igh_settings_process_settings_tuples+0x384>
                {
                    uint8_t new_soil_npk_high_th[LENGTH_SUBID_SOIL_NPK_HIGH]; 
                    memcpy(new_soil_npk_high_th, &settings[current_data_index], LENGTH_SUBID_SOIL_NPK_HIGH);
   d434e:	192b      	adds	r3, r5, r4
                    igh_current_threshold_settings.soil_npk_high = GET16(new_soil_npk_high_th);
   d4350:	5d2a      	ldrb	r2, [r5, r4]
   d4352:	785b      	ldrb	r3, [r3, #1]
   d4354:	eb03 2302 	add.w	r3, r3, r2, lsl #8
   d4358:	853b      	strh	r3, [r7, #40]	; 0x28
                }
                else
                {
                    return 0;
                }
                break;   
   d435a:	e068      	b.n	d442e <igh_settings_process_settings_tuples+0x372>

            case SUBID_SOIL_NPK_LOW:
                if(LENGTH_SUBID_SOIL_NPK_LOW  == current_tuple_length)
   d435c:	2e02      	cmp	r6, #2
   d435e:	d16f      	bne.n	d4440 <igh_settings_process_settings_tuples+0x384>
                {
                    uint8_t new_soil_npk_low_th[LENGTH_SUBID_SOIL_NPK_LOW]; 
                    memcpy(new_soil_npk_low_th, &settings[current_data_index], LENGTH_SUBID_SOIL_NPK_LOW);
   d4360:	192b      	adds	r3, r5, r4
                    igh_current_threshold_settings.soil_npk_low = GET16(new_soil_npk_low_th);
   d4362:	5d2a      	ldrb	r2, [r5, r4]
   d4364:	785b      	ldrb	r3, [r3, #1]
   d4366:	eb03 2302 	add.w	r3, r3, r2, lsl #8
   d436a:	81fb      	strh	r3, [r7, #14]
                }
                else
                {
                    return 0;
                }
                break; 
   d436c:	e05f      	b.n	d442e <igh_settings_process_settings_tuples+0x372>
   d436e:	bf00      	nop
   d4370:	2003e650 	.word	0x2003e650
   d4374:	2003e61c 	.word	0x2003e61c
   d4378:	2003d9c1 	.word	0x2003d9c1
   d437c:	2003e628 	.word	0x2003e628
   d4380:	2003e604 	.word	0x2003e604
   d4384:	2003d8d0 	.word	0x2003d8d0

            case SUBID_LIGHT_INTENSITY_LOW:
                if(LENGTH_SUBID_LIGHT_INTENSITY_LOW  == current_tuple_length)
   d4388:	2e02      	cmp	r6, #2
   d438a:	d159      	bne.n	d4440 <igh_settings_process_settings_tuples+0x384>
                {
                    uint8_t new_light_intensity_low_th[LENGTH_SUBID_LIGHT_INTENSITY_LOW]; 
                    memcpy(new_light_intensity_low_th, &settings[current_data_index], LENGTH_SUBID_LIGHT_INTENSITY_LOW);
   d438c:	192b      	adds	r3, r5, r4
                    igh_current_threshold_settings.light_intensity_low = GET16(new_light_intensity_low_th);
   d438e:	5d2a      	ldrb	r2, [r5, r4]
   d4390:	785b      	ldrb	r3, [r3, #1]
   d4392:	eb03 2302 	add.w	r3, r3, r2, lsl #8
   d4396:	823b      	strh	r3, [r7, #16]
                }
                else
                {
                    return 0;
                }
                break; 
   d4398:	e049      	b.n	d442e <igh_settings_process_settings_tuples+0x372>

            case SUBID_LIGHT_INTENSITY_HIGH:
                if(LENGTH_SUBID_LIGHT_INTENSITY_HIGH  == current_tuple_length)
   d439a:	2e02      	cmp	r6, #2
   d439c:	d150      	bne.n	d4440 <igh_settings_process_settings_tuples+0x384>
                {
                    uint8_t new_light_intensity_high_th[LENGTH_SUBID_LIGHT_INTENSITY_HIGH]; 
                    memcpy(new_light_intensity_high_th, &settings[current_data_index], LENGTH_SUBID_LIGHT_INTENSITY_HIGH);
   d439e:	192b      	adds	r3, r5, r4
                    igh_current_threshold_settings.light_intensity_high = GET16(new_light_intensity_high_th);
   d43a0:	5d2a      	ldrb	r2, [r5, r4]
   d43a2:	785b      	ldrb	r3, [r3, #1]
   d43a4:	eb03 2302 	add.w	r3, r3, r2, lsl #8
   d43a8:	857b      	strh	r3, [r7, #42]	; 0x2a
                }
                else
                {
                    return 0;
                }
                break; 
   d43aa:	e040      	b.n	d442e <igh_settings_process_settings_tuples+0x372>

            case SUBID_SHIELD_BATTERY_LEVEL_LOW:
                if(LENGTH_SUBID_SHIELD_BATTERY_LEVEL_LOW  == current_tuple_length)
   d43ac:	2e02      	cmp	r6, #2
   d43ae:	d147      	bne.n	d4440 <igh_settings_process_settings_tuples+0x384>
                {
                    uint8_t new_shield_battery_low_th[LENGTH_SUBID_SHIELD_BATTERY_LEVEL_LOW]; 
                    memcpy(new_shield_battery_low_th, &settings[current_data_index], LENGTH_SUBID_SHIELD_BATTERY_LEVEL_LOW);
   d43b0:	192b      	adds	r3, r5, r4
                    igh_current_threshold_settings.shield_battery_level_low = GET16(new_shield_battery_low_th);
   d43b2:	5d2a      	ldrb	r2, [r5, r4]
   d43b4:	785b      	ldrb	r3, [r3, #1]
   d43b6:	eb03 2302 	add.w	r3, r3, r2, lsl #8
   d43ba:	827b      	strh	r3, [r7, #18]
                }
                else
                {
                    return 0;
                }
                break;
   d43bc:	e037      	b.n	d442e <igh_settings_process_settings_tuples+0x372>

            case SUBID_SHIELD_BATTERY_LEVEL_HIGH:
                if(LENGTH_SUBID_SHIELD_BATTERY_LEVEL_HIGH  == current_tuple_length)
   d43be:	2e02      	cmp	r6, #2
   d43c0:	d13e      	bne.n	d4440 <igh_settings_process_settings_tuples+0x384>
                {
                    uint8_t new_shield_battery_high_th[LENGTH_SUBID_SHIELD_BATTERY_LEVEL_HIGH]; 
                    memcpy(new_shield_battery_high_th, &settings[current_data_index], LENGTH_SUBID_SHIELD_BATTERY_LEVEL_HIGH);
   d43c2:	192b      	adds	r3, r5, r4
                    igh_current_threshold_settings.shield_battery_level_high = GET16(new_shield_battery_high_th);
   d43c4:	5d2a      	ldrb	r2, [r5, r4]
   d43c6:	785b      	ldrb	r3, [r3, #1]
   d43c8:	eb03 2302 	add.w	r3, r3, r2, lsl #8
   d43cc:	85bb      	strh	r3, [r7, #44]	; 0x2c
                }
                else
                {
                    return 0;
                }
                break;  
   d43ce:	e02e      	b.n	d442e <igh_settings_process_settings_tuples+0x372>

            case SUBID_SPEAR_BATTERY_LEVEL_LOW:
                if(LENGTH_SUBID_SPEAR_BATTERY_LEVEL_LOW  == current_tuple_length)
   d43d0:	2e02      	cmp	r6, #2
   d43d2:	d135      	bne.n	d4440 <igh_settings_process_settings_tuples+0x384>
                {
                    uint8_t new_spear_battery_low_th[LENGTH_SUBID_SPEAR_BATTERY_LEVEL_LOW]; 
                    memcpy(new_spear_battery_low_th, &settings[current_data_index], LENGTH_SUBID_SPEAR_BATTERY_LEVEL_LOW);
   d43d4:	192b      	adds	r3, r5, r4
                    igh_current_threshold_settings.spear_battery_level_low = GET16(new_spear_battery_low_th);
   d43d6:	5d2a      	ldrb	r2, [r5, r4]
   d43d8:	785b      	ldrb	r3, [r3, #1]
   d43da:	eb03 2302 	add.w	r3, r3, r2, lsl #8
   d43de:	82bb      	strh	r3, [r7, #20]
                }
                else
                {
                    return 0;
                }
                break;
   d43e0:	e025      	b.n	d442e <igh_settings_process_settings_tuples+0x372>

            case SUBID_SPEAR_BATTERY_LEVEL_HIGH:
                if(LENGTH_SUBID_SPEAR_BATTERY_LEVEL_HIGH  == current_tuple_length)
   d43e2:	2e02      	cmp	r6, #2
   d43e4:	d12c      	bne.n	d4440 <igh_settings_process_settings_tuples+0x384>
                {
                    uint8_t new_spear_battery_high_th[LENGTH_SUBID_SPEAR_BATTERY_LEVEL_HIGH]; 
                    memcpy(new_spear_battery_high_th, &settings[current_data_index], LENGTH_SUBID_SPEAR_BATTERY_LEVEL_HIGH);
   d43e6:	192b      	adds	r3, r5, r4
                    igh_current_threshold_settings.spear_battery_level_high = GET16(new_spear_battery_high_th);
   d43e8:	5d2a      	ldrb	r2, [r5, r4]
   d43ea:	785b      	ldrb	r3, [r3, #1]
   d43ec:	eb03 2302 	add.w	r3, r3, r2, lsl #8
   d43f0:	85fb      	strh	r3, [r7, #46]	; 0x2e
                }
                else
                {
                    return 0;
                }
                break;
   d43f2:	e01c      	b.n	d442e <igh_settings_process_settings_tuples+0x372>

            case SUBID_WATER_DISPENSED_PERIOD_LOW:
                if(LENGTH_SUBID_WATER_DISPENSED_PERIOD_LOW == current_tuple_length)
   d43f4:	2e04      	cmp	r6, #4
   d43f6:	d123      	bne.n	d4440 <igh_settings_process_settings_tuples+0x384>
                {
                    uint8_t new_water_dispensed_period_low[LENGTH_SUBID_WATER_DISPENSED_PERIOD_LOW]; 
                    memcpy(new_water_dispensed_period_low, &settings[current_data_index], LENGTH_SUBID_WATER_DISPENSED_PERIOD_LOW);
   d43f8:	1929      	adds	r1, r5, r4
                    igh_current_threshold_settings.water_dispensed_period_low = GET32(new_water_dispensed_period_low);
   d43fa:	5d2a      	ldrb	r2, [r5, r4]
   d43fc:	784b      	ldrb	r3, [r1, #1]
   d43fe:	041b      	lsls	r3, r3, #16
   d4400:	eb03 6302 	add.w	r3, r3, r2, lsl #24
   d4404:	78ca      	ldrb	r2, [r1, #3]
   d4406:	4413      	add	r3, r2
   d4408:	788a      	ldrb	r2, [r1, #2]
   d440a:	eb03 2302 	add.w	r3, r3, r2, lsl #8
   d440e:	61bb      	str	r3, [r7, #24]
                else
                {
                    // stop processing any more settings as they may be corrupt
                    return 0;
                }
                break;
   d4410:	e00d      	b.n	d442e <igh_settings_process_settings_tuples+0x372>

            case SUBID_WATER_DISPENSED_PERIOD_HIGH:
                if(LENGTH_SUBID_WATER_DISPENSED_PERIOD_HIGH == current_tuple_length)
   d4412:	2e04      	cmp	r6, #4
   d4414:	d114      	bne.n	d4440 <igh_settings_process_settings_tuples+0x384>
                {
                    uint8_t new_water_dispensed_period_high[LENGTH_SUBID_WATER_DISPENSED_PERIOD_HIGH]; 
                    memcpy(new_water_dispensed_period_high, &settings[current_data_index], LENGTH_SUBID_WATER_DISPENSED_PERIOD_HIGH);
   d4416:	1929      	adds	r1, r5, r4
                    igh_current_threshold_settings.water_dispensed_period_high = GET32(new_water_dispensed_period_high);
   d4418:	5d2a      	ldrb	r2, [r5, r4]
   d441a:	784b      	ldrb	r3, [r1, #1]
   d441c:	041b      	lsls	r3, r3, #16
   d441e:	eb03 6302 	add.w	r3, r3, r2, lsl #24
   d4422:	78ca      	ldrb	r2, [r1, #3]
   d4424:	4413      	add	r3, r2
   d4426:	788a      	ldrb	r2, [r1, #2]
   d4428:	eb03 2302 	add.w	r3, r3, r2, lsl #8
   d442c:	633b      	str	r3, [r7, #48]	; 0x30

            default: // nothing to do hear
                break;
        }
        // move index to next tuple id
        byte_tracker += current_tuple_length + TUPLE_HEADER_LEN;
   d442e:	1cb3      	adds	r3, r6, #2
   d4430:	eb0b 0603 	add.w	r6, fp, r3
   d4434:	fa5f fb86 	uxtb.w	fp, r6
   d4438:	e64a      	b.n	d40d0 <igh_settings_process_settings_tuples+0x14>
    }
    return 1;
   d443a:	2001      	movs	r0, #1
   d443c:	e8bd 8ff8 	ldmia.w	sp!, {r3, r4, r5, r6, r7, r8, r9, sl, fp, pc}
                    
                }
                else
                {
                    // stop processing any more settings as they may be corrupt
                    return 0;
   d4440:	2000      	movs	r0, #0
        }
        // move index to next tuple id
        byte_tracker += current_tuple_length + TUPLE_HEADER_LEN;
    }
    return 1;
}
   d4442:	e8bd 8ff8 	ldmia.w	sp!, {r3, r4, r5, r6, r7, r8, r9, sl, fp, pc}
   d4446:	bf00      	nop

000d4448 <igh_settings_calculate_checksum>:
 * struct must have a single byte at the end designated for the checksum for this to work
 * \param p_struct: pointer to data struct, total_bytes: sizeof(data struct)
 * \return the checksum
 */
uint8_t igh_settings_calculate_checksum(void * p_struct, size_t total_bytes)
{
   d4448:	b510      	push	{r4, lr}
    data = (uint8_t *)p_struct;

    // uint8_t data_buffer[length];
    // memcpy(data_buffer, data, length);

    data += 1; // ignore checksum byte
   d444a:	1c42      	adds	r2, r0, #1
 */
uint8_t igh_settings_calculate_checksum(void * p_struct, size_t total_bytes)
{
    uint8_t length = (uint8_t)total_bytes; 
    uint8_t * data;
    int sum = 0;
   d444c:	2300      	movs	r3, #0
    // uint8_t data_buffer[length];
    // memcpy(data_buffer, data, length);

    data += 1; // ignore checksum byte
    // start at 1 to ignore the checksum byte
    for( int i = 1; i < length; i++)
   d444e:	b2c9      	uxtb	r1, r1
   d4450:	1a14      	subs	r4, r2, r0
   d4452:	42a1      	cmp	r1, r4
   d4454:	dd03      	ble.n	d445e <igh_settings_calculate_checksum+0x16>
    {
        sum += (0xFF & *data++);
   d4456:	f812 4b01 	ldrb.w	r4, [r2], #1
   d445a:	4423      	add	r3, r4
   d445c:	e7f8      	b.n	d4450 <igh_settings_calculate_checksum+0x8>
    }

    checksum = (uint8_t)(sum % 256);

    return checksum;
}
   d445e:	b2d8      	uxtb	r0, r3
   d4460:	bd10      	pop	{r4, pc}
	...

000d4464 <igh_settings_parse_new_settings>:
    }
    return 1;
}

uint8_t igh_settings_parse_new_settings(uint8_t * settings)
{
   d4464:	b510      	push	{r4, lr}
    // get the length
    uint8_t length = settings[PAYLOAD_LEN_INDEX]; // byte at position one should always be length
   d4466:	7c82      	ldrb	r2, [r0, #18]
    // guard the process
    if(0 >= length)
   d4468:	b90a      	cbnz	r2, d446e <igh_settings_parse_new_settings+0xa>
    {
        return 0; // do not allow settings with zero payload to be processed
   d446a:	2000      	movs	r0, #0
   d446c:	bd10      	pop	{r4, pc}
    // get index of last byte to process
    uint8_t settings_end_index = FIRST_TUPLE_INDEX + length;
    // get the location of first tuple
    uint8_t settings_byte_tracker = FIRST_TUPLE_INDEX;
    
    if( 0 == igh_settings_process_settings_tuples( settings, settings_byte_tracker, settings_end_index ) ) 
   d446e:	3213      	adds	r2, #19
   d4470:	b2d2      	uxtb	r2, r2
   d4472:	2113      	movs	r1, #19
   d4474:	f7ff fe22 	bl	d40bc <igh_settings_process_settings_tuples>
   d4478:	2800      	cmp	r0, #0
   d447a:	d0f6      	beq.n	d446a <igh_settings_parse_new_settings+0x6>
        return 0;
    }
    else
    {
        // update the checksum of the system settings
        igh_current_system_settings.checksum = igh_settings_calculate_checksum(&igh_current_system_settings, sizeof(igh_current_system_settings));
   d447c:	4c07      	ldr	r4, [pc, #28]	; (d449c <igh_settings_parse_new_settings+0x38>)
   d447e:	2148      	movs	r1, #72	; 0x48
   d4480:	4620      	mov	r0, r4
   d4482:	f7ff ffe1 	bl	d4448 <igh_settings_calculate_checksum>
   d4486:	7020      	strb	r0, [r4, #0]
        // update the checksum for the threshold settings
        igh_current_threshold_settings.checksum = igh_settings_calculate_checksum(&igh_current_threshold_settings, sizeof(igh_current_threshold_settings));
   d4488:	4c05      	ldr	r4, [pc, #20]	; (d44a0 <igh_settings_parse_new_settings+0x3c>)
   d448a:	2134      	movs	r1, #52	; 0x34
   d448c:	4620      	mov	r0, r4
   d448e:	f7ff ffdb 	bl	d4448 <igh_settings_calculate_checksum>
        
        new_settings_available = 1;
   d4492:	4b04      	ldr	r3, [pc, #16]	; (d44a4 <igh_settings_parse_new_settings+0x40>)
    else
    {
        // update the checksum of the system settings
        igh_current_system_settings.checksum = igh_settings_calculate_checksum(&igh_current_system_settings, sizeof(igh_current_system_settings));
        // update the checksum for the threshold settings
        igh_current_threshold_settings.checksum = igh_settings_calculate_checksum(&igh_current_threshold_settings, sizeof(igh_current_threshold_settings));
   d4494:	7020      	strb	r0, [r4, #0]
        
        new_settings_available = 1;
   d4496:	2001      	movs	r0, #1
   d4498:	7018      	strb	r0, [r3, #0]
    }
    
    return 1;
}
   d449a:	bd10      	pop	{r4, pc}
   d449c:	2003e604 	.word	0x2003e604
   d44a0:	2003e650 	.word	0x2003e650
   d44a4:	2003d9c0 	.word	0x2003d9c0

000d44a8 <igh_settings_process_settings>:
 */
uint8_t igh_settings_process_settings(uint8_t * settings)
{
    uint8_t ret = 0; 
    igh_pkt_id settings_type = (igh_pkt_id)settings[PAYLOAD_INDEX];
    switch(settings_type)
   d44a8:	7c42      	ldrb	r2, [r0, #17]
   d44aa:	2a0f      	cmp	r2, #15
   d44ac:	d003      	beq.n	d44b6 <igh_settings_process_settings+0xe>
   d44ae:	2a10      	cmp	r2, #16
   d44b0:	d108      	bne.n	d44c4 <igh_settings_process_settings+0x1c>
    {
        case VALVE_POSITION:
            ret = igh_settings_remote_valvle_control(settings);
            break;
        case IGH_SEND_SETTINGS:
            ret = igh_settings_parse_new_settings(settings);
   d44b2:	f7ff bfd7 	b.w	d4464 <igh_settings_parse_new_settings>
    return buffer_index_tracker;
}

LOCAL uint8_t igh_settings_remote_valvle_control(uint8_t * settings)
{
    if( ((valve_position)settings[FIRST_TUPLE_INDEX] == VALVE_CLOSE) ||
   d44b6:	7cc3      	ldrb	r3, [r0, #19]
   d44b8:	2b01      	cmp	r3, #1
   d44ba:	d803      	bhi.n	d44c4 <igh_settings_process_settings+0x1c>
        ((valve_position)settings[FIRST_TUPLE_INDEX] == VALVE_OPEN) )
    {
        current_valve_position =  (valve_position)settings[FIRST_TUPLE_INDEX];
   d44bc:	4a02      	ldr	r2, [pc, #8]	; (d44c8 <igh_settings_process_settings+0x20>)
        return 1;
   d44be:	2001      	movs	r0, #1
LOCAL uint8_t igh_settings_remote_valvle_control(uint8_t * settings)
{
    if( ((valve_position)settings[FIRST_TUPLE_INDEX] == VALVE_CLOSE) ||
        ((valve_position)settings[FIRST_TUPLE_INDEX] == VALVE_OPEN) )
    {
        current_valve_position =  (valve_position)settings[FIRST_TUPLE_INDEX];
   d44c0:	7013      	strb	r3, [r2, #0]
   d44c2:	4770      	bx	lr
        return 1;
    }

    return 0;
   d44c4:	2000      	movs	r0, #0
        default:
            break;
    }

    return ret;
}
   d44c6:	4770      	bx	lr
   d44c8:	2003e64c 	.word	0x2003e64c

000d44cc <igh_settings_reset_system_to_default>:
    
    return 1;
}

void igh_settings_reset_system_to_default(void)
{
   d44cc:	b5f8      	push	{r3, r4, r5, r6, r7, lr}


LOCAL void igh_settings_get_defaults(void) // Total bytes 
{
    // System settings
    memset(&igh_default_system_settings, 0, sizeof(igh_default_system_settings));
   d44ce:	4c34      	ldr	r4, [pc, #208]	; (d45a0 <igh_settings_reset_system_to_default+0xd4>)
   d44d0:	2248      	movs	r2, #72	; 0x48
   d44d2:	2100      	movs	r1, #0
   d44d4:	4620      	mov	r0, r4
   d44d6:	f006 ff85 	bl	db3e4 <memset>
    igh_default_system_settings.timezone                    = DEFAULT_TIMEZONE;
   d44da:	2303      	movs	r3, #3
    igh_default_system_settings.irrigation_hr               = DEFAULT_IRRIGATION_HR;
    igh_default_system_settings.water_dispenser_period      = DEFAULT_WATER_DISP_PERIOD;
    igh_default_system_settings.op_state                    = DEFAULT_NEW_OPSTATE;
    igh_default_system_settings.reporting_interval          = DEFAULT_REPORTING_INTERVAL;
    igh_default_system_settings.data_resolution             = DEFAULT_DATA_RESOLUTION;
    memcpy(igh_default_system_settings.serial_number, default_serial_number, LENGTH_SUBID_SET_SERIAL_NUMBER);
   d44dc:	4a31      	ldr	r2, [pc, #196]	; (d45a4 <igh_settings_reset_system_to_default+0xd8>)

LOCAL void igh_settings_get_defaults(void) // Total bytes 
{
    // System settings
    memset(&igh_default_system_settings, 0, sizeof(igh_default_system_settings));
    igh_default_system_settings.timezone                    = DEFAULT_TIMEZONE;
   d44de:	6063      	str	r3, [r4, #4]
    igh_default_system_settings.irrigation_hr               = DEFAULT_IRRIGATION_HR;
   d44e0:	2307      	movs	r3, #7
   d44e2:	7223      	strb	r3, [r4, #8]
    igh_default_system_settings.water_dispenser_period      = DEFAULT_WATER_DISP_PERIOD;
   d44e4:	f44f 63e1 	mov.w	r3, #1800	; 0x708
    igh_default_system_settings.op_state                    = DEFAULT_NEW_OPSTATE;
    igh_default_system_settings.reporting_interval          = DEFAULT_REPORTING_INTERVAL;
    igh_default_system_settings.data_resolution             = DEFAULT_DATA_RESOLUTION;
    memcpy(igh_default_system_settings.serial_number, default_serial_number, LENGTH_SUBID_SET_SERIAL_NUMBER);
   d44e8:	6810      	ldr	r0, [r2, #0]
   d44ea:	6851      	ldr	r1, [r2, #4]
{
    // System settings
    memset(&igh_default_system_settings, 0, sizeof(igh_default_system_settings));
    igh_default_system_settings.timezone                    = DEFAULT_TIMEZONE;
    igh_default_system_settings.irrigation_hr               = DEFAULT_IRRIGATION_HR;
    igh_default_system_settings.water_dispenser_period      = DEFAULT_WATER_DISP_PERIOD;
   d44ec:	60e3      	str	r3, [r4, #12]
    igh_default_system_settings.op_state                    = DEFAULT_NEW_OPSTATE;
    igh_default_system_settings.reporting_interval          = DEFAULT_REPORTING_INTERVAL;
   d44ee:	6123      	str	r3, [r4, #16]
    igh_default_system_settings.data_resolution             = DEFAULT_DATA_RESOLUTION;
   d44f0:	f44f 7316 	mov.w	r3, #600	; 0x258
   d44f4:	6163      	str	r3, [r4, #20]
    memcpy(igh_default_system_settings.serial_number, default_serial_number, LENGTH_SUBID_SET_SERIAL_NUMBER);
   d44f6:	f104 0318 	add.w	r3, r4, #24
   d44fa:	c303      	stmia	r3!, {r0, r1}
   d44fc:	6890      	ldr	r0, [r2, #8]
   d44fe:	6018      	str	r0, [r3, #0]
    memcpy(igh_default_system_settings.broker, default_broker_url, sizeof(default_broker_url));
   d4500:	4b29      	ldr	r3, [pc, #164]	; (d45a8 <igh_settings_reset_system_to_default+0xdc>)
   d4502:	f104 0224 	add.w	r2, r4, #36	; 0x24
   d4506:	f103 0610 	add.w	r6, r3, #16
   d450a:	6818      	ldr	r0, [r3, #0]
   d450c:	6859      	ldr	r1, [r3, #4]
   d450e:	4615      	mov	r5, r2
   d4510:	c503      	stmia	r5!, {r0, r1}
   d4512:	3308      	adds	r3, #8
   d4514:	42b3      	cmp	r3, r6
   d4516:	462a      	mov	r2, r5
   d4518:	d1f7      	bne.n	d450a <igh_settings_reset_system_to_default+0x3e>
   d451a:	881b      	ldrh	r3, [r3, #0]
   d451c:	802b      	strh	r3, [r5, #0]
    igh_default_system_settings.broker_port                 = DEFAULT_MQTT_BROKER_PORT;
    igh_default_system_settings.checksum = igh_settings_calculate_checksum(&igh_default_system_settings, sizeof(igh_default_system_settings));
   d451e:	2148      	movs	r1, #72	; 0x48
    igh_default_system_settings.op_state                    = DEFAULT_NEW_OPSTATE;
    igh_default_system_settings.reporting_interval          = DEFAULT_REPORTING_INTERVAL;
    igh_default_system_settings.data_resolution             = DEFAULT_DATA_RESOLUTION;
    memcpy(igh_default_system_settings.serial_number, default_serial_number, LENGTH_SUBID_SET_SERIAL_NUMBER);
    memcpy(igh_default_system_settings.broker, default_broker_url, sizeof(default_broker_url));
    igh_default_system_settings.broker_port                 = DEFAULT_MQTT_BROKER_PORT;
   d4520:	f240 735b 	movw	r3, #1883	; 0x75b
    igh_default_system_settings.checksum = igh_settings_calculate_checksum(&igh_default_system_settings, sizeof(igh_default_system_settings));
   d4524:	481e      	ldr	r0, [pc, #120]	; (d45a0 <igh_settings_reset_system_to_default+0xd4>)
    igh_default_system_settings.op_state                    = DEFAULT_NEW_OPSTATE;
    igh_default_system_settings.reporting_interval          = DEFAULT_REPORTING_INTERVAL;
    igh_default_system_settings.data_resolution             = DEFAULT_DATA_RESOLUTION;
    memcpy(igh_default_system_settings.serial_number, default_serial_number, LENGTH_SUBID_SET_SERIAL_NUMBER);
    memcpy(igh_default_system_settings.broker, default_broker_url, sizeof(default_broker_url));
    igh_default_system_settings.broker_port                 = DEFAULT_MQTT_BROKER_PORT;
   d4526:	f8a4 3044 	strh.w	r3, [r4, #68]	; 0x44
    igh_default_system_settings.checksum = igh_settings_calculate_checksum(&igh_default_system_settings, sizeof(igh_default_system_settings));
   d452a:	f7ff ff8d 	bl	d4448 <igh_settings_calculate_checksum>
   d452e:	7020      	strb	r0, [r4, #0]

    //High Threshold tirggers
    memset(&igh_default_thresholds, 0, sizeof(igh_default_thresholds));
   d4530:	4c1e      	ldr	r4, [pc, #120]	; (d45ac <igh_settings_reset_system_to_default+0xe0>)
}

void igh_settings_reset_system_to_default(void)
{
    igh_settings_get_defaults();
    igh_current_system_settings = igh_default_system_settings;
   d4532:	4f1f      	ldr	r7, [pc, #124]	; (d45b0 <igh_settings_reset_system_to_default+0xe4>)
    igh_current_threshold_settings = igh_default_thresholds;
   d4534:	4e1f      	ldr	r6, [pc, #124]	; (d45b4 <igh_settings_reset_system_to_default+0xe8>)
    memcpy(igh_default_system_settings.broker, default_broker_url, sizeof(default_broker_url));
    igh_default_system_settings.broker_port                 = DEFAULT_MQTT_BROKER_PORT;
    igh_default_system_settings.checksum = igh_settings_calculate_checksum(&igh_default_system_settings, sizeof(igh_default_system_settings));

    //High Threshold tirggers
    memset(&igh_default_thresholds, 0, sizeof(igh_default_thresholds));
   d4536:	2234      	movs	r2, #52	; 0x34
   d4538:	2100      	movs	r1, #0
   d453a:	4620      	mov	r0, r4
   d453c:	f006 ff52 	bl	db3e4 <memset>
    igh_default_thresholds.soil_moisture_low                = DEFAULT_SOIL_MOISTURE_LOW;                   
    igh_default_thresholds.air_humidity_low                 = DEFAULT_AIR_HUMIDITY_LOW;                     
    igh_default_thresholds.soil_humidity_low                = DEFAULT_SOIL_HUMIDITY_LOW;                   
   d4540:	233c      	movs	r3, #60	; 0x3c
   d4542:	80e3      	strh	r3, [r4, #6]
    igh_default_thresholds.light_intensity_low              = DEFAULT_LIGHT_INTENSITY_LOW;               
    igh_default_thresholds.shield_battery_level_low         = DEFAULT_SHIELD_BATTERY_LEVEL_LOW;     
    igh_default_thresholds.spear_battery_level_low          = DEFAULT_SPEAR_BATTERY_LEVEL_LOW;      
    igh_default_thresholds.water_dispensed_period_low       = DEFAULT_WATER_DISPENSED_PERIOD_LOW;
    // Low Threshold Trigger
    igh_default_thresholds.soil_moisture_high               = DEFAULT_SOIL_MOISTURE_HIGH;                 
   d4544:	23ff      	movs	r3, #255	; 0xff
   d4546:	83a3      	strh	r3, [r4, #28]
    igh_default_thresholds.air_humidity_high                = DEFAULT_AIR_HUMIDITY_HIGH;                   
   d4548:	83e3      	strh	r3, [r4, #30]
    igh_default_thresholds.soil_humidity_high               = DEFAULT_SOIL_HUMIDITY_HIGH;                 
   d454a:	225a      	movs	r2, #90	; 0x5a
    igh_default_thresholds.carbon_dioxide_high              = DEFAULT_CARBON_DIOXIDE_HIGH;        
   d454c:	8463      	strh	r3, [r4, #34]	; 0x22
    igh_default_thresholds.air_temperature_high             = DEFAULT_AIR_TEMPERATURE_HIGH;             
   d454e:	84a3      	strh	r3, [r4, #36]	; 0x24
    igh_default_thresholds.soil_temperature_high            = DEFAULT_SOIL_TEMPERATURE_HIGH;           
   d4550:	84e3      	strh	r3, [r4, #38]	; 0x26
    igh_default_thresholds.soil_npk_high                    = DEFAULT_SOIL_NPK_HIGH;                           
   d4552:	8523      	strh	r3, [r4, #40]	; 0x28
    igh_default_thresholds.light_intensity_high             = DEFAULT_LIGHT_INTENSITY_HIGH;             
   d4554:	8563      	strh	r3, [r4, #42]	; 0x2a
    igh_default_thresholds.shield_battery_level_high        = DEFAULT_SHIELD_BATTERY_LEVEL_HIGH;   
   d4556:	85a3      	strh	r3, [r4, #44]	; 0x2c
    igh_default_thresholds.spear_battery_level_high         = DEFAULT_SPEAR_BATTERY_LEVEL_HIGH;     
   d4558:	85e3      	strh	r3, [r4, #46]	; 0x2e
    igh_default_thresholds.water_dispensed_period_high      = DEFAULT_WATER_DISPENSED_PERIOD_HIGH;
    igh_default_thresholds.checksum = igh_settings_calculate_checksum(&igh_default_thresholds, sizeof(igh_default_thresholds));
   d455a:	2134      	movs	r1, #52	; 0x34
    igh_default_thresholds.soil_temperature_high            = DEFAULT_SOIL_TEMPERATURE_HIGH;           
    igh_default_thresholds.soil_npk_high                    = DEFAULT_SOIL_NPK_HIGH;                           
    igh_default_thresholds.light_intensity_high             = DEFAULT_LIGHT_INTENSITY_HIGH;             
    igh_default_thresholds.shield_battery_level_high        = DEFAULT_SHIELD_BATTERY_LEVEL_HIGH;   
    igh_default_thresholds.spear_battery_level_high         = DEFAULT_SPEAR_BATTERY_LEVEL_HIGH;     
    igh_default_thresholds.water_dispensed_period_high      = DEFAULT_WATER_DISPENSED_PERIOD_HIGH;
   d455c:	f44f 7348 	mov.w	r3, #800	; 0x320
    igh_default_thresholds.checksum = igh_settings_calculate_checksum(&igh_default_thresholds, sizeof(igh_default_thresholds));
   d4560:	4620      	mov	r0, r4
    igh_default_thresholds.spear_battery_level_low          = DEFAULT_SPEAR_BATTERY_LEVEL_LOW;      
    igh_default_thresholds.water_dispensed_period_low       = DEFAULT_WATER_DISPENSED_PERIOD_LOW;
    // Low Threshold Trigger
    igh_default_thresholds.soil_moisture_high               = DEFAULT_SOIL_MOISTURE_HIGH;                 
    igh_default_thresholds.air_humidity_high                = DEFAULT_AIR_HUMIDITY_HIGH;                   
    igh_default_thresholds.soil_humidity_high               = DEFAULT_SOIL_HUMIDITY_HIGH;                 
   d4562:	8422      	strh	r2, [r4, #32]
    igh_default_thresholds.soil_temperature_high            = DEFAULT_SOIL_TEMPERATURE_HIGH;           
    igh_default_thresholds.soil_npk_high                    = DEFAULT_SOIL_NPK_HIGH;                           
    igh_default_thresholds.light_intensity_high             = DEFAULT_LIGHT_INTENSITY_HIGH;             
    igh_default_thresholds.shield_battery_level_high        = DEFAULT_SHIELD_BATTERY_LEVEL_HIGH;   
    igh_default_thresholds.spear_battery_level_high         = DEFAULT_SPEAR_BATTERY_LEVEL_HIGH;     
    igh_default_thresholds.water_dispensed_period_high      = DEFAULT_WATER_DISPENSED_PERIOD_HIGH;
   d4564:	6323      	str	r3, [r4, #48]	; 0x30
    igh_default_thresholds.checksum = igh_settings_calculate_checksum(&igh_default_thresholds, sizeof(igh_default_thresholds));
   d4566:	f7ff ff6f 	bl	d4448 <igh_settings_calculate_checksum>
}

void igh_settings_reset_system_to_default(void)
{
    igh_settings_get_defaults();
    igh_current_system_settings = igh_default_system_settings;
   d456a:	2248      	movs	r2, #72	; 0x48
    igh_default_thresholds.soil_npk_high                    = DEFAULT_SOIL_NPK_HIGH;                           
    igh_default_thresholds.light_intensity_high             = DEFAULT_LIGHT_INTENSITY_HIGH;             
    igh_default_thresholds.shield_battery_level_high        = DEFAULT_SHIELD_BATTERY_LEVEL_HIGH;   
    igh_default_thresholds.spear_battery_level_high         = DEFAULT_SPEAR_BATTERY_LEVEL_HIGH;     
    igh_default_thresholds.water_dispensed_period_high      = DEFAULT_WATER_DISPENSED_PERIOD_HIGH;
    igh_default_thresholds.checksum = igh_settings_calculate_checksum(&igh_default_thresholds, sizeof(igh_default_thresholds));
   d456c:	7020      	strb	r0, [r4, #0]
}

void igh_settings_reset_system_to_default(void)
{
    igh_settings_get_defaults();
    igh_current_system_settings = igh_default_system_settings;
   d456e:	490c      	ldr	r1, [pc, #48]	; (d45a0 <igh_settings_reset_system_to_default+0xd4>)
   d4570:	4638      	mov	r0, r7
   d4572:	f006 ff2c 	bl	db3ce <memcpy>
    igh_current_threshold_settings = igh_default_thresholds;
   d4576:	cc0f      	ldmia	r4!, {r0, r1, r2, r3}
   d4578:	4635      	mov	r5, r6
   d457a:	c50f      	stmia	r5!, {r0, r1, r2, r3}
   d457c:	cc0f      	ldmia	r4!, {r0, r1, r2, r3}
   d457e:	c50f      	stmia	r5!, {r0, r1, r2, r3}
   d4580:	cc0f      	ldmia	r4!, {r0, r1, r2, r3}
   d4582:	c50f      	stmia	r5!, {r0, r1, r2, r3}
   d4584:	6823      	ldr	r3, [r4, #0]
   d4586:	602b      	str	r3, [r5, #0]
    // update the checksum of the system settings
    igh_current_system_settings.checksum = igh_settings_calculate_checksum(&igh_current_system_settings, sizeof(igh_current_system_settings));
   d4588:	2148      	movs	r1, #72	; 0x48
   d458a:	4638      	mov	r0, r7
   d458c:	f7ff ff5c 	bl	d4448 <igh_settings_calculate_checksum>
    // update the checksum for the threshold settings
    igh_current_threshold_settings.checksum = igh_settings_calculate_checksum(&igh_current_threshold_settings, sizeof(igh_current_threshold_settings));
   d4590:	2134      	movs	r1, #52	; 0x34
{
    igh_settings_get_defaults();
    igh_current_system_settings = igh_default_system_settings;
    igh_current_threshold_settings = igh_default_thresholds;
    // update the checksum of the system settings
    igh_current_system_settings.checksum = igh_settings_calculate_checksum(&igh_current_system_settings, sizeof(igh_current_system_settings));
   d4592:	7038      	strb	r0, [r7, #0]
    // update the checksum for the threshold settings
    igh_current_threshold_settings.checksum = igh_settings_calculate_checksum(&igh_current_threshold_settings, sizeof(igh_current_threshold_settings));
   d4594:	4630      	mov	r0, r6
   d4596:	f7ff ff57 	bl	d4448 <igh_settings_calculate_checksum>
   d459a:	7030      	strb	r0, [r6, #0]
   d459c:	bdf8      	pop	{r3, r4, r5, r6, r7, pc}
   d459e:	bf00      	nop
   d45a0:	2003e6a8 	.word	0x2003e6a8
   d45a4:	2003d8e3 	.word	0x2003d8e3
   d45a8:	2003d8d1 	.word	0x2003d8d1
   d45ac:	2003e5cc 	.word	0x2003e5cc
   d45b0:	2003e604 	.word	0x2003e604
   d45b4:	2003e650 	.word	0x2003e650

000d45b8 <igh_message_process_incoming_msg>:
 * \brief Process incoming messages and action them repsectively
 * \param ack_msg incoimng message byte array
 * \return true or false
 */
uint8_t igh_message_process_incoming_msg(uint8_t * buffer)
{
   d45b8:	b538      	push	{r3, r4, r5, lr}
    igh_msg_type message_type = UNKNOWN_MSG;
    uint8_t length = buffer[LEN_INDEX]; // get the length
   d45ba:	7843      	ldrb	r3, [r0, #1]
 * \brief Process incoming messages and action them repsectively
 * \param ack_msg incoimng message byte array
 * \return true or false
 */
uint8_t igh_message_process_incoming_msg(uint8_t * buffer)
{
   d45bc:	4604      	mov	r4, r0
    igh_msg_type message_type = UNKNOWN_MSG;
    uint8_t length = buffer[LEN_INDEX]; // get the length

    if(length <= 0) // prevent any messages with zero length from being processed
   d45be:	b33b      	cbz	r3, d4610 <igh_message_process_incoming_msg+0x58>
    {
        return message_type;    
    }

    if( (buffer[0] == FRAME_START) && (buffer[length-1] == FRAME_END) )
   d45c0:	7802      	ldrb	r2, [r0, #0]
   d45c2:	2a3c      	cmp	r2, #60	; 0x3c
   d45c4:	d124      	bne.n	d4610 <igh_message_process_incoming_msg+0x58>
   d45c6:	4403      	add	r3, r0
   d45c8:	f813 3c01 	ldrb.w	r3, [r3, #-1]
   d45cc:	2b3e      	cmp	r3, #62	; 0x3e
   d45ce:	d11f      	bne.n	d4610 <igh_message_process_incoming_msg+0x58>
    {
        // check the serial number
        if( 0 != memcmp(boron_serial_number, &buffer[SN_INDEX], sizeof(boron_serial_number)))
   d45d0:	1d01      	adds	r1, r0, #4
   d45d2:	220c      	movs	r2, #12
   d45d4:	4810      	ldr	r0, [pc, #64]	; (d4618 <igh_message_process_incoming_msg+0x60>)
   d45d6:	f006 feeb 	bl	db3b0 <memcmp>
   d45da:	b9c8      	cbnz	r0, d4610 <igh_message_process_incoming_msg+0x58>
            // if the serial number does not match, do nothing as this message wasn't meant for this device,
            // This ideally should never happen
        }
        else
        {
            if( MSG_ACK == buffer[MSG_TYPE_INDEX] )
   d45dc:	78a5      	ldrb	r5, [r4, #2]
   d45de:	2d41      	cmp	r5, #65	; 0x41
   d45e0:	d110      	bne.n	d4604 <igh_message_process_incoming_msg+0x4c>
LOCAL uint8_t igh_message_process_ACK(uint8_t * ack_msg)
{
    // get the ACK tuple id
    igh_pkt_id _ack_id = (igh_pkt_id)ack_msg[PAYLOAD_INDEX];

    if( (MSG_ACK_TUPLE != _ack_id) || (SIZE_OF_MSG_ACK_TUPLE != ack_msg[PAYLOAD_INDEX + 1]) )
   d45e2:	7c63      	ldrb	r3, [r4, #17]
   d45e4:	4a0d      	ldr	r2, [pc, #52]	; (d461c <igh_message_process_incoming_msg+0x64>)
   d45e6:	b913      	cbnz	r3, d45ee <igh_message_process_incoming_msg+0x36>
   d45e8:	7ca3      	ldrb	r3, [r4, #18]
   d45ea:	2b01      	cmp	r3, #1
   d45ec:	d002      	beq.n	d45f4 <igh_message_process_incoming_msg+0x3c>
    {
        upload_igh_message_id--;
   d45ee:	7813      	ldrb	r3, [r2, #0]
   d45f0:	3b01      	subs	r3, #1
   d45f2:	e005      	b.n	d4600 <igh_message_process_incoming_msg+0x48>
        return 0;
    }

    uint8_t acked_msd_id = ack_msg[PAYLOAD_INDEX + 2];
    uint8_t sent_message_id = upload_igh_message_id - 1; // the message id will have been incremented after the last send
   d45f4:	7813      	ldrb	r3, [r2, #0]
    if (acked_msd_id != sent_message_id)
   d45f6:	7ce1      	ldrb	r1, [r4, #19]
        upload_igh_message_id--;
        return 0;
    }

    uint8_t acked_msd_id = ack_msg[PAYLOAD_INDEX + 2];
    uint8_t sent_message_id = upload_igh_message_id - 1; // the message id will have been incremented after the last send
   d45f8:	3b01      	subs	r3, #1
   d45fa:	b2db      	uxtb	r3, r3
    if (acked_msd_id != sent_message_id)
   d45fc:	4299      	cmp	r1, r3
   d45fe:	d008      	beq.n	d4612 <igh_message_process_incoming_msg+0x5a>
    {
        upload_igh_message_id--; // roll back to send the previous message
   d4600:	7013      	strb	r3, [r2, #0]
   d4602:	e005      	b.n	d4610 <igh_message_process_incoming_msg+0x58>
                if(igh_message_process_ACK(buffer))
                {
                    message_type = MSG_ACK;
                }
            }
            else if( SETTINGS_MSG == buffer[MSG_TYPE_INDEX] )
   d4604:	2d53      	cmp	r5, #83	; 0x53
   d4606:	d103      	bne.n	d4610 <igh_message_process_incoming_msg+0x58>
            {
                // process settings here
                if(igh_settings_process_settings(buffer))
   d4608:	4620      	mov	r0, r4
   d460a:	f7ff ff4d 	bl	d44a8 <igh_settings_process_settings>
   d460e:	b900      	cbnz	r0, d4612 <igh_message_process_incoming_msg+0x5a>
 * \param ack_msg incoimng message byte array
 * \return true or false
 */
uint8_t igh_message_process_incoming_msg(uint8_t * buffer)
{
    igh_msg_type message_type = UNKNOWN_MSG;
   d4610:	2500      	movs	r5, #0
        // if there is no frame start or no frame end, do nothing and return zer0
        // This may mean the length was wrong or the message was corrupted
    }

    return message_type; // should return the extracted tuple id for processing later
}
   d4612:	4628      	mov	r0, r5
   d4614:	bd38      	pop	{r3, r4, r5, pc}
   d4616:	bf00      	nop
   d4618:	2003e69c 	.word	0x2003e69c
   d461c:	2003d9c2 	.word	0x2003d9c2

000d4620 <setup>:

/* Run Application routine */
void setup() 
{
    // setup application
    igh_app_setup();
   d4620:	f000 b85c 	b.w	d46dc <_Z13igh_app_setupv>

000d4624 <loop>:
}

void loop() 
{
    // run main app
    igh_main_application();
   d4624:	f000 bc06 	b.w	d4e34 <_Z20igh_main_applicationv>

000d4628 <_GLOBAL__sub_I_setup>:
}
   d4628:	b508      	push	{r3, lr}

inline void pinSetFast(pin_t _pin) __attribute__((always_inline));
inline void pinResetFast(pin_t _pin) __attribute__((always_inline));
inline int32_t pinReadFast(pin_t _pin) __attribute__((always_inline));

static Hal_Pin_Info* PIN_MAP = HAL_Pin_Map();
   d462a:	f003 ff8b 	bl	d8544 <HAL_Pin_Map>
#include "particle_api/igh_log.h"
#endif

#include "include/igh_app.h"

SYSTEM_THREAD(ENABLED);
   d462e:	2100      	movs	r1, #0
   d4630:	2001      	movs	r0, #1

void loop() 
{
    // run main app
    igh_main_application();
}
   d4632:	e8bd 4008 	ldmia.w	sp!, {r3, lr}
#include "particle_api/igh_log.h"
#endif

#include "include/igh_app.h"

SYSTEM_THREAD(ENABLED);
   d4636:	f004 ba1d 	b.w	d8a74 <system_thread_set_state>
	...

000d463c <_Z19igh_app_log_servicev.part.1>:
        }
    }
    return ret;
}

void igh_app_log_service( void )
   d463c:	b510      	push	{r4, lr}
{
    if( (millis() - log_service_timer) > ONE_SECOND )
    {
        // throttle sending data
        // Serial.print(".");
        if( 1 == mqtt_connected )
   d463e:	4b21      	ldr	r3, [pc, #132]	; (d46c4 <_Z19igh_app_log_servicev.part.1+0x88>)
   d4640:	781b      	ldrb	r3, [r3, #0]
   d4642:	2b01      	cmp	r3, #1
        }
    }
    return ret;
}

void igh_app_log_service( void )
   d4644:	b0c8      	sub	sp, #288	; 0x120
{
    if( (millis() - log_service_timer) > ONE_SECOND )
    {
        // throttle sending data
        // Serial.print(".");
        if( 1 == mqtt_connected )
   d4646:	d136      	bne.n	d46b6 <_Z19igh_app_log_servicev.part.1+0x7a>
        {
            char next_file[FILE_NAME_SIZE];
            if( true == igh_sd_log_get_next_file_name(next_file) )
   d4648:	4668      	mov	r0, sp
   d464a:	f001 f9d7 	bl	d59fc <_Z29igh_sd_log_get_next_file_namePc>
   d464e:	2801      	cmp	r0, #1
   d4650:	d131      	bne.n	d46b6 <_Z19igh_app_log_servicev.part.1+0x7a>
            {
                uint8_t sd_data_point[MAX_FILE_SIZE];
                if( true == igh_sd_log_read_data_point(next_file, sd_data_point, MAX_FILE_SIZE) )
   d4652:	22ff      	movs	r2, #255	; 0xff
   d4654:	a908      	add	r1, sp, #32
   d4656:	4668      	mov	r0, sp
   d4658:	f001 f990 	bl	d597c <_Z26igh_sd_log_read_data_pointPcPhh>
   d465c:	2801      	cmp	r0, #1
   d465e:	d12a      	bne.n	d46b6 <_Z19igh_app_log_servicev.part.1+0x7a>
                {
                    Serial.print("Uploading: "); Serial.print((String)next_file);
   d4660:	f005 f922 	bl	d98a8 <_Z16_fetch_usbserialv>
   d4664:	4918      	ldr	r1, [pc, #96]	; (d46c8 <_Z19igh_app_log_servicev.part.1+0x8c>)
   d4666:	f004 fd83 	bl	d9170 <_ZN5Print5printEPKc>
   d466a:	f005 f91d 	bl	d98a8 <_Z16_fetch_usbserialv>
   d466e:	4669      	mov	r1, sp
   d4670:	4604      	mov	r4, r0
   d4672:	a804      	add	r0, sp, #16
   d4674:	f004 fccf 	bl	d9016 <_ZN6StringC1EPK19__FlashStringHelper>
   d4678:	9904      	ldr	r1, [sp, #16]
   d467a:	4620      	mov	r0, r4
   d467c:	f004 fd78 	bl	d9170 <_ZN5Print5printEPKc>
   d4680:	a804      	add	r0, sp, #16
   d4682:	f004 fc81 	bl	d8f88 <_ZN6StringD1Ev>
                    //     if( sd_data_point[i] <= 0x0F ) Serial.print("0");
                    //     Serial.print( sd_data_point[i], HEX );
                    // }
                    // Serial.println("}");

                    if( true == igh_mqtt_publish_data(sd_data_point, sd_data_point[1]) )
   d4686:	f89d 1021 	ldrb.w	r1, [sp, #33]	; 0x21
   d468a:	a808      	add	r0, sp, #32
   d468c:	f000 fcf6 	bl	d507c <_Z21igh_mqtt_publish_dataPhj>
   d4690:	b160      	cbz	r0, d46ac <_Z19igh_app_log_servicev.part.1+0x70>
                    {
                        if( true == igh_sd_log_remove_data_point(next_file) ) 
   d4692:	4668      	mov	r0, sp
   d4694:	f001 f96c 	bl	d5970 <_Z28igh_sd_log_remove_data_pointPc>
   d4698:	2801      	cmp	r0, #1
   d469a:	d103      	bne.n	d46a4 <_Z19igh_app_log_servicev.part.1+0x68>
                        {
                            Serial.println(" OK");
   d469c:	f005 f904 	bl	d98a8 <_Z16_fetch_usbserialv>
   d46a0:	490a      	ldr	r1, [pc, #40]	; (d46cc <_Z19igh_app_log_servicev.part.1+0x90>)
   d46a2:	e006      	b.n	d46b2 <_Z19igh_app_log_servicev.part.1+0x76>
                        }
                        else
                        {
                            Serial.println(" DEL ERROR");
   d46a4:	f005 f900 	bl	d98a8 <_Z16_fetch_usbserialv>
   d46a8:	4909      	ldr	r1, [pc, #36]	; (d46d0 <_Z19igh_app_log_servicev.part.1+0x94>)
   d46aa:	e002      	b.n	d46b2 <_Z19igh_app_log_servicev.part.1+0x76>
                        }
                    }
                    else
                    {
                        Serial.println(" MQTT ERROR");
   d46ac:	f005 f8fc 	bl	d98a8 <_Z16_fetch_usbserialv>
   d46b0:	4908      	ldr	r1, [pc, #32]	; (d46d4 <_Z19igh_app_log_servicev.part.1+0x98>)
   d46b2:	f004 fd70 	bl	d9196 <_ZN5Print7printlnEPKc>

#ifdef __cplusplus
extern "C" {
#endif

inline system_tick_t millis(void) { return HAL_Timer_Get_Milli_Seconds(); }
   d46b6:	f004 f80d 	bl	d86d4 <HAL_Timer_Get_Milli_Seconds>
            {
                // Serial.println("No new file to send");
            }
        }

        log_service_timer = millis();
   d46ba:	4b07      	ldr	r3, [pc, #28]	; (d46d8 <_Z19igh_app_log_servicev.part.1+0x9c>)
   d46bc:	6018      	str	r0, [r3, #0]
    }
}
   d46be:	b048      	add	sp, #288	; 0x120
   d46c0:	bd10      	pop	{r4, pc}
   d46c2:	bf00      	nop
   d46c4:	2003da55 	.word	0x2003da55
   d46c8:	000dbc08 	.word	0x000dbc08
   d46cc:	000dbc14 	.word	0x000dbc14
   d46d0:	000dbc18 	.word	0x000dbc18
   d46d4:	000dbc23 	.word	0x000dbc23
   d46d8:	2003d9c4 	.word	0x2003d9c4

000d46dc <_Z13igh_app_setupv>:
void igh_app_log_service( void );
void igh_app_get_temperature_and_humidity( uint8_t * incoming_data );
uint16_t igh_app_calculate_humidity( uint16_t temperature, uint16_t humidity );

void igh_app_setup( void )
{
   d46dc:	b508      	push	{r3, lr}
    Serial.begin(19200);
   d46de:	f005 f8e3 	bl	d98a8 <_Z16_fetch_usbserialv>
   d46e2:	f44f 4196 	mov.w	r1, #19200	; 0x4b00
   d46e6:	f005 f8d3 	bl	d9890 <_ZN9USBSerial5beginEl>
    
    igh_boron_setup();
   d46ea:	f001 fa55 	bl	d5b98 <_Z15igh_boron_setupv>

    // setup hardwar
    igh_hardware_setup();
   d46ee:	f000 fec3 	bl	d5478 <_Z18igh_hardware_setupv>
    
    // get settings from eeprom
    igh_eeprom_init();
   d46f2:	f000 fd6b 	bl	d51cc <_Z15igh_eeprom_initv>
    
    // starte the radio
    igh_rfm69_setup();
   d46f6:	f001 fadf 	bl	d5cb8 <_Z15igh_rfm69_setupv>
    
    // setup MQTT
    igh_mqtt_setup();
   d46fa:	f000 fbf5 	bl	d4ee8 <_Z14igh_mqtt_setupv>

    // setup the SD card
    igh_sd_log_setup();
}
   d46fe:	e8bd 4008 	ldmia.w	sp!, {r3, lr}
    
    // setup MQTT
    igh_mqtt_setup();

    // setup the SD card
    igh_sd_log_setup();
   d4702:	f001 b86b 	b.w	d57dc <_Z16igh_sd_log_setupv>
	...

000d4708 <_Z26igh_app_add_message_headerPhh12igh_msg_type11igh_msg_dir>:
uint8_t igh_app_add_message_header( uint8_t *_buffer, uint8_t start, igh_msg_type msg_type, igh_msg_dir dir )
{
    uint8_t i = start;

    // Add Message type
    _buffer[i++] = ERROR_MSG;
   d4708:	2345      	movs	r3, #69	; 0x45
        device_restart = false;
    }
}

uint8_t igh_app_add_message_header( uint8_t *_buffer, uint8_t start, igh_msg_type msg_type, igh_msg_dir dir )
{
   d470a:	b530      	push	{r4, r5, lr}
    uint8_t i = start;

    // Add Message type
    _buffer[i++] = ERROR_MSG;
   d470c:	5443      	strb	r3, [r0, r1]

    // Add direction
    _buffer[i++] = IGH_UPLOAD;
   d470e:	1c4b      	adds	r3, r1, #1
   d4710:	b2db      	uxtb	r3, r3
   d4712:	2255      	movs	r2, #85	; 0x55
   d4714:	54c2      	strb	r2, [r0, r3]

    // Add shield serial number
    memcpy( &_buffer[i], 
            boron_serial_number, 
            sizeof(boron_serial_number) );
   d4716:	4c0b      	ldr	r4, [pc, #44]	; (d4744 <_Z26igh_app_add_message_headerPhh12igh_msg_type11igh_msg_dir+0x3c>)
   d4718:	1c8a      	adds	r2, r1, #2
   d471a:	b2d2      	uxtb	r2, r2
   d471c:	6823      	ldr	r3, [r4, #0]
   d471e:	5083      	str	r3, [r0, r2]
   d4720:	1885      	adds	r5, r0, r2
   d4722:	6863      	ldr	r3, [r4, #4]
   d4724:	606b      	str	r3, [r5, #4]
   d4726:	68a3      	ldr	r3, [r4, #8]
   d4728:	60ab      	str	r3, [r5, #8]

    i += sizeof(boron_serial_number);

    // Add incremental message ID
    static uint8_t message_id = 0;
    _buffer[i++] = message_id++;
   d472a:	4b07      	ldr	r3, [pc, #28]	; (d4748 <_Z26igh_app_add_message_headerPhh12igh_msg_type11igh_msg_dir+0x40>)
   d472c:	781a      	ldrb	r2, [r3, #0]
   d472e:	1c54      	adds	r4, r2, #1
   d4730:	701c      	strb	r4, [r3, #0]
   d4732:	f101 030e 	add.w	r3, r1, #14
   d4736:	b2db      	uxtb	r3, r3
   d4738:	54c2      	strb	r2, [r0, r3]

    return i;
   d473a:	f101 000f 	add.w	r0, r1, #15
}
   d473e:	b2c0      	uxtb	r0, r0
   d4740:	bd30      	pop	{r4, r5, pc}
   d4742:	bf00      	nop
   d4744:	2003e69c 	.word	0x2003e69c
   d4748:	2003d9c3 	.word	0x2003d9c3

000d474c <_Z19igh_app_add_payloadPhhS_h>:

uint8_t igh_app_add_payload( uint8_t *_buffer, uint8_t start, uint8_t * _payload, uint8_t _payload_len )
{
   d474c:	e92d 43f8 	stmdb	sp!, {r3, r4, r5, r6, r7, r8, r9, lr}
   d4750:	460c      	mov	r4, r1
   d4752:	4605      	mov	r5, r0
   d4754:	4699      	mov	r9, r3
   d4756:	4617      	mov	r7, r2
    uint32_t timestamp_to_store = igh_boron_unix_time();
   d4758:	f001 fa0a 	bl	d5b70 <_Z19igh_boron_unix_timev>
   d475c:	4680      	mov	r8, r0
    float battery_soc_float = igh_boron_SoC();
   d475e:	f001 fa09 	bl	d5b74 <_Z13igh_boron_SoCv>
    memcpy(&battery_soc, &battery_soc_float, sizeof battery_soc);

    uint8_t i = start;

    // Add DATA PKT PID
    _buffer[i++] = DATA_PKT;
   d4762:	23fe      	movs	r3, #254	; 0xfe
   d4764:	552b      	strb	r3, [r5, r4]
    i++; // leave room for payload length

    // Add Shield ID
    _buffer[i++] = SHIELD_ID;
   d4766:	1ca3      	adds	r3, r4, #2
   d4768:	b2db      	uxtb	r3, r3
   d476a:	2217      	movs	r2, #23
   d476c:	54ea      	strb	r2, [r5, r3]
    _buffer[i++] = sizeof(boron_serial_number);
   d476e:	1ce3      	adds	r3, r4, #3
   d4770:	b2db      	uxtb	r3, r3
   d4772:	220c      	movs	r2, #12
   d4774:	54ea      	strb	r2, [r5, r3]
    memcpy(&_buffer[i], igh_current_system_settings.serial_number, sizeof(igh_current_system_settings.serial_number) );
   d4776:	4b47      	ldr	r3, [pc, #284]	; (d4894 <_Z19igh_app_add_payloadPhhS_h+0x148>)
   d4778:	1d22      	adds	r2, r4, #4
   d477a:	cb03      	ldmia	r3!, {r0, r1}
   d477c:	b2d2      	uxtb	r2, r2
   d477e:	eb05 0e02 	add.w	lr, r5, r2
   d4782:	50a8      	str	r0, [r5, r2]
   d4784:	f8ce 1004 	str.w	r1, [lr, #4]
   d4788:	6818      	ldr	r0, [r3, #0]
   d478a:	f8ce 0008 	str.w	r0, [lr, #8]
    i += sizeof(boron_serial_number);

    // Add Timestamp
    _buffer[i++] = STORE_TIMESTAMP;
   d478e:	f104 0310 	add.w	r3, r4, #16
   d4792:	b2db      	uxtb	r3, r3
   d4794:	2202      	movs	r2, #2
   d4796:	54ea      	strb	r2, [r5, r3]
    _buffer[i++] = SIZE_OF_STORE_TIMESTAMP;
   d4798:	f104 0311 	add.w	r3, r4, #17
   d479c:	b2db      	uxtb	r3, r3
   d479e:	2204      	movs	r2, #4
   d47a0:	54ea      	strb	r2, [r5, r3]
    _buffer[i++] = (uint8_t)timestamp_to_store;
   d47a2:	f104 0312 	add.w	r3, r4, #18
   d47a6:	b2db      	uxtb	r3, r3
    _buffer[i++] = (uint8_t)( timestamp_to_store >> 8);
   d47a8:	ea4f 2118 	mov.w	r1, r8, lsr #8
    i += sizeof(boron_serial_number);

    // Add Timestamp
    _buffer[i++] = STORE_TIMESTAMP;
    _buffer[i++] = SIZE_OF_STORE_TIMESTAMP;
    _buffer[i++] = (uint8_t)timestamp_to_store;
   d47ac:	f805 8003 	strb.w	r8, [r5, r3]
    _buffer[i++] = (uint8_t)( timestamp_to_store >> 8);
   d47b0:	f104 0313 	add.w	r3, r4, #19
   d47b4:	b2db      	uxtb	r3, r3
uint8_t igh_app_add_payload( uint8_t *_buffer, uint8_t start, uint8_t * _payload, uint8_t _payload_len )
{
    uint32_t timestamp_to_store = igh_boron_unix_time();
    float battery_soc_float = igh_boron_SoC();
    uint32_t battery_soc;
    memcpy(&battery_soc, &battery_soc_float, sizeof battery_soc);
   d47b6:	ee10 6a10 	vmov	r6, s0

    // Add Timestamp
    _buffer[i++] = STORE_TIMESTAMP;
    _buffer[i++] = SIZE_OF_STORE_TIMESTAMP;
    _buffer[i++] = (uint8_t)timestamp_to_store;
    _buffer[i++] = (uint8_t)( timestamp_to_store >> 8);
   d47ba:	54e9      	strb	r1, [r5, r3]
    _buffer[i++] = (uint8_t)( timestamp_to_store >> 16);
   d47bc:	f104 0314 	add.w	r3, r4, #20
   d47c0:	b2db      	uxtb	r3, r3
   d47c2:	ea4f 4118 	mov.w	r1, r8, lsr #16
   d47c6:	54e9      	strb	r1, [r5, r3]
    _buffer[i++] = (uint8_t)( timestamp_to_store >> 24);
   d47c8:	f104 0315 	add.w	r3, r4, #21
   d47cc:	b2db      	uxtb	r3, r3
   d47ce:	ea4f 6818 	mov.w	r8, r8, lsr #24
   d47d2:	f805 8003 	strb.w	r8, [r5, r3]

    // Add Shield battery level
    _buffer[i++] = SHIELD_BATTERY_LEVEL;
   d47d6:	f104 0316 	add.w	r3, r4, #22
   d47da:	b2db      	uxtb	r3, r3
   d47dc:	210d      	movs	r1, #13
   d47de:	54e9      	strb	r1, [r5, r3]
    _buffer[i++] = SIZE_OF_SHIELD_BATTERY_LEVEL;
   d47e0:	f104 0317 	add.w	r3, r4, #23
   d47e4:	b2db      	uxtb	r3, r3
    _buffer[i++] = (uint8_t)battery_soc;
    _buffer[i++] = (uint8_t)( battery_soc >> 8);
   d47e6:	0a31      	lsrs	r1, r6, #8
    _buffer[i++] = (uint8_t)( timestamp_to_store >> 16);
    _buffer[i++] = (uint8_t)( timestamp_to_store >> 24);

    // Add Shield battery level
    _buffer[i++] = SHIELD_BATTERY_LEVEL;
    _buffer[i++] = SIZE_OF_SHIELD_BATTERY_LEVEL;
   d47e8:	54ea      	strb	r2, [r5, r3]
    _buffer[i++] = (uint8_t)battery_soc;
   d47ea:	f104 0318 	add.w	r3, r4, #24
   d47ee:	b2db      	uxtb	r3, r3
    _buffer[i++] = current_valve_position;

    // Add water dispensed 
    uint32_t curr_water_L = 0;
    memcpy( &curr_water_L, &total_water_dispensed_Liters, sizeof curr_water_L );
    _buffer[i++] = WATER_DISPENSED;
   d47f0:	2007      	movs	r0, #7
    _buffer[i++] = (uint8_t)( timestamp_to_store >> 24);

    // Add Shield battery level
    _buffer[i++] = SHIELD_BATTERY_LEVEL;
    _buffer[i++] = SIZE_OF_SHIELD_BATTERY_LEVEL;
    _buffer[i++] = (uint8_t)battery_soc;
   d47f2:	54ee      	strb	r6, [r5, r3]
    _buffer[i++] = (uint8_t)( battery_soc >> 8);
   d47f4:	f104 0319 	add.w	r3, r4, #25
   d47f8:	b2db      	uxtb	r3, r3
   d47fa:	54e9      	strb	r1, [r5, r3]
    _buffer[i++] = (uint8_t)( battery_soc >> 16);
   d47fc:	f104 031a 	add.w	r3, r4, #26
   d4800:	b2db      	uxtb	r3, r3
   d4802:	0c31      	lsrs	r1, r6, #16
   d4804:	54e9      	strb	r1, [r5, r3]
    _buffer[i++] = (uint8_t)( battery_soc >> 24);
   d4806:	f104 031b 	add.w	r3, r4, #27
   d480a:	b2db      	uxtb	r3, r3
   d480c:	0e36      	lsrs	r6, r6, #24
   d480e:	54ee      	strb	r6, [r5, r3]

    // Add Valve position
    _buffer[i++] = VALVE_POSITION;
   d4810:	f104 031c 	add.w	r3, r4, #28
   d4814:	b2db      	uxtb	r3, r3
   d4816:	210f      	movs	r1, #15
   d4818:	54e9      	strb	r1, [r5, r3]
    _buffer[i++] = SIZE_OF_VALVE_POSITION;
   d481a:	f104 031d 	add.w	r3, r4, #29
   d481e:	b2db      	uxtb	r3, r3
   d4820:	2101      	movs	r1, #1
   d4822:	54e9      	strb	r1, [r5, r3]
    _buffer[i++] = current_valve_position;
   d4824:	4b1c      	ldr	r3, [pc, #112]	; (d4898 <_Z19igh_app_add_payloadPhhS_h+0x14c>)
   d4826:	7819      	ldrb	r1, [r3, #0]
   d4828:	f104 031e 	add.w	r3, r4, #30
   d482c:	b2db      	uxtb	r3, r3
   d482e:	54e9      	strb	r1, [r5, r3]

    // Add water dispensed 
    uint32_t curr_water_L = 0;
    memcpy( &curr_water_L, &total_water_dispensed_Liters, sizeof curr_water_L );
   d4830:	4b1a      	ldr	r3, [pc, #104]	; (d489c <_Z19igh_app_add_payloadPhhS_h+0x150>)
   d4832:	6819      	ldr	r1, [r3, #0]
    _buffer[i++] = WATER_DISPENSED;
   d4834:	f104 031f 	add.w	r3, r4, #31
   d4838:	b2db      	uxtb	r3, r3
   d483a:	54e8      	strb	r0, [r5, r3]
    _buffer[i++] = SIZE_OF_WATER_DISPENSED;
   d483c:	f104 0320 	add.w	r3, r4, #32
   d4840:	b2db      	uxtb	r3, r3
    _buffer[i++] = (uint8_t)curr_water_L;
    _buffer[i++] = (uint8_t)( curr_water_L >> 8);
    _buffer[i++] = (uint8_t)( curr_water_L >> 16);
    _buffer[i++] = (uint8_t)( curr_water_L >> 24);
   d4842:	f104 0025 	add.w	r0, r4, #37	; 0x25

    // Add water dispensed 
    uint32_t curr_water_L = 0;
    memcpy( &curr_water_L, &total_water_dispensed_Liters, sizeof curr_water_L );
    _buffer[i++] = WATER_DISPENSED;
    _buffer[i++] = SIZE_OF_WATER_DISPENSED;
   d4846:	54ea      	strb	r2, [r5, r3]
    _buffer[i++] = (uint8_t)curr_water_L;
   d4848:	f104 0321 	add.w	r3, r4, #33	; 0x21
   d484c:	b2db      	uxtb	r3, r3
    _buffer[i++] = (uint8_t)( curr_water_L >> 8);
   d484e:	0a0a      	lsrs	r2, r1, #8
    // Add water dispensed 
    uint32_t curr_water_L = 0;
    memcpy( &curr_water_L, &total_water_dispensed_Liters, sizeof curr_water_L );
    _buffer[i++] = WATER_DISPENSED;
    _buffer[i++] = SIZE_OF_WATER_DISPENSED;
    _buffer[i++] = (uint8_t)curr_water_L;
   d4850:	54e9      	strb	r1, [r5, r3]
    _buffer[i++] = (uint8_t)( curr_water_L >> 8);
   d4852:	f104 0322 	add.w	r3, r4, #34	; 0x22
   d4856:	b2db      	uxtb	r3, r3
    _buffer[i++] = (uint8_t)( curr_water_L >> 16);
    _buffer[i++] = (uint8_t)( curr_water_L >> 24);
   d4858:	b2c0      	uxtb	r0, r0
    uint32_t curr_water_L = 0;
    memcpy( &curr_water_L, &total_water_dispensed_Liters, sizeof curr_water_L );
    _buffer[i++] = WATER_DISPENSED;
    _buffer[i++] = SIZE_OF_WATER_DISPENSED;
    _buffer[i++] = (uint8_t)curr_water_L;
    _buffer[i++] = (uint8_t)( curr_water_L >> 8);
   d485a:	54ea      	strb	r2, [r5, r3]
    _buffer[i++] = (uint8_t)( curr_water_L >> 16);
   d485c:	f104 0323 	add.w	r3, r4, #35	; 0x23
   d4860:	b2db      	uxtb	r3, r3
   d4862:	0c0a      	lsrs	r2, r1, #16
   d4864:	54ea      	strb	r2, [r5, r3]
    _buffer[i++] = (uint8_t)( curr_water_L >> 24);
   d4866:	f104 0324 	add.w	r3, r4, #36	; 0x24
   d486a:	b2db      	uxtb	r3, r3

    // only add payload if the package fits, prevvent memory leak
    if( (_payload_len + i + 1) < MESSAGE_SIZE )
   d486c:	eb09 0600 	add.w	r6, r9, r0
    _buffer[i++] = WATER_DISPENSED;
    _buffer[i++] = SIZE_OF_WATER_DISPENSED;
    _buffer[i++] = (uint8_t)curr_water_L;
    _buffer[i++] = (uint8_t)( curr_water_L >> 8);
    _buffer[i++] = (uint8_t)( curr_water_L >> 16);
    _buffer[i++] = (uint8_t)( curr_water_L >> 24);
   d4870:	0e09      	lsrs	r1, r1, #24

    // only add payload if the package fits, prevvent memory leak
    if( (_payload_len + i + 1) < MESSAGE_SIZE )
   d4872:	2efd      	cmp	r6, #253	; 0xfd
    _buffer[i++] = WATER_DISPENSED;
    _buffer[i++] = SIZE_OF_WATER_DISPENSED;
    _buffer[i++] = (uint8_t)curr_water_L;
    _buffer[i++] = (uint8_t)( curr_water_L >> 8);
    _buffer[i++] = (uint8_t)( curr_water_L >> 16);
    _buffer[i++] = (uint8_t)( curr_water_L >> 24);
   d4874:	54e9      	strb	r1, [r5, r3]

    // only add payload if the package fits, prevvent memory leak
    if( (_payload_len + i + 1) < MESSAGE_SIZE )
   d4876:	dc05      	bgt.n	d4884 <_Z19igh_app_add_payloadPhhS_h+0x138>
    {
        memcpy(&_buffer[i], _payload, _payload_len);
   d4878:	464a      	mov	r2, r9
   d487a:	4639      	mov	r1, r7
   d487c:	4428      	add	r0, r5
   d487e:	f006 fda6 	bl	db3ce <memcpy>
        i += _payload_len;
   d4882:	b2f0      	uxtb	r0, r6
    }

    // add the payload length
    _buffer[ start + 1 ] = i - start - 2;
   d4884:	4425      	add	r5, r4
   d4886:	f1c4 04fe 	rsb	r4, r4, #254	; 0xfe
   d488a:	4404      	add	r4, r0
   d488c:	706c      	strb	r4, [r5, #1]

    return i;
}
   d488e:	e8bd 83f8 	ldmia.w	sp!, {r3, r4, r5, r6, r7, r8, r9, pc}
   d4892:	bf00      	nop
   d4894:	2003e61c 	.word	0x2003e61c
   d4898:	2003e64c 	.word	0x2003e64c
   d489c:	2003dab8 	.word	0x2003dab8

000d48a0 <_Z27igh_app_send_device_restartv>:
        igh_boron_toggle_boron_led(OFF);
    }
}

void igh_app_send_device_restart( void )
{
   d48a0:	b5f7      	push	{r0, r1, r2, r4, r5, r6, r7, lr}
    uint32_t current_time = igh_boron_unix_time();

    // only ssave a restart message if the time is synced. Otherwise wait till that happens
    if( (true == device_restart)
   d48a2:	4e19      	ldr	r6, [pc, #100]	; (d4908 <_Z27igh_app_send_device_restartv+0x68>)
    }
}

void igh_app_send_device_restart( void )
{
    uint32_t current_time = igh_boron_unix_time();
   d48a4:	f001 f964 	bl	d5b70 <_Z19igh_boron_unix_timev>

    // only ssave a restart message if the time is synced. Otherwise wait till that happens
    if( (true == device_restart)
   d48a8:	7835      	ldrb	r5, [r6, #0]
   d48aa:	2d01      	cmp	r5, #1
    }
}

void igh_app_send_device_restart( void )
{
    uint32_t current_time = igh_boron_unix_time();
   d48ac:	4607      	mov	r7, r0

    // only ssave a restart message if the time is synced. Otherwise wait till that happens
    if( (true == device_restart)
   d48ae:	d128      	bne.n	d4902 <_Z27igh_app_send_device_restartv+0x62>
        && (JAN_01_2020 < current_time) )
   d48b0:	4b16      	ldr	r3, [pc, #88]	; (d490c <_Z27igh_app_send_device_restartv+0x6c>)
   d48b2:	4298      	cmp	r0, r3
   d48b4:	d925      	bls.n	d4902 <_Z27igh_app_send_device_restartv+0x62>
    {
        uint8_t i = 0; // keep track of pkt data
        uint8_t restart_msg[3];

        // first clear the buffer
        memset( igh_msg_buffer, 0, sizeof(igh_msg_buffer) );
   d48b6:	4c16      	ldr	r4, [pc, #88]	; (d4910 <_Z27igh_app_send_device_restartv+0x70>)
   d48b8:	22ff      	movs	r2, #255	; 0xff
   d48ba:	2100      	movs	r1, #0
   d48bc:	4620      	mov	r0, r4
   d48be:	f006 fd91 	bl	db3e4 <memset>

        // Add Retart Message
        restart_msg[0] = RESTART;
   d48c2:	23fd      	movs	r3, #253	; 0xfd
   d48c4:	f88d 3004 	strb.w	r3, [sp, #4]
        restart_msg[1] = SIZE_OF_RESTART;
        restart_msg[2] = true;

        // Add frame start
        igh_msg_buffer[i++] = FRAME_START;
   d48c8:	233c      	movs	r3, #60	; 0x3c
   d48ca:	7023      	strb	r3, [r4, #0]
        i++; // leave room for pkg length

        i = igh_app_add_message_header( igh_msg_buffer, i, ERROR_MSG, IGH_UPLOAD );
   d48cc:	2245      	movs	r2, #69	; 0x45
   d48ce:	2355      	movs	r3, #85	; 0x55
   d48d0:	2102      	movs	r1, #2
   d48d2:	4620      	mov	r0, r4
        // first clear the buffer
        memset( igh_msg_buffer, 0, sizeof(igh_msg_buffer) );

        // Add Retart Message
        restart_msg[0] = RESTART;
        restart_msg[1] = SIZE_OF_RESTART;
   d48d4:	f88d 5005 	strb.w	r5, [sp, #5]
        restart_msg[2] = true;
   d48d8:	f88d 5006 	strb.w	r5, [sp, #6]

        // Add frame start
        igh_msg_buffer[i++] = FRAME_START;
        i++; // leave room for pkg length

        i = igh_app_add_message_header( igh_msg_buffer, i, ERROR_MSG, IGH_UPLOAD );
   d48dc:	f7ff ff14 	bl	d4708 <_Z26igh_app_add_message_headerPhh12igh_msg_type11igh_msg_dir>
        i = igh_app_add_payload( igh_msg_buffer, i, restart_msg, sizeof(restart_msg) );
   d48e0:	2303      	movs	r3, #3
   d48e2:	4601      	mov	r1, r0
   d48e4:	aa01      	add	r2, sp, #4
   d48e6:	4620      	mov	r0, r4
   d48e8:	f7ff ff30 	bl	d474c <_Z19igh_app_add_payloadPhhS_h>

        // Add Frame End 
        igh_msg_buffer[i++] = FRAME_END;
   d48ec:	233e      	movs	r3, #62	; 0x3e
   d48ee:	1c42      	adds	r2, r0, #1
   d48f0:	5423      	strb	r3, [r4, r0]
   d48f2:	b2d2      	uxtb	r2, r2
        //     Serial.print(igh_msg_buffer[k], HEX);
        // }
        // Serial.print("}\n");

        // save restart message
        igh_sd_log_save_data_point( (unsigned long)current_time, igh_msg_buffer, i );
   d48f4:	4621      	mov	r1, r4
   d48f6:	4638      	mov	r0, r7
        i = igh_app_add_payload( igh_msg_buffer, i, restart_msg, sizeof(restart_msg) );

        // Add Frame End 
        igh_msg_buffer[i++] = FRAME_END;

        igh_msg_buffer[1] = i; // add length
   d48f8:	7062      	strb	r2, [r4, #1]
        //     Serial.print(igh_msg_buffer[k], HEX);
        // }
        // Serial.print("}\n");

        // save restart message
        igh_sd_log_save_data_point( (unsigned long)current_time, igh_msg_buffer, i );
   d48fa:	f000 ffcf 	bl	d589c <_Z26igh_sd_log_save_data_pointmPhh>

        device_restart = false;
   d48fe:	2300      	movs	r3, #0
   d4900:	7033      	strb	r3, [r6, #0]
    }
}
   d4902:	b003      	add	sp, #12
   d4904:	bdf0      	pop	{r4, r5, r6, r7, pc}
   d4906:	bf00      	nop
   d4908:	2003d8ef 	.word	0x2003d8ef
   d490c:	5e0be100 	.word	0x5e0be100
   d4910:	2003e6f1 	.word	0x2003e6f1

000d4914 <_Z27igh_app_get_serial_hex_dataPhh>:
        new_settings_available = 0;
    }
}

uint8_t igh_app_get_serial_hex_data( uint8_t * buffer, uint8_t len )
{
   d4914:	b570      	push	{r4, r5, r6, lr}
   d4916:	460d      	mov	r5, r1
   d4918:	4606      	mov	r6, r0
    uint8_t ret = 0;

    uint8_t bytes_available = Serial.available();
   d491a:	f004 ffc5 	bl	d98a8 <_Z16_fetch_usbserialv>
   d491e:	6803      	ldr	r3, [r0, #0]
   d4920:	691b      	ldr	r3, [r3, #16]
   d4922:	4798      	blx	r3
   d4924:	b2c4      	uxtb	r4, r0
    if( bytes_available > 0 )
   d4926:	b90c      	cbnz	r4, d492c <_Z27igh_app_get_serial_hex_dataPhh+0x18>
    }
}

uint8_t igh_app_get_serial_hex_data( uint8_t * buffer, uint8_t len )
{
    uint8_t ret = 0;
   d4928:	2400      	movs	r4, #0
   d492a:	e019      	b.n	d4960 <_Z27igh_app_get_serial_hex_dataPhh+0x4c>

    uint8_t bytes_available = Serial.available();
    if( bytes_available > 0 )
    {
        if( bytes_available <= len )
   d492c:	42ac      	cmp	r4, r5
   d492e:	d80c      	bhi.n	d494a <_Z27igh_app_get_serial_hex_dataPhh+0x36>
   d4930:	4635      	mov	r5, r6
        {
            for( uint8_t i = 0; i < bytes_available; i++ )
            {
                // read all available bytes
                buffer[i] = Serial.read();
   d4932:	f004 ffb9 	bl	d98a8 <_Z16_fetch_usbserialv>
   d4936:	6803      	ldr	r3, [r0, #0]
   d4938:	695b      	ldr	r3, [r3, #20]
   d493a:	4798      	blx	r3
   d493c:	f805 0b01 	strb.w	r0, [r5], #1
    uint8_t bytes_available = Serial.available();
    if( bytes_available > 0 )
    {
        if( bytes_available <= len )
        {
            for( uint8_t i = 0; i < bytes_available; i++ )
   d4940:	1bab      	subs	r3, r5, r6
   d4942:	b2db      	uxtb	r3, r3
   d4944:	429c      	cmp	r4, r3
   d4946:	d8f4      	bhi.n	d4932 <_Z27igh_app_get_serial_hex_dataPhh+0x1e>
   d4948:	e00a      	b.n	d4960 <_Z27igh_app_get_serial_hex_dataPhh+0x4c>
   d494a:	2500      	movs	r5, #0
        else
        {
            for( uint8_t i = 0; i < bytes_available; i++ )
            {
                // dump the data
                Serial.read();
   d494c:	f004 ffac 	bl	d98a8 <_Z16_fetch_usbserialv>
   d4950:	6803      	ldr	r3, [r0, #0]
   d4952:	3501      	adds	r5, #1
   d4954:	695b      	ldr	r3, [r3, #20]
   d4956:	4798      	blx	r3
            }
            ret = bytes_available;
        }
        else
        {
            for( uint8_t i = 0; i < bytes_available; i++ )
   d4958:	b2eb      	uxtb	r3, r5
   d495a:	429c      	cmp	r4, r3
   d495c:	d8f6      	bhi.n	d494c <_Z27igh_app_get_serial_hex_dataPhh+0x38>
   d495e:	e7e3      	b.n	d4928 <_Z27igh_app_get_serial_hex_dataPhh+0x14>
                Serial.read();
            }
        }
    }
    return ret;
}
   d4960:	4620      	mov	r0, r4
   d4962:	bd70      	pop	{r4, r5, r6, pc}

000d4964 <_Z24igh_app_get_new_settingsv>:

    return i;
}

void igh_app_get_new_settings( void )
{
   d4964:	b5f8      	push	{r3, r4, r5, r6, r7, lr}
    memset( igh_msg_buffer, 0, sizeof(igh_msg_buffer) );
   d4966:	4c26      	ldr	r4, [pc, #152]	; (d4a00 <_Z24igh_app_get_new_settingsv+0x9c>)
   d4968:	22ff      	movs	r2, #255	; 0xff
   d496a:	2100      	movs	r1, #0
   d496c:	4620      	mov	r0, r4
   d496e:	f006 fd39 	bl	db3e4 <memset>
    uint8_t rx_bytes = igh_app_get_serial_hex_data(igh_msg_buffer, sizeof(igh_msg_buffer));
   d4972:	21ff      	movs	r1, #255	; 0xff
   d4974:	4620      	mov	r0, r4
   d4976:	f7ff ffcd 	bl	d4914 <_Z27igh_app_get_serial_hex_dataPhh>
    if ( 0 < rx_bytes ) // via Serial
   d497a:	4606      	mov	r6, r0
   d497c:	2800      	cmp	r0, #0
   d497e:	d03e      	beq.n	d49fe <_Z24igh_app_get_new_settingsv+0x9a>
    {

        Serial.print("SERIAL DATA SETTINGS --> {");
   d4980:	f004 ff92 	bl	d98a8 <_Z16_fetch_usbserialv>
   d4984:	491f      	ldr	r1, [pc, #124]	; (d4a04 <_Z24igh_app_get_new_settingsv+0xa0>)
   d4986:	f004 fbf3 	bl	d9170 <_ZN5Print5printEPKc>
   d498a:	1e77      	subs	r7, r6, #1
   d498c:	1e65      	subs	r5, r4, #1
   d498e:	4427      	add	r7, r4
        for( uint8_t k = 0; k < rx_bytes; k++ )
   d4990:	42bd      	cmp	r5, r7
   d4992:	d00f      	beq.n	d49b4 <_Z24igh_app_get_new_settingsv+0x50>
        {
            if( igh_msg_buffer[k] <= 0x0F ) Serial.print("0");
   d4994:	f815 3f01 	ldrb.w	r3, [r5, #1]!
   d4998:	2b0f      	cmp	r3, #15
   d499a:	d804      	bhi.n	d49a6 <_Z24igh_app_get_new_settingsv+0x42>
   d499c:	f004 ff84 	bl	d98a8 <_Z16_fetch_usbserialv>
   d49a0:	4919      	ldr	r1, [pc, #100]	; (d4a08 <_Z24igh_app_get_new_settingsv+0xa4>)
   d49a2:	f004 fbe5 	bl	d9170 <_ZN5Print5printEPKc>
            Serial.print(igh_msg_buffer[k], HEX);
   d49a6:	f004 ff7f 	bl	d98a8 <_Z16_fetch_usbserialv>
            t = print('-');
            val = -n;
        } else {
            val = n;
        }
        return printNumber(val, base) + t;
   d49aa:	2210      	movs	r2, #16
   d49ac:	7829      	ldrb	r1, [r5, #0]
   d49ae:	f004 fbfc 	bl	d91aa <_ZN5Print11printNumberEmh>
    uint8_t rx_bytes = igh_app_get_serial_hex_data(igh_msg_buffer, sizeof(igh_msg_buffer));
    if ( 0 < rx_bytes ) // via Serial
    {

        Serial.print("SERIAL DATA SETTINGS --> {");
        for( uint8_t k = 0; k < rx_bytes; k++ )
   d49b2:	e7ed      	b.n	d4990 <_Z24igh_app_get_new_settingsv+0x2c>
        {
            if( igh_msg_buffer[k] <= 0x0F ) Serial.print("0");
            Serial.print(igh_msg_buffer[k], HEX);
        }
        Serial.print("}\n");
   d49b4:	f004 ff78 	bl	d98a8 <_Z16_fetch_usbserialv>
   d49b8:	4914      	ldr	r1, [pc, #80]	; (d4a0c <_Z24igh_app_get_new_settingsv+0xa8>)
   d49ba:	f004 fbd9 	bl	d9170 <_ZN5Print5printEPKc>

        if( IGH_SEND_SETTINGS == igh_msg_buffer[0] )
   d49be:	7823      	ldrb	r3, [r4, #0]
   d49c0:	2b10      	cmp	r3, #16
   d49c2:	d11c      	bne.n	d49fe <_Z24igh_app_get_new_settingsv+0x9a>
        {
            if( true == igh_settings_process_settings_tuples( igh_msg_buffer, 2, rx_bytes) )
   d49c4:	4632      	mov	r2, r6
   d49c6:	2102      	movs	r1, #2
   d49c8:	480d      	ldr	r0, [pc, #52]	; (d4a00 <_Z24igh_app_get_new_settingsv+0x9c>)
   d49ca:	f7ff fb77 	bl	d40bc <igh_settings_process_settings_tuples>
   d49ce:	2801      	cmp	r0, #1
   d49d0:	d10e      	bne.n	d49f0 <_Z24igh_app_get_new_settingsv+0x8c>
            {
                new_settings_available = 1;
   d49d2:	4b0f      	ldr	r3, [pc, #60]	; (d4a10 <_Z24igh_app_get_new_settingsv+0xac>)
                // update the checksum of the system settings
                igh_current_system_settings.checksum = igh_settings_calculate_checksum(&igh_current_system_settings, sizeof(igh_current_system_settings));
   d49d4:	4c0f      	ldr	r4, [pc, #60]	; (d4a14 <_Z24igh_app_get_new_settingsv+0xb0>)

        if( IGH_SEND_SETTINGS == igh_msg_buffer[0] )
        {
            if( true == igh_settings_process_settings_tuples( igh_msg_buffer, 2, rx_bytes) )
            {
                new_settings_available = 1;
   d49d6:	7018      	strb	r0, [r3, #0]
                // update the checksum of the system settings
                igh_current_system_settings.checksum = igh_settings_calculate_checksum(&igh_current_system_settings, sizeof(igh_current_system_settings));
   d49d8:	2148      	movs	r1, #72	; 0x48
   d49da:	4620      	mov	r0, r4
   d49dc:	f7ff fd34 	bl	d4448 <igh_settings_calculate_checksum>
   d49e0:	7020      	strb	r0, [r4, #0]
                // update the checksum for the threshold settings
                igh_current_threshold_settings.checksum = igh_settings_calculate_checksum(&igh_current_threshold_settings, sizeof(igh_current_threshold_settings));
   d49e2:	4c0d      	ldr	r4, [pc, #52]	; (d4a18 <_Z24igh_app_get_new_settingsv+0xb4>)
   d49e4:	2134      	movs	r1, #52	; 0x34
   d49e6:	4620      	mov	r0, r4
   d49e8:	f7ff fd2e 	bl	d4448 <igh_settings_calculate_checksum>
   d49ec:	7020      	strb	r0, [r4, #0]
   d49ee:	bdf8      	pop	{r3, r4, r5, r6, r7, pc}
            }
            else
            {
                Serial.println("SETTINGS FAILED");
   d49f0:	f004 ff5a 	bl	d98a8 <_Z16_fetch_usbserialv>
   d49f4:	4909      	ldr	r1, [pc, #36]	; (d4a1c <_Z24igh_app_get_new_settingsv+0xb8>)
            }
            
        }
    }
}
   d49f6:	e8bd 40f8 	ldmia.w	sp!, {r3, r4, r5, r6, r7, lr}
                // update the checksum for the threshold settings
                igh_current_threshold_settings.checksum = igh_settings_calculate_checksum(&igh_current_threshold_settings, sizeof(igh_current_threshold_settings));
            }
            else
            {
                Serial.println("SETTINGS FAILED");
   d49fa:	f004 bbcc 	b.w	d9196 <_ZN5Print7printlnEPKc>
   d49fe:	bdf8      	pop	{r3, r4, r5, r6, r7, pc}
   d4a00:	2003e6f1 	.word	0x2003e6f1
   d4a04:	000dbc2f 	.word	0x000dbc2f
   d4a08:	000dbc4a 	.word	0x000dbc4a
   d4a0c:	000dbc4c 	.word	0x000dbc4c
   d4a10:	2003d9c0 	.word	0x2003d9c0
   d4a14:	2003e604 	.word	0x2003e604
   d4a18:	2003e650 	.word	0x2003e650
   d4a1c:	000dbc4f 	.word	0x000dbc4f

000d4a20 <_Z19igh_app_log_servicev>:
    }
    return ret;
}

void igh_app_log_service( void )
{
   d4a20:	b508      	push	{r3, lr}
   d4a22:	f003 fe57 	bl	d86d4 <HAL_Timer_Get_Milli_Seconds>
    if( (millis() - log_service_timer) > ONE_SECOND )
   d4a26:	4b05      	ldr	r3, [pc, #20]	; (d4a3c <_Z19igh_app_log_servicev+0x1c>)
   d4a28:	681b      	ldr	r3, [r3, #0]
   d4a2a:	1ac0      	subs	r0, r0, r3
   d4a2c:	f5b0 7f7a 	cmp.w	r0, #1000	; 0x3e8
   d4a30:	d903      	bls.n	d4a3a <_Z19igh_app_log_servicev+0x1a>
            }
        }

        log_service_timer = millis();
    }
}
   d4a32:	e8bd 4008 	ldmia.w	sp!, {r3, lr}
   d4a36:	f7ff be01 	b.w	d463c <_Z19igh_app_log_servicev.part.1>
   d4a3a:	bd08      	pop	{r3, pc}
   d4a3c:	2003d9c4 	.word	0x2003d9c4

000d4a40 <_Z26igh_app_calculate_humiditytt>:
        refreshed_soil_data = INVALID_SOIL_DATA;
    }   
}

uint16_t igh_app_calculate_humidity( uint16_t new_temperature, uint16_t new_humidity )
{
   d4a40:	e92d 43f7 	stmdb	sp!, {r0, r1, r2, r4, r5, r6, r7, r8, r9, lr}
   d4a44:	4606      	mov	r6, r0
    double linearHumidity = SOIL_HUMIDITY_MULTIPLIER_C1 + SOIL_HUMIDITY_MULTIPLIER_C2 * new_humidity 
   d4a46:	4608      	mov	r0, r1
   d4a48:	f006 f8e4 	bl	dac14 <__aeabi_i2d>
   d4a4c:	4604      	mov	r4, r0
    float correctedHumidity = (temperature - ROOM_TEMPERATURE) * 
                              (SOIL_HUMIDITY_MULTIPLIER_T1 + SOIL_HUMIDITY_MULTIPLIER_T2 * new_humidity) 
                              + linearHumidity;

    // offload the decimal places
    return (uint16_t)correctedHumidity;
   d4a4e:	4630      	mov	r0, r6
    }   
}

uint16_t igh_app_calculate_humidity( uint16_t new_temperature, uint16_t new_humidity )
{
    double linearHumidity = SOIL_HUMIDITY_MULTIPLIER_C1 + SOIL_HUMIDITY_MULTIPLIER_C2 * new_humidity 
   d4a50:	460d      	mov	r5, r1
    float correctedHumidity = (temperature - ROOM_TEMPERATURE) * 
                              (SOIL_HUMIDITY_MULTIPLIER_T1 + SOIL_HUMIDITY_MULTIPLIER_T2 * new_humidity) 
                              + linearHumidity;

    // offload the decimal places
    return (uint16_t)correctedHumidity;
   d4a52:	f006 f8df 	bl	dac14 <__aeabi_i2d>
   d4a56:	a330      	add	r3, pc, #192	; (adr r3, d4b18 <_Z26igh_app_calculate_humiditytt+0xd8>)
   d4a58:	e9d3 2300 	ldrd	r2, r3, [r3]
   d4a5c:	f006 f940 	bl	dace0 <__aeabi_dmul>
   d4a60:	a336      	add	r3, pc, #216	; (adr r3, d4b3c <_Z26igh_app_calculate_humiditytt+0xfc>)
   d4a62:	e9d3 2300 	ldrd	r2, r3, [r3]
   d4a66:	f005 ff87 	bl	da978 <__aeabi_dsub>
   d4a6a:	f006 fb4b 	bl	db104 <__aeabi_d2f>
   d4a6e:	f006 f8e3 	bl	dac38 <__aeabi_f2d>
   d4a72:	2200      	movs	r2, #0
   d4a74:	4b30      	ldr	r3, [pc, #192]	; (d4b38 <_Z26igh_app_calculate_humiditytt+0xf8>)
   d4a76:	f005 ff7f 	bl	da978 <__aeabi_dsub>
   d4a7a:	a325      	add	r3, pc, #148	; (adr r3, d4b10 <_Z26igh_app_calculate_humiditytt+0xd0>)
   d4a7c:	e9d3 2300 	ldrd	r2, r3, [r3]
   d4a80:	4606      	mov	r6, r0
   d4a82:	460f      	mov	r7, r1
   d4a84:	4620      	mov	r0, r4
   d4a86:	4629      	mov	r1, r5
   d4a88:	f006 f92a 	bl	dace0 <__aeabi_dmul>
   d4a8c:	a322      	add	r3, pc, #136	; (adr r3, d4b18 <_Z26igh_app_calculate_humiditytt+0xd8>)
   d4a8e:	e9d3 2300 	ldrd	r2, r3, [r3]
   d4a92:	f005 ff73 	bl	da97c <__adddf3>
   d4a96:	4602      	mov	r2, r0
   d4a98:	460b      	mov	r3, r1
   d4a9a:	4630      	mov	r0, r6
   d4a9c:	4639      	mov	r1, r7
   d4a9e:	f006 f91f 	bl	dace0 <__aeabi_dmul>
   d4aa2:	a31f      	add	r3, pc, #124	; (adr r3, d4b20 <_Z26igh_app_calculate_humiditytt+0xe0>)
   d4aa4:	e9d3 2300 	ldrd	r2, r3, [r3]
   d4aa8:	4606      	mov	r6, r0
   d4aaa:	460f      	mov	r7, r1
   d4aac:	4620      	mov	r0, r4
   d4aae:	4629      	mov	r1, r5
   d4ab0:	f006 f916 	bl	dace0 <__aeabi_dmul>
   d4ab4:	a31c      	add	r3, pc, #112	; (adr r3, d4b28 <_Z26igh_app_calculate_humiditytt+0xe8>)
   d4ab6:	e9d3 2300 	ldrd	r2, r3, [r3]
   d4aba:	f005 ff5d 	bl	da978 <__aeabi_dsub>
   d4abe:	a31c      	add	r3, pc, #112	; (adr r3, d4b30 <_Z26igh_app_calculate_humiditytt+0xf0>)
   d4ac0:	e9d3 2300 	ldrd	r2, r3, [r3]
   d4ac4:	4680      	mov	r8, r0
   d4ac6:	4689      	mov	r9, r1
   d4ac8:	4620      	mov	r0, r4
   d4aca:	4629      	mov	r1, r5
   d4acc:	f006 f908 	bl	dace0 <__aeabi_dmul>
   d4ad0:	4622      	mov	r2, r4
   d4ad2:	462b      	mov	r3, r5
   d4ad4:	f006 f904 	bl	dace0 <__aeabi_dmul>
   d4ad8:	4602      	mov	r2, r0
   d4ada:	460b      	mov	r3, r1
   d4adc:	4640      	mov	r0, r8
   d4ade:	4649      	mov	r1, r9
   d4ae0:	f005 ff4c 	bl	da97c <__adddf3>
   d4ae4:	4602      	mov	r2, r0
   d4ae6:	460b      	mov	r3, r1
   d4ae8:	4630      	mov	r0, r6
   d4aea:	4639      	mov	r1, r7
   d4aec:	f005 ff46 	bl	da97c <__adddf3>
   d4af0:	f006 fb08 	bl	db104 <__aeabi_d2f>
   d4af4:	ee07 0a90 	vmov	s15, r0
   d4af8:	eefc 7ae7 	vcvt.u32.f32	s15, s15
   d4afc:	edcd 7a01 	vstr	s15, [sp, #4]
}
   d4b00:	f8bd 0004 	ldrh.w	r0, [sp, #4]
   d4b04:	b003      	add	sp, #12
   d4b06:	e8bd 83f0 	ldmia.w	sp!, {r4, r5, r6, r7, r8, r9, pc}
   d4b0a:	bf00      	nop
   d4b0c:	f3af 8000 	nop.w
   d4b10:	88e368f1 	.word	0x88e368f1
   d4b14:	3f14f8b5 	.word	0x3f14f8b5
   d4b18:	47ae147b 	.word	0x47ae147b
   d4b1c:	3f847ae1 	.word	0x3f847ae1
   d4b20:	a786c227 	.word	0xa786c227
   d4b24:	3fa2ca57 	.word	0x3fa2ca57
   d4b28:	adab9f56 	.word	0xadab9f56
   d4b2c:	40005fd8 	.word	0x40005fd8
   d4b30:	d2ff5e1d 	.word	0xd2ff5e1d
   d4b34:	bebad603 	.word	0xbebad603
   d4b38:	40390000 	.word	0x40390000
   d4b3c:	e147ae14 	.word	0xe147ae14
   d4b40:	4043d47a 	.word	0x4043d47a

000d4b44 <_Z36igh_app_get_temperature_and_humidityPh>:
        log_service_timer = millis();
    }
}

void igh_app_get_temperature_and_humidity( uint8_t * incoming_data )
{
   d4b44:	b5f8      	push	{r3, r4, r5, r6, r7, lr}
    uint8_t current_tuple_length = 0;
    uint8_t current_data_index = 0;
    uint8_t byte_tracker = 2;

    uint16_t new_temperature = 0xFFFF;
    uint16_t new_humidity = 0xFFFF;
   d4b46:	f64f 71ff 	movw	r1, #65535	; 0xffff
    bool valid_temerature = false;
    bool valid_humidity = false;
   d4b4a:	2500      	movs	r5, #0
        log_service_timer = millis();
    }
}

void igh_app_get_temperature_and_humidity( uint8_t * incoming_data )
{
   d4b4c:	4604      	mov	r4, r0
    uint8_t data_len = incoming_data[1];
   d4b4e:	7846      	ldrb	r6, [r0, #1]
    uint8_t current_data_index = 0;
    uint8_t byte_tracker = 2;

    uint16_t new_temperature = 0xFFFF;
    uint16_t new_humidity = 0xFFFF;
    bool valid_temerature = false;
   d4b50:	46ae      	mov	lr, r5
    uint8_t current_tuple_id = 0;
    uint8_t current_tuple_length = 0;
    uint8_t current_data_index = 0;
    uint8_t byte_tracker = 2;

    uint16_t new_temperature = 0xFFFF;
   d4b52:	4608      	mov	r0, r1
{
    uint8_t data_len = incoming_data[1];
    uint8_t current_tuple_id = 0;
    uint8_t current_tuple_length = 0;
    uint8_t current_data_index = 0;
    uint8_t byte_tracker = 2;
   d4b54:	2702      	movs	r7, #2
    uint16_t new_temperature = 0xFFFF;
    uint16_t new_humidity = 0xFFFF;
    bool valid_temerature = false;
    bool valid_humidity = false;

    while(byte_tracker < data_len)
   d4b56:	42b7      	cmp	r7, r6
   d4b58:	d225      	bcs.n	d4ba6 <_Z36igh_app_get_temperature_and_humidityPh+0x62>
        // extract the length
        current_tuple_length = incoming_data[byte_tracker + 1];
        // extract the tuple data based on tuple id
        current_data_index = byte_tracker + 2;

        switch( current_tuple_id )
   d4b5a:	f814 c007 	ldrb.w	ip, [r4, r7]
    while(byte_tracker < data_len)
    {
        // extract tuples
        current_tuple_id = incoming_data[byte_tracker];
        // extract the length
        current_tuple_length = incoming_data[byte_tracker + 1];
   d4b5e:	19e3      	adds	r3, r4, r7
        // extract the tuple data based on tuple id
        current_data_index = byte_tracker + 2;
   d4b60:	1cba      	adds	r2, r7, #2

        switch( current_tuple_id )
   d4b62:	f1bc 0f06 	cmp.w	ip, #6
    while(byte_tracker < data_len)
    {
        // extract tuples
        current_tuple_id = incoming_data[byte_tracker];
        // extract the length
        current_tuple_length = incoming_data[byte_tracker + 1];
   d4b66:	785b      	ldrb	r3, [r3, #1]
        // extract the tuple data based on tuple id
        current_data_index = byte_tracker + 2;
   d4b68:	b2d2      	uxtb	r2, r2

        switch( current_tuple_id )
   d4b6a:	d00f      	beq.n	d4b8c <_Z36igh_app_get_temperature_and_humidityPh+0x48>
   d4b6c:	f1bc 0f0a 	cmp.w	ip, #10
   d4b70:	d115      	bne.n	d4b9e <_Z36igh_app_get_temperature_and_humidityPh+0x5a>
        {
            case SOIL_TEMPERATURE:
                if( SIZE_OF_SOIL_TEMPERATURE == current_tuple_length )
   d4b72:	2b02      	cmp	r3, #2
   d4b74:	d113      	bne.n	d4b9e <_Z36igh_app_get_temperature_and_humidityPh+0x5a>
                {
                    uint8_t new_temperature_reading[SIZE_OF_SOIL_TEMPERATURE]; 
                    memcpy(new_temperature_reading, &incoming_data[current_data_index], SIZE_OF_SOIL_TEMPERATURE);
   d4b76:	eb04 0e02 	add.w	lr, r4, r2
                    new_temperature = GET16(new_temperature_reading);
   d4b7a:	5ca0      	ldrb	r0, [r4, r2]
   d4b7c:	f89e 2001 	ldrb.w	r2, [lr, #1]
   d4b80:	eb02 2000 	add.w	r0, r2, r0, lsl #8
   d4b84:	b280      	uxth	r0, r0
                    valid_temerature = true;
   d4b86:	f04f 0e01 	mov.w	lr, #1
   d4b8a:	e008      	b.n	d4b9e <_Z36igh_app_get_temperature_and_humidityPh+0x5a>
                    /* Do nothing */
                }
                break;
                
            case SOIL_HUMIDITY:
                if( SIZE_OF_SOIL_HUMIDITY == current_tuple_length )
   d4b8c:	2b02      	cmp	r3, #2
   d4b8e:	d106      	bne.n	d4b9e <_Z36igh_app_get_temperature_and_humidityPh+0x5a>
                {
                    uint8_t new_humidity_reading[SIZE_OF_SOIL_HUMIDITY]; 
                    memcpy(new_humidity_reading, &incoming_data[current_data_index], SIZE_OF_SOIL_HUMIDITY);
   d4b90:	18a5      	adds	r5, r4, r2
                    new_humidity = GET16(new_humidity_reading);
   d4b92:	5ca1      	ldrb	r1, [r4, r2]
   d4b94:	786a      	ldrb	r2, [r5, #1]
   d4b96:	eb02 2101 	add.w	r1, r2, r1, lsl #8
   d4b9a:	b289      	uxth	r1, r1
                    valid_humidity = true;
   d4b9c:	2501      	movs	r5, #1
            default:
                /* Ignore other data */
                break;
        }
        // move index to next tuple id
        byte_tracker += current_tuple_length + TUPLE_HEADER_LEN;
   d4b9e:	1c9a      	adds	r2, r3, #2
   d4ba0:	18bb      	adds	r3, r7, r2
   d4ba2:	b2df      	uxtb	r7, r3
    uint16_t new_temperature = 0xFFFF;
    uint16_t new_humidity = 0xFFFF;
    bool valid_temerature = false;
    bool valid_humidity = false;

    while(byte_tracker < data_len)
   d4ba4:	e7d7      	b.n	d4b56 <_Z36igh_app_get_temperature_and_humidityPh+0x12>
   d4ba6:	4b07      	ldr	r3, [pc, #28]	; (d4bc4 <_Z36igh_app_get_temperature_and_humidityPh+0x80>)
        // move index to next tuple id
        byte_tracker += current_tuple_length + TUPLE_HEADER_LEN;
    }


    if( true == valid_humidity &&
   d4ba8:	b14d      	cbz	r5, d4bbe <_Z36igh_app_get_temperature_and_humidityPh+0x7a>
   d4baa:	f1be 0f00 	cmp.w	lr, #0
   d4bae:	d006      	beq.n	d4bbe <_Z36igh_app_get_temperature_and_humidityPh+0x7a>
        true == valid_temerature )
    {
        refreshed_soil_data = VALID_SOIL_DATA;
   d4bb0:	22ff      	movs	r2, #255	; 0xff
   d4bb2:	701a      	strb	r2, [r3, #0]
        soil_humidity = igh_app_calculate_humidity(new_temperature, new_humidity);
   d4bb4:	f7ff ff44 	bl	d4a40 <_Z26igh_app_calculate_humiditytt>
   d4bb8:	4b03      	ldr	r3, [pc, #12]	; (d4bc8 <_Z36igh_app_get_temperature_and_humidityPh+0x84>)
   d4bba:	8018      	strh	r0, [r3, #0]
   d4bbc:	bdf8      	pop	{r3, r4, r5, r6, r7, pc}
    }
    else
    {
        refreshed_soil_data = INVALID_SOIL_DATA;
   d4bbe:	2200      	movs	r2, #0
   d4bc0:	701a      	strb	r2, [r3, #0]
   d4bc2:	bdf8      	pop	{r3, r4, r5, r6, r7, pc}
   d4bc4:	2003da90 	.word	0x2003da90
   d4bc8:	2003dab4 	.word	0x2003dab4

000d4bcc <_ZN5Print7printlnImLi0EEEjT_i>:

    size_t println(const char[]);
    size_t println(char);
    template <typename T, std::enable_if_t<std::is_integral<T>::value || std::is_convertible<T, unsigned long long>::value ||
        std::is_convertible<T, long long>::value, int> = 0>
    size_t println(T b, int base = DEC) {
   d4bcc:	b538      	push	{r3, r4, r5, lr}
   d4bce:	4605      	mov	r5, r0

template <typename T, std::enable_if_t<std::is_integral<T>::value || std::is_convertible<T, unsigned long long>::value ||
    std::is_convertible<T, long long>::value, int>>
size_t Print::print(T n, int base)
{
    if (base == 0) {
   d4bd0:	b922      	cbnz	r2, d4bdc <_ZN5Print7printlnImLi0EEEjT_i+0x10>
        return write(n);
   d4bd2:	6803      	ldr	r3, [r0, #0]
   d4bd4:	b2c9      	uxtb	r1, r1
   d4bd6:	689b      	ldr	r3, [r3, #8]
   d4bd8:	4798      	blx	r3
   d4bda:	e002      	b.n	d4be2 <_ZN5Print7printlnImLi0EEEjT_i+0x16>
            t = print('-');
            val = -n;
        } else {
            val = n;
        }
        return printNumber(val, base) + t;
   d4bdc:	b2d2      	uxtb	r2, r2
   d4bde:	f004 fae4 	bl	d91aa <_ZN5Print11printNumberEmh>
   d4be2:	4604      	mov	r4, r0
    size_t println(char);
    template <typename T, std::enable_if_t<std::is_integral<T>::value || std::is_convertible<T, unsigned long long>::value ||
        std::is_convertible<T, long long>::value, int> = 0>
    size_t println(T b, int base = DEC) {
        size_t n = print(b, base);
        n += println();
   d4be4:	4628      	mov	r0, r5
   d4be6:	f004 faca 	bl	d917e <_ZN5Print7printlnEv>
        return n;
    }
   d4bea:	4420      	add	r0, r4
   d4bec:	bd38      	pop	{r3, r4, r5, pc}
	...

000d4bf0 <_Z37igh_app_receive_and_stage_sensor_datav>:
    igh_hardware_service_valve_state();

}

void igh_app_receive_and_stage_sensor_data( void )
{
   d4bf0:	b570      	push	{r4, r5, r6, lr}
   d4bf2:	b090      	sub	sp, #64	; 0x40
    uint8_t rx_buffer[RF69_MAX_DATA_LEN];
    uint8_t data_rx_len = 0;

    data_rx_len = igh_rfm69_receive_raw_bytes( rx_buffer, sizeof(rx_buffer) );
   d4bf4:	213d      	movs	r1, #61	; 0x3d
   d4bf6:	4668      	mov	r0, sp
   d4bf8:	f001 f8b4 	bl	d5d64 <_Z27igh_rfm69_receive_raw_bytesPhh>

    if( 0 != data_rx_len )
   d4bfc:	4605      	mov	r5, r0
   d4bfe:	b3c8      	cbz	r0, d4c74 <_Z37igh_app_receive_and_stage_sensor_datav+0x84>
        igh_app_get_temperature_and_humidity(rx_buffer);

        uint8_t i = 0; // keep track of pkt data

        // first clear the buffer
        memset( igh_msg_buffer, 0, sizeof(igh_msg_buffer) );
   d4c00:	4c1d      	ldr	r4, [pc, #116]	; (d4c78 <_Z37igh_app_receive_and_stage_sensor_datav+0x88>)

    data_rx_len = igh_rfm69_receive_raw_bytes( rx_buffer, sizeof(rx_buffer) );

    if( 0 != data_rx_len )
    {
        igh_boron_toggle_boron_led(ON);
   d4c02:	2001      	movs	r0, #1
   d4c04:	f000 fbf6 	bl	d53f4 <_Z26igh_boron_toggle_boron_ledh>

        // read data needed by the shield
        igh_app_get_temperature_and_humidity(rx_buffer);
   d4c08:	4668      	mov	r0, sp
   d4c0a:	f7ff ff9b 	bl	d4b44 <_Z36igh_app_get_temperature_and_humidityPh>

        uint8_t i = 0; // keep track of pkt data

        // first clear the buffer
        memset( igh_msg_buffer, 0, sizeof(igh_msg_buffer) );
   d4c0e:	22ff      	movs	r2, #255	; 0xff
   d4c10:	2100      	movs	r1, #0
   d4c12:	4620      	mov	r0, r4
   d4c14:	f006 fbe6 	bl	db3e4 <memset>

        // Add frame start
        igh_msg_buffer[i++] = FRAME_START;
   d4c18:	233c      	movs	r3, #60	; 0x3c
   d4c1a:	7023      	strb	r3, [r4, #0]
        i++; // leave room for pkg length

        i = igh_app_add_message_header( igh_msg_buffer, i, ERROR_MSG, IGH_UPLOAD );
   d4c1c:	2245      	movs	r2, #69	; 0x45
   d4c1e:	2355      	movs	r3, #85	; 0x55
   d4c20:	2102      	movs	r1, #2
   d4c22:	4620      	mov	r0, r4
   d4c24:	f7ff fd70 	bl	d4708 <_Z26igh_app_add_message_headerPhh12igh_msg_type11igh_msg_dir>
        i = igh_app_add_payload( igh_msg_buffer, i, rx_buffer, data_rx_len );
   d4c28:	466a      	mov	r2, sp
   d4c2a:	4601      	mov	r1, r0
   d4c2c:	462b      	mov	r3, r5
   d4c2e:	4620      	mov	r0, r4
   d4c30:	f7ff fd8c 	bl	d474c <_Z19igh_app_add_payloadPhhS_h>

        // Add Frame End 
        igh_msg_buffer[i++] = FRAME_END;
   d4c34:	1c45      	adds	r5, r0, #1
   d4c36:	233e      	movs	r3, #62	; 0x3e
   d4c38:	b2ed      	uxtb	r5, r5
   d4c3a:	5423      	strb	r3, [r4, r0]

        igh_msg_buffer[1] = i; // add length
   d4c3c:	7065      	strb	r5, [r4, #1]

        Serial.print("\nTIME: "); Serial.println(igh_boron_unix_time(), HEX);
   d4c3e:	f004 fe33 	bl	d98a8 <_Z16_fetch_usbserialv>
   d4c42:	490e      	ldr	r1, [pc, #56]	; (d4c7c <_Z37igh_app_receive_and_stage_sensor_datav+0x8c>)
   d4c44:	f004 fa94 	bl	d9170 <_ZN5Print5printEPKc>
   d4c48:	f004 fe2e 	bl	d98a8 <_Z16_fetch_usbserialv>
   d4c4c:	4606      	mov	r6, r0
   d4c4e:	f000 ff8f 	bl	d5b70 <_Z19igh_boron_unix_timev>
   d4c52:	2210      	movs	r2, #16
   d4c54:	4601      	mov	r1, r0
   d4c56:	4630      	mov	r0, r6
   d4c58:	f7ff ffb8 	bl	d4bcc <_ZN5Print7printlnImLi0EEEjT_i>
        //     Serial.print(igh_msg_buffer[k], HEX);
        // }
        // Serial.print("}\n");

        // publish the data or store it if the publish fails
        uint32_t current_time = igh_boron_unix_time();
   d4c5c:	f000 ff88 	bl	d5b70 <_Z19igh_boron_unix_timev>
        
        // Log data only if the time is synced
        if( JAN_01_2020 < current_time )
   d4c60:	4b07      	ldr	r3, [pc, #28]	; (d4c80 <_Z37igh_app_receive_and_stage_sensor_datav+0x90>)
   d4c62:	4298      	cmp	r0, r3
   d4c64:	d903      	bls.n	d4c6e <_Z37igh_app_receive_and_stage_sensor_datav+0x7e>
        igh_sd_log_save_data_point( (unsigned long)current_time, igh_msg_buffer, i );
   d4c66:	462a      	mov	r2, r5
   d4c68:	4621      	mov	r1, r4
   d4c6a:	f000 fe17 	bl	d589c <_Z26igh_sd_log_save_data_pointmPhh>
        
        igh_boron_toggle_boron_led(OFF);
   d4c6e:	2000      	movs	r0, #0
   d4c70:	f000 fbc0 	bl	d53f4 <_Z26igh_boron_toggle_boron_ledh>
    }
}
   d4c74:	b010      	add	sp, #64	; 0x40
   d4c76:	bd70      	pop	{r4, r5, r6, pc}
   d4c78:	2003e6f1 	.word	0x2003e6f1
   d4c7c:	000dbc5f 	.word	0x000dbc5f
   d4c80:	5e0be100 	.word	0x5e0be100

000d4c84 <_Z27igh_app_commit_new_settingsv>:
        }
    }
}

void igh_app_commit_new_settings( void )
{
   d4c84:	e92d 41f0 	stmdb	sp!, {r4, r5, r6, r7, r8, lr}
    if( 1 == new_settings_available )
   d4c88:	4b5a      	ldr	r3, [pc, #360]	; (d4df4 <_Z27igh_app_commit_new_settingsv+0x170>)
   d4c8a:	781a      	ldrb	r2, [r3, #0]
   d4c8c:	2a01      	cmp	r2, #1
   d4c8e:	461f      	mov	r7, r3
   d4c90:	f040 80ad 	bne.w	d4dee <_Z27igh_app_commit_new_settingsv+0x16a>
    {
        Serial.print("OP STATE:"); Serial.println(igh_current_system_settings.op_state);
   d4c94:	f004 fe08 	bl	d98a8 <_Z16_fetch_usbserialv>
   d4c98:	4957      	ldr	r1, [pc, #348]	; (d4df8 <_Z27igh_app_commit_new_settingsv+0x174>)
   d4c9a:	4c58      	ldr	r4, [pc, #352]	; (d4dfc <_Z27igh_app_commit_new_settingsv+0x178>)
   d4c9c:	f004 fa68 	bl	d9170 <_ZN5Print5printEPKc>
   d4ca0:	f004 fe02 	bl	d98a8 <_Z16_fetch_usbserialv>
            t = print('-');
            val = -n;
        } else {
            val = n;
        }
        return printNumber(val, base) + t;
   d4ca4:	220a      	movs	r2, #10
   d4ca6:	7a61      	ldrb	r1, [r4, #9]
   d4ca8:	4605      	mov	r5, r0
   d4caa:	f004 fa7e 	bl	d91aa <_ZN5Print11printNumberEmh>
    size_t println(char);
    template <typename T, std::enable_if_t<std::is_integral<T>::value || std::is_convertible<T, unsigned long long>::value ||
        std::is_convertible<T, long long>::value, int> = 0>
    size_t println(T b, int base = DEC) {
        size_t n = print(b, base);
        n += println();
   d4cae:	4628      	mov	r0, r5
   d4cb0:	f004 fa65 	bl	d917e <_ZN5Print7printlnEv>
        Serial.print("REPORTING INTERVAL: "); Serial.println(igh_current_system_settings.reporting_interval);
   d4cb4:	f004 fdf8 	bl	d98a8 <_Z16_fetch_usbserialv>
   d4cb8:	4951      	ldr	r1, [pc, #324]	; (d4e00 <_Z27igh_app_commit_new_settingsv+0x17c>)
   d4cba:	f004 fa59 	bl	d9170 <_ZN5Print5printEPKc>
   d4cbe:	f004 fdf3 	bl	d98a8 <_Z16_fetch_usbserialv>
   d4cc2:	220a      	movs	r2, #10
   d4cc4:	6921      	ldr	r1, [r4, #16]
   d4cc6:	f7ff ff81 	bl	d4bcc <_ZN5Print7printlnImLi0EEEjT_i>
        Serial.print("DATA RESOLUTION: "); Serial.println(igh_current_system_settings.data_resolution);
   d4cca:	f004 fded 	bl	d98a8 <_Z16_fetch_usbserialv>
   d4cce:	494d      	ldr	r1, [pc, #308]	; (d4e04 <_Z27igh_app_commit_new_settingsv+0x180>)
   d4cd0:	f004 fa4e 	bl	d9170 <_ZN5Print5printEPKc>
   d4cd4:	f004 fde8 	bl	d98a8 <_Z16_fetch_usbserialv>
   d4cd8:	220a      	movs	r2, #10
   d4cda:	6961      	ldr	r1, [r4, #20]
   d4cdc:	f7ff ff76 	bl	d4bcc <_ZN5Print7printlnImLi0EEEjT_i>
        Serial.print("SERIAL NUMBER: ");
   d4ce0:	f004 fde2 	bl	d98a8 <_Z16_fetch_usbserialv>
   d4ce4:	4948      	ldr	r1, [pc, #288]	; (d4e08 <_Z27igh_app_commit_new_settingsv+0x184>)
   d4ce6:	f004 fa43 	bl	d9170 <_ZN5Print5printEPKc>
   d4cea:	f104 0617 	add.w	r6, r4, #23
   d4cee:	f104 0823 	add.w	r8, r4, #35	; 0x23
   d4cf2:	4625      	mov	r5, r4
        for( uint8_t i = 0; i < sizeof(igh_default_system_settings.serial_number); i++ )
        {
            if( igh_current_system_settings.serial_number[i] <= 0x0F ) Serial.print("0");
   d4cf4:	f816 3f01 	ldrb.w	r3, [r6, #1]!
   d4cf8:	2b0f      	cmp	r3, #15
   d4cfa:	d804      	bhi.n	d4d06 <_Z27igh_app_commit_new_settingsv+0x82>
   d4cfc:	f004 fdd4 	bl	d98a8 <_Z16_fetch_usbserialv>
   d4d00:	4942      	ldr	r1, [pc, #264]	; (d4e0c <_Z27igh_app_commit_new_settingsv+0x188>)
   d4d02:	f004 fa35 	bl	d9170 <_ZN5Print5printEPKc>
            Serial.print(igh_current_system_settings.serial_number[i], HEX);
   d4d06:	f004 fdcf 	bl	d98a8 <_Z16_fetch_usbserialv>
            t = print('-');
            val = -n;
        } else {
            val = n;
        }
        return printNumber(val, base) + t;
   d4d0a:	2210      	movs	r2, #16
   d4d0c:	7831      	ldrb	r1, [r6, #0]
   d4d0e:	f004 fa4c 	bl	d91aa <_ZN5Print11printNumberEmh>
    {
        Serial.print("OP STATE:"); Serial.println(igh_current_system_settings.op_state);
        Serial.print("REPORTING INTERVAL: "); Serial.println(igh_current_system_settings.reporting_interval);
        Serial.print("DATA RESOLUTION: "); Serial.println(igh_current_system_settings.data_resolution);
        Serial.print("SERIAL NUMBER: ");
        for( uint8_t i = 0; i < sizeof(igh_default_system_settings.serial_number); i++ )
   d4d12:	45b0      	cmp	r8, r6
   d4d14:	d1ee      	bne.n	d4cf4 <_Z27igh_app_commit_new_settingsv+0x70>
        {
            if( igh_current_system_settings.serial_number[i] <= 0x0F ) Serial.print("0");
            Serial.print(igh_current_system_settings.serial_number[i], HEX);
        }
        Serial.print("\n");
   d4d16:	f004 fdc7 	bl	d98a8 <_Z16_fetch_usbserialv>
   d4d1a:	493d      	ldr	r1, [pc, #244]	; (d4e10 <_Z27igh_app_commit_new_settingsv+0x18c>)
   d4d1c:	f004 fa28 	bl	d9170 <_ZN5Print5printEPKc>
        Serial.print("MQTT BROKER: "); Serial.println((char *)igh_current_system_settings.broker);
   d4d20:	f004 fdc2 	bl	d98a8 <_Z16_fetch_usbserialv>
   d4d24:	493b      	ldr	r1, [pc, #236]	; (d4e14 <_Z27igh_app_commit_new_settingsv+0x190>)
   d4d26:	f004 fa23 	bl	d9170 <_ZN5Print5printEPKc>
   d4d2a:	f004 fdbd 	bl	d98a8 <_Z16_fetch_usbserialv>
   d4d2e:	493a      	ldr	r1, [pc, #232]	; (d4e18 <_Z27igh_app_commit_new_settingsv+0x194>)
   d4d30:	f004 fa31 	bl	d9196 <_ZN5Print7printlnEPKc>
        Serial.print("MQTT BROKER PORT: "); Serial.println(igh_current_system_settings.broker_port);
   d4d34:	f004 fdb8 	bl	d98a8 <_Z16_fetch_usbserialv>
   d4d38:	4938      	ldr	r1, [pc, #224]	; (d4e1c <_Z27igh_app_commit_new_settingsv+0x198>)
   d4d3a:	f004 fa19 	bl	d9170 <_ZN5Print5printEPKc>
   d4d3e:	f004 fdb3 	bl	d98a8 <_Z16_fetch_usbserialv>
   d4d42:	220a      	movs	r2, #10
   d4d44:	f8b5 1044 	ldrh.w	r1, [r5, #68]	; 0x44
   d4d48:	4604      	mov	r4, r0
   d4d4a:	f004 fa2e 	bl	d91aa <_ZN5Print11printNumberEmh>
    size_t println(char);
    template <typename T, std::enable_if_t<std::is_integral<T>::value || std::is_convertible<T, unsigned long long>::value ||
        std::is_convertible<T, long long>::value, int> = 0>
    size_t println(T b, int base = DEC) {
        size_t n = print(b, base);
        n += println();
   d4d4e:	4620      	mov	r0, r4
   d4d50:	f004 fa15 	bl	d917e <_ZN5Print7printlnEv>
        Serial.print("TIMEZONE: "); Serial.println(igh_current_system_settings.timezone);
   d4d54:	f004 fda8 	bl	d98a8 <_Z16_fetch_usbserialv>
   d4d58:	4931      	ldr	r1, [pc, #196]	; (d4e20 <_Z27igh_app_commit_new_settingsv+0x19c>)
   d4d5a:	f004 fa09 	bl	d9170 <_ZN5Print5printEPKc>
   d4d5e:	f004 fda3 	bl	d98a8 <_Z16_fetch_usbserialv>
   d4d62:	686c      	ldr	r4, [r5, #4]
        return write(n);
    } else {
        size_t t = 0;
        using PrintNumberType = typename PrintNumberTypeSelector<T>::type;
        PrintNumberType val;
        if (n < 0 && base == 10) {
   d4d64:	2c00      	cmp	r4, #0
   d4d66:	4606      	mov	r6, r0
   d4d68:	da04      	bge.n	d4d74 <_Z27igh_app_commit_new_settingsv+0xf0>
            t = print('-');
   d4d6a:	212d      	movs	r1, #45	; 0x2d
   d4d6c:	f004 fa04 	bl	d9178 <_ZN5Print5printEc>
            val = -n;
   d4d70:	4261      	negs	r1, r4
   d4d72:	e000      	b.n	d4d76 <_Z27igh_app_commit_new_settingsv+0xf2>
        } else {
            val = n;
   d4d74:	4621      	mov	r1, r4
        }
        return printNumber(val, base) + t;
   d4d76:	220a      	movs	r2, #10
   d4d78:	4630      	mov	r0, r6
   d4d7a:	f004 fa16 	bl	d91aa <_ZN5Print11printNumberEmh>
    size_t println(char);
    template <typename T, std::enable_if_t<std::is_integral<T>::value || std::is_convertible<T, unsigned long long>::value ||
        std::is_convertible<T, long long>::value, int> = 0>
    size_t println(T b, int base = DEC) {
        size_t n = print(b, base);
        n += println();
   d4d7e:	4630      	mov	r0, r6
   d4d80:	f004 f9fd 	bl	d917e <_ZN5Print7printlnEv>
        Serial.print("IRRIGATION HOUR: "); Serial.println(igh_current_system_settings.irrigation_hr);
   d4d84:	f004 fd90 	bl	d98a8 <_Z16_fetch_usbserialv>
   d4d88:	4926      	ldr	r1, [pc, #152]	; (d4e24 <_Z27igh_app_commit_new_settingsv+0x1a0>)
   d4d8a:	f004 f9f1 	bl	d9170 <_ZN5Print5printEPKc>
   d4d8e:	f004 fd8b 	bl	d98a8 <_Z16_fetch_usbserialv>
            t = print('-');
            val = -n;
        } else {
            val = n;
        }
        return printNumber(val, base) + t;
   d4d92:	220a      	movs	r2, #10
   d4d94:	7a29      	ldrb	r1, [r5, #8]
   d4d96:	4604      	mov	r4, r0
   d4d98:	f004 fa07 	bl	d91aa <_ZN5Print11printNumberEmh>
    size_t println(char);
    template <typename T, std::enable_if_t<std::is_integral<T>::value || std::is_convertible<T, unsigned long long>::value ||
        std::is_convertible<T, long long>::value, int> = 0>
    size_t println(T b, int base = DEC) {
        size_t n = print(b, base);
        n += println();
   d4d9c:	4620      	mov	r0, r4
   d4d9e:	f004 f9ee 	bl	d917e <_ZN5Print7printlnEv>
        Serial.print("VALVE OPEN PERIOD: "); Serial.println(igh_current_system_settings.water_dispenser_period);
   d4da2:	f004 fd81 	bl	d98a8 <_Z16_fetch_usbserialv>
   d4da6:	4920      	ldr	r1, [pc, #128]	; (d4e28 <_Z27igh_app_commit_new_settingsv+0x1a4>)
   d4da8:	f004 f9e2 	bl	d9170 <_ZN5Print5printEPKc>
   d4dac:	f004 fd7c 	bl	d98a8 <_Z16_fetch_usbserialv>
   d4db0:	220a      	movs	r2, #10
   d4db2:	68e9      	ldr	r1, [r5, #12]
   d4db4:	f7ff ff0a 	bl	d4bcc <_ZN5Print7printlnImLi0EEEjT_i>
        Serial.print("CHECKSUM: "); Serial.println(igh_current_system_settings.checksum);
   d4db8:	f004 fd76 	bl	d98a8 <_Z16_fetch_usbserialv>
   d4dbc:	491b      	ldr	r1, [pc, #108]	; (d4e2c <_Z27igh_app_commit_new_settingsv+0x1a8>)
   d4dbe:	f004 f9d7 	bl	d9170 <_ZN5Print5printEPKc>
   d4dc2:	f004 fd71 	bl	d98a8 <_Z16_fetch_usbserialv>
            t = print('-');
            val = -n;
        } else {
            val = n;
        }
        return printNumber(val, base) + t;
   d4dc6:	220a      	movs	r2, #10
   d4dc8:	7829      	ldrb	r1, [r5, #0]
   d4dca:	4604      	mov	r4, r0
   d4dcc:	f004 f9ed 	bl	d91aa <_ZN5Print11printNumberEmh>
    size_t println(char);
    template <typename T, std::enable_if_t<std::is_integral<T>::value || std::is_convertible<T, unsigned long long>::value ||
        std::is_convertible<T, long long>::value, int> = 0>
    size_t println(T b, int base = DEC) {
        size_t n = print(b, base);
        n += println();
   d4dd0:	4620      	mov	r0, r4
   d4dd2:	f004 f9d4 	bl	d917e <_ZN5Print7printlnEv>

        if ( true == igh_eeprom_save_system_settings( &igh_current_system_settings) )
   d4dd6:	4809      	ldr	r0, [pc, #36]	; (d4dfc <_Z27igh_app_commit_new_settingsv+0x178>)
   d4dd8:	f000 fa22 	bl	d5220 <_Z31igh_eeprom_save_system_settingsP15system_settings>
   d4ddc:	2801      	cmp	r0, #1
   d4dde:	d104      	bne.n	d4dea <_Z27igh_app_commit_new_settingsv+0x166>
        {
            Serial.println("Settings Saved successfully");
   d4de0:	f004 fd62 	bl	d98a8 <_Z16_fetch_usbserialv>
   d4de4:	4912      	ldr	r1, [pc, #72]	; (d4e30 <_Z27igh_app_commit_new_settingsv+0x1ac>)
   d4de6:	f004 f9d6 	bl	d9196 <_ZN5Print7printlnEPKc>
        }

        new_settings_available = 0;
   d4dea:	2300      	movs	r3, #0
   d4dec:	703b      	strb	r3, [r7, #0]
   d4dee:	e8bd 81f0 	ldmia.w	sp!, {r4, r5, r6, r7, r8, pc}
   d4df2:	bf00      	nop
   d4df4:	2003d9c0 	.word	0x2003d9c0
   d4df8:	000dbc67 	.word	0x000dbc67
   d4dfc:	2003e604 	.word	0x2003e604
   d4e00:	000dbc71 	.word	0x000dbc71
   d4e04:	000dbc86 	.word	0x000dbc86
   d4e08:	000dbc98 	.word	0x000dbc98
   d4e0c:	000dbc4a 	.word	0x000dbc4a
   d4e10:	000dc057 	.word	0x000dc057
   d4e14:	000dbca8 	.word	0x000dbca8
   d4e18:	2003e628 	.word	0x2003e628
   d4e1c:	000dbcb6 	.word	0x000dbcb6
   d4e20:	000dbcc9 	.word	0x000dbcc9
   d4e24:	000dbcd4 	.word	0x000dbcd4
   d4e28:	000dbce6 	.word	0x000dbce6
   d4e2c:	000dbcfa 	.word	0x000dbcfa
   d4e30:	000dbd05 	.word	0x000dbd05

000d4e34 <_Z20igh_main_applicationv>:
    // setup the SD card
    igh_sd_log_setup();
}

void igh_main_application( void )
{
   d4e34:	b508      	push	{r3, lr}
    // check if there are any settings to read
    igh_app_get_new_settings();
   d4e36:	f7ff fd95 	bl	d4964 <_Z24igh_app_get_new_settingsv>

    // commit new settings if available
    igh_app_commit_new_settings();
   d4e3a:	f7ff ff23 	bl	d4c84 <_Z27igh_app_commit_new_settingsv>

    // process boron service
    igh_boron_service();
   d4e3e:	f000 fedf 	bl	d5c00 <_Z17igh_boron_servicev>
    
    // Send or store device restart message
    igh_app_send_device_restart();
   d4e42:	f7ff fd2d 	bl	d48a0 <_Z27igh_app_send_device_restartv>
    
    // Send or Store Spear data
    igh_app_receive_and_stage_sensor_data();
   d4e46:	f7ff fed3 	bl	d4bf0 <_Z37igh_app_receive_and_stage_sensor_datav>

    // Run MQTT service in background
    igh_mqtt_service();
   d4e4a:	f000 f897 	bl	d4f7c <_Z16igh_mqtt_servicev>

    // rfm69 service in the background
    igh_rfm69_service();
   d4e4e:	f000 ffa5 	bl	d5d9c <_Z17igh_rfm69_servicev>

    // manage data on SD card
    igh_app_log_service();
   d4e52:	f7ff fde5 	bl	d4a20 <_Z19igh_app_log_servicev>

    // control the valve
    igh_hardware_service_valve_state();

}
   d4e56:	e8bd 4008 	ldmia.w	sp!, {r3, lr}

    // manage data on SD card
    igh_app_log_service();

    // control the valve
    igh_hardware_service_valve_state();
   d4e5a:	f000 bac3 	b.w	d53e4 <_Z32igh_hardware_service_valve_statev>

000d4e5e <_GLOBAL__sub_I_log_service_timer>:
   d4e5e:	f003 bb71 	b.w	d8544 <HAL_Pin_Map>
	...

000d4e64 <_Z13mqtt_callbackPcPhj>:

/* mqtt functions */
void mqtt_callback(char* topic, byte* payload, unsigned int length);
MQTT client(DEFAULT_MQTT_BROKER, DEFAULT_MQTT_BROKER_PORT, mqtt_callback);

void mqtt_callback(char* topic, byte* payload, unsigned int length) {
   d4e64:	e92d 41f0 	stmdb	sp!, {r4, r5, r6, r7, r8, lr}
    igh_msg_type msg_type = UNKNOWN_MSG;
    uint8_t p[length];
   d4e68:	1dd3      	adds	r3, r2, #7
   d4e6a:	f023 0307 	bic.w	r3, r3, #7

/* mqtt functions */
void mqtt_callback(char* topic, byte* payload, unsigned int length);
MQTT client(DEFAULT_MQTT_BROKER, DEFAULT_MQTT_BROKER_PORT, mqtt_callback);

void mqtt_callback(char* topic, byte* payload, unsigned int length) {
   d4e6e:	af00      	add	r7, sp, #0
    igh_msg_type msg_type = UNKNOWN_MSG;
    uint8_t p[length];
   d4e70:	ebad 0d03 	sub.w	sp, sp, r3
    memcpy(p, payload, length);
   d4e74:	4668      	mov	r0, sp

/* mqtt functions */
void mqtt_callback(char* topic, byte* payload, unsigned int length);
MQTT client(DEFAULT_MQTT_BROKER, DEFAULT_MQTT_BROKER_PORT, mqtt_callback);

void mqtt_callback(char* topic, byte* payload, unsigned int length) {
   d4e76:	4690      	mov	r8, r2
    igh_msg_type msg_type = UNKNOWN_MSG;
    uint8_t p[length];
    memcpy(p, payload, length);
   d4e78:	f006 faa9 	bl	db3ce <memcpy>

    Serial.print("RECEIVED MSG: ");
   d4e7c:	f004 fd14 	bl	d98a8 <_Z16_fetch_usbserialv>
   d4e80:	4916      	ldr	r1, [pc, #88]	; (d4edc <_Z13mqtt_callbackPcPhj+0x78>)
   d4e82:	f004 f975 	bl	d9170 <_ZN5Print5printEPKc>
void mqtt_callback(char* topic, byte* payload, unsigned int length);
MQTT client(DEFAULT_MQTT_BROKER, DEFAULT_MQTT_BROKER_PORT, mqtt_callback);

void mqtt_callback(char* topic, byte* payload, unsigned int length) {
    igh_msg_type msg_type = UNKNOWN_MSG;
    uint8_t p[length];
   d4e86:	466c      	mov	r4, sp
    memcpy(p, payload, length);

    Serial.print("RECEIVED MSG: ");
   d4e88:	2500      	movs	r5, #0
    for( uint8_t i = 0; i < length; i++ )
   d4e8a:	b2ee      	uxtb	r6, r5
   d4e8c:	45b0      	cmp	r8, r6
   d4e8e:	d90f      	bls.n	d4eb0 <_Z13mqtt_callbackPcPhj+0x4c>
    {
        if( p[i] <= 0x0F ) Serial.print("0");
   d4e90:	5da3      	ldrb	r3, [r4, r6]
   d4e92:	2b0f      	cmp	r3, #15
   d4e94:	d804      	bhi.n	d4ea0 <_Z13mqtt_callbackPcPhj+0x3c>
   d4e96:	f004 fd07 	bl	d98a8 <_Z16_fetch_usbserialv>
   d4e9a:	4911      	ldr	r1, [pc, #68]	; (d4ee0 <_Z13mqtt_callbackPcPhj+0x7c>)
   d4e9c:	f004 f968 	bl	d9170 <_ZN5Print5printEPKc>
        Serial.print(p[i], HEX);
   d4ea0:	f004 fd02 	bl	d98a8 <_Z16_fetch_usbserialv>
            t = print('-');
            val = -n;
        } else {
            val = n;
        }
        return printNumber(val, base) + t;
   d4ea4:	2210      	movs	r2, #16
   d4ea6:	5da1      	ldrb	r1, [r4, r6]
   d4ea8:	f004 f97f 	bl	d91aa <_ZN5Print11printNumberEmh>
   d4eac:	3501      	adds	r5, #1
    igh_msg_type msg_type = UNKNOWN_MSG;
    uint8_t p[length];
    memcpy(p, payload, length);

    Serial.print("RECEIVED MSG: ");
    for( uint8_t i = 0; i < length; i++ )
   d4eae:	e7ec      	b.n	d4e8a <_Z13mqtt_callbackPcPhj+0x26>
    {
        if( p[i] <= 0x0F ) Serial.print("0");
        Serial.print(p[i], HEX);
    }

    msg_type = (igh_msg_type)igh_message_process_incoming_msg( p );
   d4eb0:	4620      	mov	r0, r4
   d4eb2:	f7ff fb81 	bl	d45b8 <igh_message_process_incoming_msg>
   d4eb6:	4605      	mov	r5, r0

    Serial.print("\nMESSAGE TYPE: ");
   d4eb8:	f004 fcf6 	bl	d98a8 <_Z16_fetch_usbserialv>
   d4ebc:	4909      	ldr	r1, [pc, #36]	; (d4ee4 <_Z13mqtt_callbackPcPhj+0x80>)
   d4ebe:	f004 f957 	bl	d9170 <_ZN5Print5printEPKc>
    Serial.println((int)msg_type);
   d4ec2:	f004 fcf1 	bl	d98a8 <_Z16_fetch_usbserialv>
   d4ec6:	220a      	movs	r2, #10
   d4ec8:	4604      	mov	r4, r0
   d4eca:	4629      	mov	r1, r5
   d4ecc:	f004 f96d 	bl	d91aa <_ZN5Print11printNumberEmh>
    size_t println(char);
    template <typename T, std::enable_if_t<std::is_integral<T>::value || std::is_convertible<T, unsigned long long>::value ||
        std::is_convertible<T, long long>::value, int> = 0>
    size_t println(T b, int base = DEC) {
        size_t n = print(b, base);
        n += println();
   d4ed0:	4620      	mov	r0, r4
   d4ed2:	f004 f954 	bl	d917e <_ZN5Print7printlnEv>
}
   d4ed6:	46bd      	mov	sp, r7
   d4ed8:	e8bd 81f0 	ldmia.w	sp!, {r4, r5, r6, r7, r8, pc}
   d4edc:	000dbd21 	.word	0x000dbd21
   d4ee0:	000dbc4a 	.word	0x000dbc4a
   d4ee4:	000dbd30 	.word	0x000dbd30

000d4ee8 <_Z14igh_mqtt_setupv>:

void igh_mqtt_setup( void )
{
   d4ee8:	b510      	push	{r4, lr}
    // set mqtt device name
    device_name = System.deviceID();
   d4eea:	4c1e      	ldr	r4, [pc, #120]	; (d4f64 <_Z14igh_mqtt_setupv+0x7c>)
    Serial.print("\nMESSAGE TYPE: ");
    Serial.println((int)msg_type);
}

void igh_mqtt_setup( void )
{
   d4eec:	b088      	sub	sp, #32
    inline static SleepResult sleep(const pin_t* pins, size_t pinsSize, const InterruptMode* edgeTriggerMode, size_t edgeTriggerModeSize, long seconds = 0, SleepOptionFlags flag = SLEEP_NETWORK_OFF) { return sleepPinImpl(pins, pinsSize, edgeTriggerMode, edgeTriggerModeSize, seconds, flag); }
    inline static SleepResult sleep(const pin_t* pins, size_t pinsSize, const InterruptMode* edgeTriggerMode, size_t edgeTriggerModeSize, std::chrono::seconds s, SleepOptionFlags flag = SLEEP_NETWORK_OFF) { return sleep(pins, pinsSize, edgeTriggerMode, edgeTriggerModeSize, s.count(), flag); }
    inline static SleepResult sleep(const pin_t* pins, size_t pinsSize, const InterruptMode* edgeTriggerMode, size_t edgeTriggerModeSize, SleepOptionFlags flag, long seconds = 0) { return sleep(pins, pinsSize, edgeTriggerMode, edgeTriggerModeSize, seconds, flag); }
    inline static SleepResult sleep(const pin_t* pins, size_t pinsSize, const InterruptMode* edgeTriggerMode, size_t edgeTriggerModeSize, SleepOptionFlags flag, std::chrono::seconds s) { return sleep(pins, pinsSize, edgeTriggerMode, edgeTriggerModeSize, flag, s.count()); }

    static String deviceID(void) { return spark_deviceID(); }
   d4eee:	a804      	add	r0, sp, #16
   d4ef0:	f003 fe44 	bl	d8b7c <spark_deviceID>
    // set mqtt device name
    device_name = System.deviceID();
   d4ef4:	a904      	add	r1, sp, #16
   d4ef6:	4620      	mov	r0, r4
   d4ef8:	f004 f8cc 	bl	d9094 <_ZN6StringaSEOS_>
   d4efc:	a804      	add	r0, sp, #16
   d4efe:	f004 f843 	bl	d8f88 <_ZN6StringD1Ev>

class StringSumHelper : public String
{
public:
	StringSumHelper(const String &s) : String(s) {}
	StringSumHelper(const char *p) : String(p) {}
   d4f02:	4919      	ldr	r1, [pc, #100]	; (d4f68 <_Z14igh_mqtt_setupv+0x80>)
   d4f04:	a804      	add	r0, sp, #16
   d4f06:	f004 f886 	bl	d9016 <_ZN6StringC1EPK19__FlashStringHelper>
   d4f0a:	4668      	mov	r0, sp
   d4f0c:	f003 fe36 	bl	d8b7c <spark_deviceID>
    inbound_topic = "44" + System.deviceID();
   d4f10:	4669      	mov	r1, sp
   d4f12:	a804      	add	r0, sp, #16
   d4f14:	f004 f8ee 	bl	d90f4 <_ZplRK15StringSumHelperRK6String>
   d4f18:	4601      	mov	r1, r0
   d4f1a:	4814      	ldr	r0, [pc, #80]	; (d4f6c <_Z14igh_mqtt_setupv+0x84>)
   d4f1c:	f004 f8ab 	bl	d9076 <_ZN6StringaSERKS_>
   d4f20:	4668      	mov	r0, sp
   d4f22:	f004 f831 	bl	d8f88 <_ZN6StringD1Ev>

        friend class StringPrintableHelper;

};

class StringSumHelper : public String
   d4f26:	a804      	add	r0, sp, #16
   d4f28:	f004 f82e 	bl	d8f88 <_ZN6StringD1Ev>
{
public:
	StringSumHelper(const String &s) : String(s) {}
	StringSumHelper(const char *p) : String(p) {}
   d4f2c:	4910      	ldr	r1, [pc, #64]	; (d4f70 <_Z14igh_mqtt_setupv+0x88>)
   d4f2e:	a804      	add	r0, sp, #16
   d4f30:	f004 f871 	bl	d9016 <_ZN6StringC1EPK19__FlashStringHelper>
   d4f34:	4668      	mov	r0, sp
   d4f36:	f003 fe21 	bl	d8b7c <spark_deviceID>
    outbound_topic = "55" + System.deviceID();
   d4f3a:	4669      	mov	r1, sp
   d4f3c:	a804      	add	r0, sp, #16
   d4f3e:	f004 f8d9 	bl	d90f4 <_ZplRK15StringSumHelperRK6String>
   d4f42:	4601      	mov	r1, r0
   d4f44:	480b      	ldr	r0, [pc, #44]	; (d4f74 <_Z14igh_mqtt_setupv+0x8c>)
   d4f46:	f004 f896 	bl	d9076 <_ZN6StringaSERKS_>
   d4f4a:	4668      	mov	r0, sp
   d4f4c:	f004 f81c 	bl	d8f88 <_ZN6StringD1Ev>

        friend class StringPrintableHelper;

};

class StringSumHelper : public String
   d4f50:	a804      	add	r0, sp, #16
   d4f52:	f004 f819 	bl	d8f88 <_ZN6StringD1Ev>
    client.connect( (const char *)device_name );
   d4f56:	6821      	ldr	r1, [r4, #0]
   d4f58:	4807      	ldr	r0, [pc, #28]	; (d4f78 <_Z14igh_mqtt_setupv+0x90>)
   d4f5a:	f001 f96b 	bl	d6234 <_ZN4MQTT7connectEPKc>

}
   d4f5e:	b008      	add	sp, #32
   d4f60:	bd10      	pop	{r4, pc}
   d4f62:	bf00      	nop
   d4f64:	2003d9ec 	.word	0x2003d9ec
   d4f68:	000dbd40 	.word	0x000dbd40
   d4f6c:	2003d9cc 	.word	0x2003d9cc
   d4f70:	000dbd43 	.word	0x000dbd43
   d4f74:	2003d9dc 	.word	0x2003d9dc
   d4f78:	2003d9fc 	.word	0x2003d9fc

000d4f7c <_Z16igh_mqtt_servicev>:

void igh_mqtt_service( void )
{
   d4f7c:	e92d 43f8 	stmdb	sp!, {r3, r4, r5, r6, r7, r8, r9, lr}
    if( true == mqtt_set_broker )
   d4f80:	4b34      	ldr	r3, [pc, #208]	; (d5054 <_Z16igh_mqtt_servicev+0xd8>)
   d4f82:	781a      	ldrb	r2, [r3, #0]
   d4f84:	2a01      	cmp	r2, #1
    client.connect( (const char *)device_name );

}

void igh_mqtt_service( void )
{
   d4f86:	af00      	add	r7, sp, #0
   d4f88:	461d      	mov	r5, r3
    if( true == mqtt_set_broker )
   d4f8a:	d139      	bne.n	d5000 <_Z16igh_mqtt_servicev+0x84>
    {
        uint8_t broker_len = 0;
        while( igh_current_system_settings.broker[broker_len] )
   d4f8c:	4932      	ldr	r1, [pc, #200]	; (d5058 <_Z16igh_mqtt_servicev+0xdc>)
        Serial.print("BROKER: "); Serial.print(new_broker);
        Serial.print(" PORT: "); Serial.println(igh_current_system_settings.broker_port);
        
        client.setBroker(new_broker, igh_current_system_settings.broker_port);

        mqtt_set_broker = false;
   d4f8e:	46e8      	mov	r8, sp
   d4f90:	2200      	movs	r2, #0
   d4f92:	1c50      	adds	r0, r2, #1
void igh_mqtt_service( void )
{
    if( true == mqtt_set_broker )
    {
        uint8_t broker_len = 0;
        while( igh_current_system_settings.broker[broker_len] )
   d4f94:	b2d2      	uxtb	r2, r2
   d4f96:	188b      	adds	r3, r1, r2
   d4f98:	4e2f      	ldr	r6, [pc, #188]	; (d5058 <_Z16igh_mqtt_servicev+0xdc>)
   d4f9a:	f893 4024 	ldrb.w	r4, [r3, #36]	; 0x24
   d4f9e:	b10c      	cbz	r4, d4fa4 <_Z16igh_mqtt_servicev+0x28>
   d4fa0:	4602      	mov	r2, r0
   d4fa2:	e7f6      	b.n	d4f92 <_Z16igh_mqtt_servicev+0x16>
        {
            if( '\0' == igh_current_system_settings.broker[broker_len] ) break;
            broker_len++;
        }
        
        char new_broker[broker_len + 1];
   d4fa4:	f102 0308 	add.w	r3, r2, #8
   d4fa8:	f023 0307 	bic.w	r3, r3, #7
   d4fac:	ebad 0d03 	sub.w	sp, sp, r3
        memcpy( new_broker, igh_current_system_settings.broker, sizeof(new_broker) );
   d4fb0:	3201      	adds	r2, #1
   d4fb2:	f106 0124 	add.w	r1, r6, #36	; 0x24
   d4fb6:	4668      	mov	r0, sp
   d4fb8:	f006 fa09 	bl	db3ce <memcpy>

        Serial.print("BROKER: "); Serial.print(new_broker);
   d4fbc:	f004 fc74 	bl	d98a8 <_Z16_fetch_usbserialv>
   d4fc0:	4926      	ldr	r1, [pc, #152]	; (d505c <_Z16igh_mqtt_servicev+0xe0>)
   d4fc2:	f004 f8d5 	bl	d9170 <_ZN5Print5printEPKc>
   d4fc6:	f004 fc6f 	bl	d98a8 <_Z16_fetch_usbserialv>
   d4fca:	4669      	mov	r1, sp
   d4fcc:	f004 f8d0 	bl	d9170 <_ZN5Print5printEPKc>
        Serial.print(" PORT: "); Serial.println(igh_current_system_settings.broker_port);
   d4fd0:	f004 fc6a 	bl	d98a8 <_Z16_fetch_usbserialv>
   d4fd4:	4922      	ldr	r1, [pc, #136]	; (d5060 <_Z16igh_mqtt_servicev+0xe4>)
   d4fd6:	f004 f8cb 	bl	d9170 <_ZN5Print5printEPKc>
   d4fda:	f004 fc65 	bl	d98a8 <_Z16_fetch_usbserialv>
            t = print('-');
            val = -n;
        } else {
            val = n;
        }
        return printNumber(val, base) + t;
   d4fde:	220a      	movs	r2, #10
   d4fe0:	f8b6 1044 	ldrh.w	r1, [r6, #68]	; 0x44
   d4fe4:	4681      	mov	r9, r0
   d4fe6:	f004 f8e0 	bl	d91aa <_ZN5Print11printNumberEmh>
    size_t println(char);
    template <typename T, std::enable_if_t<std::is_integral<T>::value || std::is_convertible<T, unsigned long long>::value ||
        std::is_convertible<T, long long>::value, int> = 0>
    size_t println(T b, int base = DEC) {
        size_t n = print(b, base);
        n += println();
   d4fea:	4648      	mov	r0, r9
   d4fec:	f004 f8c7 	bl	d917e <_ZN5Print7printlnEv>
        
        client.setBroker(new_broker, igh_current_system_settings.broker_port);
   d4ff0:	4669      	mov	r1, sp
   d4ff2:	f8b6 2044 	ldrh.w	r2, [r6, #68]	; 0x44
   d4ff6:	481b      	ldr	r0, [pc, #108]	; (d5064 <_Z16igh_mqtt_servicev+0xe8>)
   d4ff8:	f001 f832 	bl	d6060 <_ZN4MQTT9setBrokerEPct>

        mqtt_set_broker = false;
   d4ffc:	702c      	strb	r4, [r5, #0]
   d4ffe:	46c5      	mov	sp, r8
    }

    if (client.isConnected())
   d5000:	4818      	ldr	r0, [pc, #96]	; (d5064 <_Z16igh_mqtt_servicev+0xe8>)
   d5002:	4c19      	ldr	r4, [pc, #100]	; (d5068 <_Z16igh_mqtt_servicev+0xec>)
   d5004:	f001 f81e 	bl	d6044 <_ZN4MQTT11isConnectedEv>
   d5008:	b170      	cbz	r0, d5028 <_Z16igh_mqtt_servicev+0xac>
    {
        client.loop();
   d500a:	4816      	ldr	r0, [pc, #88]	; (d5064 <_Z16igh_mqtt_servicev+0xe8>)
        mqtt_connected = 1;
   d500c:	2501      	movs	r5, #1
        mqtt_set_broker = false;
    }

    if (client.isConnected())
    {
        client.loop();
   d500e:	f001 f9ce 	bl	d63ae <_ZN4MQTT4loopEv>
        mqtt_connected = 1;
   d5012:	7025      	strb	r5, [r4, #0]

        if( false == mqtt_subscribed )
   d5014:	4c15      	ldr	r4, [pc, #84]	; (d506c <_Z16igh_mqtt_servicev+0xf0>)
   d5016:	7823      	ldrb	r3, [r4, #0]
   d5018:	b9c3      	cbnz	r3, d504c <_Z16igh_mqtt_servicev+0xd0>
   d501a:	4b15      	ldr	r3, [pc, #84]	; (d5070 <_Z16igh_mqtt_servicev+0xf4>)
        {
            client.subscribe( (const char *)inbound_topic );
   d501c:	4811      	ldr	r0, [pc, #68]	; (d5064 <_Z16igh_mqtt_servicev+0xe8>)
   d501e:	6819      	ldr	r1, [r3, #0]
   d5020:	f001 faf1 	bl	d6606 <_ZN4MQTT9subscribeEPKc>
            mqtt_subscribed = true;
   d5024:	7025      	strb	r5, [r4, #0]
   d5026:	e011      	b.n	d504c <_Z16igh_mqtt_servicev+0xd0>
        }
    }
    else
    {
        /* try to connect */
        mqtt_connected = 0;
   d5028:	7020      	strb	r0, [r4, #0]

        if( (millis() - reconnect_interval) > 10000 )
   d502a:	4c12      	ldr	r4, [pc, #72]	; (d5074 <_Z16igh_mqtt_servicev+0xf8>)
   d502c:	f003 fb52 	bl	d86d4 <HAL_Timer_Get_Milli_Seconds>
   d5030:	6823      	ldr	r3, [r4, #0]
   d5032:	1ac0      	subs	r0, r0, r3
   d5034:	f242 7310 	movw	r3, #10000	; 0x2710
   d5038:	4298      	cmp	r0, r3
   d503a:	d907      	bls.n	d504c <_Z16igh_mqtt_servicev+0xd0>
   d503c:	4b0e      	ldr	r3, [pc, #56]	; (d5078 <_Z16igh_mqtt_servicev+0xfc>)
        {
            // try to reconnect only once every 10 seconds
            client.connect( (const char *)device_name );
   d503e:	4809      	ldr	r0, [pc, #36]	; (d5064 <_Z16igh_mqtt_servicev+0xe8>)
   d5040:	6819      	ldr	r1, [r3, #0]
   d5042:	f001 f8f7 	bl	d6234 <_ZN4MQTT7connectEPKc>
   d5046:	f003 fb45 	bl	d86d4 <HAL_Timer_Get_Milli_Seconds>
            reconnect_interval = millis();
   d504a:	6020      	str	r0, [r4, #0]
        }
    }
}
   d504c:	46bd      	mov	sp, r7
   d504e:	e8bd 83f8 	ldmia.w	sp!, {r3, r4, r5, r6, r7, r8, r9, pc}
   d5052:	bf00      	nop
   d5054:	2003d8d0 	.word	0x2003d8d0
   d5058:	2003e604 	.word	0x2003e604
   d505c:	000dbcad 	.word	0x000dbcad
   d5060:	000dbcc1 	.word	0x000dbcc1
   d5064:	2003d9fc 	.word	0x2003d9fc
   d5068:	2003da55 	.word	0x2003da55
   d506c:	2003da54 	.word	0x2003da54
   d5070:	2003d9cc 	.word	0x2003d9cc
   d5074:	2003d9c8 	.word	0x2003d9c8
   d5078:	2003d9ec 	.word	0x2003d9ec

000d507c <_Z21igh_mqtt_publish_dataPhj>:

bool igh_mqtt_publish_data( uint8_t *payload, unsigned int len )
{
   d507c:	b570      	push	{r4, r5, r6, lr}
   d507e:	4605      	mov	r5, r0
    bool ret = false;
    if (client.isConnected()) {
   d5080:	480d      	ldr	r0, [pc, #52]	; (d50b8 <_Z21igh_mqtt_publish_dataPhj+0x3c>)
        }
    }
}

bool igh_mqtt_publish_data( uint8_t *payload, unsigned int len )
{
   d5082:	460e      	mov	r6, r1
    bool ret = false;
    if (client.isConnected()) {
   d5084:	f000 ffde 	bl	d6044 <_ZN4MQTT11isConnectedEv>
   d5088:	4604      	mov	r4, r0
   d508a:	b168      	cbz	r0, d50a8 <_Z21igh_mqtt_publish_dataPhj+0x2c>
        client.publish( (const char *)outbound_topic, 
                        (const uint8_t*) payload, len);
   d508c:	490b      	ldr	r1, [pc, #44]	; (d50bc <_Z21igh_mqtt_publish_dataPhj+0x40>)
   d508e:	480a      	ldr	r0, [pc, #40]	; (d50b8 <_Z21igh_mqtt_publish_dataPhj+0x3c>)
   d5090:	6809      	ldr	r1, [r1, #0]
   d5092:	4633      	mov	r3, r6
   d5094:	462a      	mov	r2, r5
   d5096:	f001 f94d 	bl	d6334 <_ZN4MQTT7publishEPKcPKhj>
   d509a:	4b09      	ldr	r3, [pc, #36]	; (d50c0 <_Z21igh_mqtt_publish_dataPhj+0x44>)
        client.subscribe( (const char *)inbound_topic );
   d509c:	4806      	ldr	r0, [pc, #24]	; (d50b8 <_Z21igh_mqtt_publish_dataPhj+0x3c>)
   d509e:	6819      	ldr	r1, [r3, #0]
   d50a0:	f001 fab1 	bl	d6606 <_ZN4MQTT9subscribeEPKc>
        ret = true;
   d50a4:	2001      	movs	r0, #1
   d50a6:	bd70      	pop	{r4, r5, r6, pc}
    }
    else
    {
        Serial.println("PUBLISH FAILED");
   d50a8:	f004 fbfe 	bl	d98a8 <_Z16_fetch_usbserialv>
   d50ac:	4905      	ldr	r1, [pc, #20]	; (d50c4 <_Z21igh_mqtt_publish_dataPhj+0x48>)
   d50ae:	f004 f872 	bl	d9196 <_ZN5Print7printlnEPKc>
    }
}

bool igh_mqtt_publish_data( uint8_t *payload, unsigned int len )
{
    bool ret = false;
   d50b2:	4620      	mov	r0, r4
    else
    {
        Serial.println("PUBLISH FAILED");
    }
    return ret;
}
   d50b4:	bd70      	pop	{r4, r5, r6, pc}
   d50b6:	bf00      	nop
   d50b8:	2003d9fc 	.word	0x2003d9fc
   d50bc:	2003d9dc 	.word	0x2003d9dc
   d50c0:	2003d9cc 	.word	0x2003d9cc
   d50c4:	000dbd46 	.word	0x000dbd46

000d50c8 <_GLOBAL__sub_I_device_name>:
   d50c8:	b5f8      	push	{r3, r4, r5, r6, r7, lr}
#include "include/igh_settings.h"
#include "include/igh_default_settings.h"
#include "include/igh_message.h"

/* MQTT variables */
String device_name;
   d50ca:	4e19      	ldr	r6, [pc, #100]	; (d5130 <_GLOBAL__sub_I_device_name+0x68>)
   d50cc:	4f19      	ldr	r7, [pc, #100]	; (d5134 <_GLOBAL__sub_I_device_name+0x6c>)
   d50ce:	4c1a      	ldr	r4, [pc, #104]	; (d5138 <_GLOBAL__sub_I_device_name+0x70>)
   d50d0:	4d1a      	ldr	r5, [pc, #104]	; (d513c <_GLOBAL__sub_I_device_name+0x74>)
   d50d2:	f003 fa37 	bl	d8544 <HAL_Pin_Map>
   d50d6:	4631      	mov	r1, r6
   d50d8:	4638      	mov	r0, r7
   d50da:	f003 ff9c 	bl	d9016 <_ZN6StringC1EPK19__FlashStringHelper>
   d50de:	4638      	mov	r0, r7
String inbound_topic;
   d50e0:	4f17      	ldr	r7, [pc, #92]	; (d5140 <_GLOBAL__sub_I_device_name+0x78>)
#include "include/igh_settings.h"
#include "include/igh_default_settings.h"
#include "include/igh_message.h"

/* MQTT variables */
String device_name;
   d50e2:	4622      	mov	r2, r4
   d50e4:	4629      	mov	r1, r5
   d50e6:	f005 fad9 	bl	da69c <__aeabi_atexit>
String inbound_topic;
   d50ea:	4631      	mov	r1, r6
   d50ec:	4638      	mov	r0, r7
   d50ee:	f003 ff92 	bl	d9016 <_ZN6StringC1EPK19__FlashStringHelper>
   d50f2:	4638      	mov	r0, r7
String outbound_topic;
   d50f4:	4f13      	ldr	r7, [pc, #76]	; (d5144 <_GLOBAL__sub_I_device_name+0x7c>)
#include "include/igh_default_settings.h"
#include "include/igh_message.h"

/* MQTT variables */
String device_name;
String inbound_topic;
   d50f6:	4622      	mov	r2, r4
   d50f8:	4629      	mov	r1, r5
   d50fa:	f005 facf 	bl	da69c <__aeabi_atexit>
String outbound_topic;
   d50fe:	4631      	mov	r1, r6
   d5100:	4638      	mov	r0, r7
   d5102:	f003 ff88 	bl	d9016 <_ZN6StringC1EPK19__FlashStringHelper>
   d5106:	4629      	mov	r1, r5
bool mqtt_subscribed = false;
uint8_t mqtt_connected = 0;

/* mqtt functions */
void mqtt_callback(char* topic, byte* payload, unsigned int length);
MQTT client(DEFAULT_MQTT_BROKER, DEFAULT_MQTT_BROKER_PORT, mqtt_callback);
   d5108:	4d0f      	ldr	r5, [pc, #60]	; (d5148 <_GLOBAL__sub_I_device_name+0x80>)
#include "include/igh_message.h"

/* MQTT variables */
String device_name;
String inbound_topic;
String outbound_topic;
   d510a:	4622      	mov	r2, r4
   d510c:	4638      	mov	r0, r7
   d510e:	f005 fac5 	bl	da69c <__aeabi_atexit>
bool mqtt_subscribed = false;
uint8_t mqtt_connected = 0;

/* mqtt functions */
void mqtt_callback(char* topic, byte* payload, unsigned int length);
MQTT client(DEFAULT_MQTT_BROKER, DEFAULT_MQTT_BROKER_PORT, mqtt_callback);
   d5112:	4b0e      	ldr	r3, [pc, #56]	; (d514c <_GLOBAL__sub_I_device_name+0x84>)
   d5114:	490e      	ldr	r1, [pc, #56]	; (d5150 <_GLOBAL__sub_I_device_name+0x88>)
   d5116:	f240 725b 	movw	r2, #1883	; 0x75b
   d511a:	4628      	mov	r0, r5
   d511c:	f000 feaa 	bl	d5e74 <_ZN4MQTTC1EPctPFvS0_PhjE>
   d5120:	4622      	mov	r2, r4
   d5122:	4628      	mov	r0, r5
   d5124:	490b      	ldr	r1, [pc, #44]	; (d5154 <_GLOBAL__sub_I_device_name+0x8c>)
    else
    {
        Serial.println("PUBLISH FAILED");
    }
    return ret;
}
   d5126:	e8bd 40f8 	ldmia.w	sp!, {r3, r4, r5, r6, r7, lr}
bool mqtt_subscribed = false;
uint8_t mqtt_connected = 0;

/* mqtt functions */
void mqtt_callback(char* topic, byte* payload, unsigned int length);
MQTT client(DEFAULT_MQTT_BROKER, DEFAULT_MQTT_BROKER_PORT, mqtt_callback);
   d512a:	f005 bab7 	b.w	da69c <__aeabi_atexit>
   d512e:	bf00      	nop
   d5130:	000dc058 	.word	0x000dc058
   d5134:	2003d9ec 	.word	0x2003d9ec
   d5138:	2003d9bc 	.word	0x2003d9bc
   d513c:	000d8f89 	.word	0x000d8f89
   d5140:	2003d9cc 	.word	0x2003d9cc
   d5144:	2003d9dc 	.word	0x2003d9dc
   d5148:	2003d9fc 	.word	0x2003d9fc
   d514c:	000d4e65 	.word	0x000d4e65
   d5150:	000dbd55 	.word	0x000dbd55
   d5154:	000d660d 	.word	0x000d660d

000d5158 <_GLOBAL__sub_I_test_valve_flag>:
        igh_append_test_status(ret);
        test_rfm69_flag = false;
    }

    return ret;
   d5158:	b510      	push	{r4, lr}
static void print_cmd_options(void);
static void igh_append_test_status(uint8_t _status);

uint8_t test_rfm69_flag = 0;

String IGH_ID;
   d515a:	4c07      	ldr	r4, [pc, #28]	; (d5178 <_GLOBAL__sub_I_test_valve_flag+0x20>)
   d515c:	f003 f9f2 	bl	d8544 <HAL_Pin_Map>
   d5160:	4906      	ldr	r1, [pc, #24]	; (d517c <_GLOBAL__sub_I_test_valve_flag+0x24>)
   d5162:	4620      	mov	r0, r4
   d5164:	f003 ff57 	bl	d9016 <_ZN6StringC1EPK19__FlashStringHelper>
   d5168:	4620      	mov	r0, r4
   d516a:	4a05      	ldr	r2, [pc, #20]	; (d5180 <_GLOBAL__sub_I_test_valve_flag+0x28>)
   d516c:	4905      	ldr	r1, [pc, #20]	; (d5184 <_GLOBAL__sub_I_test_valve_flag+0x2c>)
        igh_append_test_status(ret);
        test_rfm69_flag = false;
    }

    return ret;
   d516e:	e8bd 4010 	ldmia.w	sp!, {r4, lr}
static void print_cmd_options(void);
static void igh_append_test_status(uint8_t _status);

uint8_t test_rfm69_flag = 0;

String IGH_ID;
   d5172:	f005 ba93 	b.w	da69c <__aeabi_atexit>
   d5176:	bf00      	nop
   d5178:	2003da58 	.word	0x2003da58
   d517c:	000dc058 	.word	0x000dc058
   d5180:	2003d9bc 	.word	0x2003d9bc
   d5184:	000d8f89 	.word	0x000d8f89

000d5188 <_Z31igh_eeprom_read_system_settingsP15system_settings>:
 * \brief Gets system settings from eeprom emulator
 * \param running_system_settings_buffer: buffer to store settings in
 * \return true or false based on success of read
 */
uint8_t igh_eeprom_read_system_settings(system_settings * running_system_settings_buffer)
{
   d5188:	b510      	push	{r4, lr}
   d518a:	b092      	sub	sp, #72	; 0x48
  system_settings local_buffer;
  memset(&local_buffer, 0, sizeof(local_buffer));
   d518c:	2248      	movs	r2, #72	; 0x48
   d518e:	2100      	movs	r1, #0
 * \brief Gets system settings from eeprom emulator
 * \param running_system_settings_buffer: buffer to store settings in
 * \return true or false based on success of read
 */
uint8_t igh_eeprom_read_system_settings(system_settings * running_system_settings_buffer)
{
   d5190:	4604      	mov	r4, r0
  system_settings local_buffer;
  memset(&local_buffer, 0, sizeof(local_buffer));
   d5192:	4668      	mov	r0, sp
   d5194:	f006 f926 	bl	db3e4 <memset>
  EEPROM.get(SYSTEM_SETTINGS_ADDRESS, local_buffer);
   d5198:	f005 f9ec 	bl	da574 <_Z21__fetch_global_EEPROMv>
    uint16_t length()                    { return HAL_EEPROM_Length(); }

    //Functionality to 'get' and 'put' objects to and from EEPROM.
    template <typename T> T &get( int idx, T &t )
    {
        HAL_EEPROM_Get(idx, &t, sizeof(T));
   d519c:	2248      	movs	r2, #72	; 0x48
   d519e:	4669      	mov	r1, sp
   d51a0:	2000      	movs	r0, #0
   d51a2:	f003 faaf 	bl	d8704 <HAL_EEPROM_Get>

  uint8_t checksum = igh_settings_calculate_checksum(&local_buffer, sizeof(local_buffer));
   d51a6:	2148      	movs	r1, #72	; 0x48
   d51a8:	4668      	mov	r0, sp
   d51aa:	f7ff f94d 	bl	d4448 <igh_settings_calculate_checksum>

  if( checksum != local_buffer.checksum)
   d51ae:	f89d 3000 	ldrb.w	r3, [sp]
   d51b2:	4283      	cmp	r3, r0
   d51b4:	d106      	bne.n	d51c4 <_Z31igh_eeprom_read_system_settingsP15system_settings+0x3c>
  {
    return 0;
  }

  *running_system_settings_buffer = local_buffer;
   d51b6:	2248      	movs	r2, #72	; 0x48
   d51b8:	4669      	mov	r1, sp
   d51ba:	4620      	mov	r0, r4
   d51bc:	f006 f907 	bl	db3ce <memcpy>
  return 1;
   d51c0:	2001      	movs	r0, #1
   d51c2:	e000      	b.n	d51c6 <_Z31igh_eeprom_read_system_settingsP15system_settings+0x3e>

  uint8_t checksum = igh_settings_calculate_checksum(&local_buffer, sizeof(local_buffer));

  if( checksum != local_buffer.checksum)
  {
    return 0;
   d51c4:	2000      	movs	r0, #0
  }

  *running_system_settings_buffer = local_buffer;
  return 1;

}
   d51c6:	b012      	add	sp, #72	; 0x48
   d51c8:	bd10      	pop	{r4, pc}
	...

000d51cc <_Z15igh_eeprom_initv>:
#define SYSTEM_THRESHOLDS_ADDRESS   (int)0x0200
#define SYSTEM_ERRORS_ADDRESS       (int)0x0400


void igh_eeprom_init( void )
{
   d51cc:	b510      	push	{r4, lr}
   d51ce:	b092      	sub	sp, #72	; 0x48
  system_settings settings_in_memory;
  bool settings_read_successfully = igh_eeprom_read_system_settings(&settings_in_memory);
   d51d0:	4668      	mov	r0, sp
   d51d2:	f7ff ffd9 	bl	d5188 <_Z31igh_eeprom_read_system_settingsP15system_settings>
  uint8_t valid_checksum = igh_settings_calculate_checksum( &settings_in_memory, sizeof(settings_in_memory) );
   d51d6:	2148      	movs	r1, #72	; 0x48


void igh_eeprom_init( void )
{
  system_settings settings_in_memory;
  bool settings_read_successfully = igh_eeprom_read_system_settings(&settings_in_memory);
   d51d8:	4604      	mov	r4, r0
  uint8_t valid_checksum = igh_settings_calculate_checksum( &settings_in_memory, sizeof(settings_in_memory) );
   d51da:	4668      	mov	r0, sp
   d51dc:	f7ff f934 	bl	d4448 <igh_settings_calculate_checksum>

  if( false == settings_read_successfully ||
   d51e0:	b124      	cbz	r4, d51ec <_Z15igh_eeprom_initv+0x20>
   d51e2:	f89d 3000 	ldrb.w	r3, [sp]
   d51e6:	4283      	cmp	r3, r0
   d51e8:	d100      	bne.n	d51ec <_Z15igh_eeprom_initv+0x20>
      (settings_in_memory.checksum != valid_checksum) ||
   d51ea:	b93b      	cbnz	r3, d51fc <_Z15igh_eeprom_initv+0x30>
      ( 0 == settings_in_memory.checksum) )
  {
    // if we can't get valid settings from memory at all, use default settings
    Serial.println("USING DEFAULT SETTINGS");
   d51ec:	f004 fb5c 	bl	d98a8 <_Z16_fetch_usbserialv>
   d51f0:	4908      	ldr	r1, [pc, #32]	; (d5214 <_Z15igh_eeprom_initv+0x48>)
   d51f2:	f003 ffd0 	bl	d9196 <_ZN5Print7printlnEPKc>
    igh_settings_reset_system_to_default();
   d51f6:	f7ff f969 	bl	d44cc <igh_settings_reset_system_to_default>
   d51fa:	e009      	b.n	d5210 <_Z15igh_eeprom_initv+0x44>
  }
  else
  {
    Serial.println("USING SETTINGS FROM MEMORY");
   d51fc:	f004 fb54 	bl	d98a8 <_Z16_fetch_usbserialv>
   d5200:	4905      	ldr	r1, [pc, #20]	; (d5218 <_Z15igh_eeprom_initv+0x4c>)
   d5202:	f003 ffc8 	bl	d9196 <_ZN5Print7printlnEPKc>
    igh_current_system_settings = settings_in_memory;
   d5206:	2248      	movs	r2, #72	; 0x48
   d5208:	4669      	mov	r1, sp
   d520a:	4804      	ldr	r0, [pc, #16]	; (d521c <_Z15igh_eeprom_initv+0x50>)
   d520c:	f006 f8df 	bl	db3ce <memcpy>
  }
}
   d5210:	b012      	add	sp, #72	; 0x48
   d5212:	bd10      	pop	{r4, pc}
   d5214:	000dbdf6 	.word	0x000dbdf6
   d5218:	000dbe0d 	.word	0x000dbe0d
   d521c:	2003e604 	.word	0x2003e604

000d5220 <_Z31igh_eeprom_save_system_settingsP15system_settings>:
 * \brief Save system settings  to eeprom emulator
 * \param settings_to_save: pointer to struct to save
 * \return true or false based on write success
 */
uint8_t igh_eeprom_save_system_settings(system_settings * settings_to_save)
{
   d5220:	b510      	push	{r4, lr}
   d5222:	4604      	mov	r4, r0
   d5224:	b092      	sub	sp, #72	; 0x48
  system_settings local_buffer;
  // save the data
  EEPROM.put(SYSTEM_SETTINGS_ADDRESS, *settings_to_save);
   d5226:	f005 f9a5 	bl	da574 <_Z21__fetch_global_EEPROMv>
        return t;
    }

    template <typename T> const T &put( int idx, const T &t )
    {
        HAL_EEPROM_Put(idx, &t, sizeof(T));
   d522a:	2248      	movs	r2, #72	; 0x48
   d522c:	4621      	mov	r1, r4
   d522e:	2000      	movs	r0, #0
   d5230:	f003 fa70 	bl	d8714 <HAL_EEPROM_Put>
  // check if data is saved
  igh_eeprom_read_system_settings(&local_buffer);
   d5234:	4668      	mov	r0, sp
   d5236:	f7ff ffa7 	bl	d5188 <_Z31igh_eeprom_read_system_settingsP15system_settings>

  if( local_buffer.checksum != (settings_to_save->checksum))
  {
    return 0;
   d523a:	f89d 0000 	ldrb.w	r0, [sp]
   d523e:	7823      	ldrb	r3, [r4, #0]
  }

  return 1;
}
   d5240:	1ac3      	subs	r3, r0, r3
   d5242:	4258      	negs	r0, r3
   d5244:	4158      	adcs	r0, r3
   d5246:	b012      	add	sp, #72	; 0x48
   d5248:	bd10      	pop	{r4, pc}

000d524a <_GLOBAL__sub_I__Z15igh_eeprom_initv>:
   d524a:	f003 b97b 	b.w	d8544 <HAL_Pin_Map>
	...

000d5250 <_Z30igh_app_water_counter_callbackv>:
    water_flow_timer.start();
}

void igh_app_water_counter_callback( void )
{
    flow_meter_pulses++;
   d5250:	4a02      	ldr	r2, [pc, #8]	; (d525c <_Z30igh_app_water_counter_callbackv+0xc>)
   d5252:	6813      	ldr	r3, [r2, #0]
   d5254:	3301      	adds	r3, #1
   d5256:	6013      	str	r3, [r2, #0]
   d5258:	4770      	bx	lr
   d525a:	bf00      	nop
   d525c:	2003da84 	.word	0x2003da84

000d5260 <_ZNSt17_Function_handlerIFvvEPS0_E9_M_invokeERKSt9_Any_data>:

     public:
      static void
      _M_invoke(const _Any_data& __functor, _ArgTypes&&... __args)
      {
	(*_Base::_M_get_pointer(__functor))(
   d5260:	6803      	ldr	r3, [r0, #0]
   d5262:	4718      	bx	r3

000d5264 <_ZNSt14_Function_base13_Base_managerIPFvvEE10_M_managerERSt9_Any_dataRKS4_St18_Manager_operation>:
      public:
	static bool
	_M_manager(_Any_data& __dest, const _Any_data& __source,
		   _Manager_operation __op)
	{
	  switch (__op)
   d5264:	2a01      	cmp	r2, #1
   d5266:	d002      	beq.n	d526e <_ZNSt14_Function_base13_Base_managerIPFvvEE10_M_managerERSt9_Any_dataRKS4_St18_Manager_operation+0xa>
   d5268:	2a02      	cmp	r2, #2
   d526a:	d002      	beq.n	d5272 <_ZNSt14_Function_base13_Base_managerIPFvvEE10_M_managerERSt9_Any_dataRKS4_St18_Manager_operation+0xe>
   d526c:	e004      	b.n	d5278 <_ZNSt14_Function_base13_Base_managerIPFvvEE10_M_managerERSt9_Any_dataRKS4_St18_Manager_operation+0x14>
	    case __get_type_info:
	      __dest._M_access<const type_info*>() = &typeid(_Functor);
	      break;
#endif
	    case __get_functor_ptr:
	      __dest._M_access<_Functor*>() = _M_get_pointer(__source);
   d526e:	6001      	str	r1, [r0, #0]
	      break;
   d5270:	e002      	b.n	d5278 <_ZNSt14_Function_base13_Base_managerIPFvvEE10_M_managerERSt9_Any_dataRKS4_St18_Manager_operation+0x14>
	// Clone a location-invariant function object that fits within
	// an _Any_data structure.
	static void
	_M_clone(_Any_data& __dest, const _Any_data& __source, true_type)
	{
	  new (__dest._M_access()) _Functor(__source._M_access<_Functor>());
   d5272:	680b      	ldr	r3, [r1, #0]
   d5274:	b100      	cbz	r0, d5278 <_ZNSt14_Function_base13_Base_managerIPFvvEE10_M_managerERSt9_Any_dataRKS4_St18_Manager_operation+0x14>
   d5276:	6003      	str	r3, [r0, #0]
	    case __destroy_functor:
	      _M_destroy(__dest, _Local_storage());
	      break;
	    }
	  return false;
	}
   d5278:	2000      	movs	r0, #0
   d527a:	4770      	bx	lr

000d527c <_ZN5Timer7timeoutEv>:
     * Subclasses can either provide a callback function, or override
     * this timeout method.
     */
    virtual void timeout()
    {
        if (callback) {
   d527c:	6943      	ldr	r3, [r0, #20]
   d527e:	b113      	cbz	r3, d5286 <_ZN5Timer7timeoutEv+0xa>
    function<_Res(_ArgTypes...)>::
    operator()(_ArgTypes... __args) const
    {
      if (_M_empty())
	__throw_bad_function_call();
      return _M_invoker(_M_functor, std::forward<_ArgTypes>(__args)...);
   d5280:	6983      	ldr	r3, [r0, #24]
   d5282:	300c      	adds	r0, #12
   d5284:	4718      	bx	r3
   d5286:	4770      	bx	lr

000d5288 <_ZN5Timer12invoke_timerEPv>:
private:
	volatile bool running;
    os_timer_t handle;
    timer_callback_fn callback;

    static void invoke_timer(os_timer_t timer)
   d5288:	b513      	push	{r0, r1, r4, lr}
typedef std::function<os_thread_return_t(void)> wiring_thread_fn_t;

class SingleThreadedSection {
public:
    SingleThreadedSection() {
        os_thread_scheduling(false, NULL);
   d528a:	2100      	movs	r1, #0
   d528c:	4604      	mov	r4, r0
   d528e:	4608      	mov	r0, r1
   d5290:	f003 fa70 	bl	d8774 <os_thread_scheduling>
    {
        Timer* t = nullptr;
        SINGLE_THREADED_BLOCK() {
            void* id = nullptr;
   d5294:	a902      	add	r1, sp, #8
   d5296:	2300      	movs	r3, #0
            os_timer_get_id(timer, &id);
   d5298:	4620      	mov	r0, r4

    static void invoke_timer(os_timer_t timer)
    {
        Timer* t = nullptr;
        SINGLE_THREADED_BLOCK() {
            void* id = nullptr;
   d529a:	f841 3d04 	str.w	r3, [r1, #-4]!
            os_timer_get_id(timer, &id);
   d529e:	f003 fa81 	bl	d87a4 <os_timer_get_id>
            t = static_cast<Timer*>(id);
   d52a2:	9c01      	ldr	r4, [sp, #4]
            if (t) {
   d52a4:	b10c      	cbz	r4, d52aa <_ZN5Timer12invoke_timerEPv+0x22>
                t->running = true;
   d52a6:	2301      	movs	r3, #1
   d52a8:	7123      	strb	r3, [r4, #4]
    }

    ~SingleThreadedSection() {
        os_thread_scheduling(true, NULL);
   d52aa:	2100      	movs	r1, #0
   d52ac:	2001      	movs	r0, #1
   d52ae:	f003 fa61 	bl	d8774 <os_thread_scheduling>
            }
        }
        if (t) {
   d52b2:	b12c      	cbz	r4, d52c0 <_ZN5Timer12invoke_timerEPv+0x38>
            t->timeout();
   d52b4:	6823      	ldr	r3, [r4, #0]
   d52b6:	4620      	mov	r0, r4
   d52b8:	689b      	ldr	r3, [r3, #8]
   d52ba:	4798      	blx	r3
            t->running = false;
   d52bc:	2300      	movs	r3, #0
   d52be:	7123      	strb	r3, [r4, #4]
        }
    }
   d52c0:	b002      	add	sp, #8
   d52c2:	bd10      	pop	{r4, pc}

000d52c4 <_ZNSt14_Function_baseD1Ev>:
	}
      };

    _Function_base() : _M_manager(nullptr) { }

    ~_Function_base()
   d52c4:	b510      	push	{r4, lr}
    {
      if (_M_manager)
   d52c6:	6883      	ldr	r3, [r0, #8]
	}
      };

    _Function_base() : _M_manager(nullptr) { }

    ~_Function_base()
   d52c8:	4604      	mov	r4, r0
    {
      if (_M_manager)
   d52ca:	b113      	cbz	r3, d52d2 <_ZNSt14_Function_baseD1Ev+0xe>
	_M_manager(_M_functor, _M_functor, __destroy_functor);
   d52cc:	2203      	movs	r2, #3
   d52ce:	4601      	mov	r1, r0
   d52d0:	4798      	blx	r3
    }
   d52d2:	4620      	mov	r0, r4
   d52d4:	bd10      	pop	{r4, pc}
	...

000d52d8 <_ZN5TimerC1EjSt8functionIFvvEEb>:
{
public:

    typedef std::function<void(void)> timer_callback_fn;

    Timer(unsigned period, timer_callback_fn callback_, bool one_shot=false) : running(false), handle(nullptr), callback(std::move(callback_)) {
   d52d8:	b5f0      	push	{r4, r5, r6, r7, lr}
   d52da:	2500      	movs	r5, #0
   d52dc:	468e      	mov	lr, r1
   d52de:	4915      	ldr	r1, [pc, #84]	; (d5334 <_ZN5TimerC1EjSt8functionIFvvEEb+0x5c>)
   d52e0:	7105      	strb	r5, [r0, #4]
   d52e2:	6085      	str	r5, [r0, #8]
	{
	  _Base::_M_init_functor(__functor, std::__addressof(__f.get()));
	}
      };

    _Function_base() : _M_manager(nullptr) { }
   d52e4:	6145      	str	r5, [r0, #20]
   d52e6:	6001      	str	r1, [r0, #0]
   d52e8:	4604      	mov	r4, r0
#endif
    {
      // concept requirements
      __glibcxx_function_requires(_SGIAssignableConcept<_Tp>)

      _Tp __tmp = _GLIBCXX_MOVE(__a);
   d52ea:	e892 0003 	ldmia.w	r2, {r0, r1}
   d52ee:	b085      	sub	sp, #20
   d52f0:	af02      	add	r7, sp, #8
      __a = _GLIBCXX_MOVE(__b);
   d52f2:	f104 060c 	add.w	r6, r4, #12
#endif
    {
      // concept requirements
      __glibcxx_function_requires(_SGIAssignableConcept<_Tp>)

      _Tp __tmp = _GLIBCXX_MOVE(__a);
   d52f6:	e887 0003 	stmia.w	r7, {r0, r1}
      __a = _GLIBCXX_MOVE(__b);
   d52fa:	e896 0003 	ldmia.w	r6, {r0, r1}
   d52fe:	e882 0003 	stmia.w	r2, {r0, r1}
      __b = _GLIBCXX_MOVE(__tmp);
   d5302:	e897 0003 	ldmia.w	r7, {r0, r1}
   d5306:	e886 0003 	stmia.w	r6, {r0, r1}
#endif
    {
      // concept requirements
      __glibcxx_function_requires(_SGIAssignableConcept<_Tp>)

      _Tp __tmp = _GLIBCXX_MOVE(__a);
   d530a:	6891      	ldr	r1, [r2, #8]
      __a = _GLIBCXX_MOVE(__b);
   d530c:	6960      	ldr	r0, [r4, #20]
   d530e:	6090      	str	r0, [r2, #8]
      __b = _GLIBCXX_MOVE(__tmp);
   d5310:	6161      	str	r1, [r4, #20]
#endif
    {
      // concept requirements
      __glibcxx_function_requires(_SGIAssignableConcept<_Tp>)

      _Tp __tmp = _GLIBCXX_MOVE(__a);
   d5312:	68d1      	ldr	r1, [r2, #12]
      __a = _GLIBCXX_MOVE(__b);
   d5314:	69a0      	ldr	r0, [r4, #24]
   d5316:	60d0      	str	r0, [r2, #12]
      __b = _GLIBCXX_MOVE(__tmp);
   d5318:	61a1      	str	r1, [r4, #24]
        os_timer_create(&handle, period, invoke_timer, this, one_shot, nullptr);
   d531a:	e88d 0028 	stmia.w	sp, {r3, r5}
   d531e:	4a06      	ldr	r2, [pc, #24]	; (d5338 <_ZN5TimerC1EjSt8functionIFvvEEb+0x60>)
   d5320:	4623      	mov	r3, r4
   d5322:	4671      	mov	r1, lr
   d5324:	f104 0008 	add.w	r0, r4, #8
   d5328:	f003 fa2c 	bl	d8784 <os_timer_create>
    }
   d532c:	4620      	mov	r0, r4
   d532e:	b005      	add	sp, #20
   d5330:	bdf0      	pop	{r4, r5, r6, r7, pc}
   d5332:	bf00      	nop
   d5334:	000dbe40 	.word	0x000dbe40
   d5338:	000d5289 	.word	0x000d5289

000d533c <_ZN5Timer5_stopEjb>:
    {
        stop(fromISR);
        return handle ? !os_timer_change(handle, OS_TIMER_CHANGE_START, fromISR, 0, block, nullptr) : false;
    }

    bool _stop(unsigned block, bool fromISR=false)
   d533c:	b507      	push	{r0, r1, r2, lr}
    {
        return handle ? !os_timer_change(handle, OS_TIMER_CHANGE_STOP, fromISR, 0, block, nullptr) : false;
   d533e:	6880      	ldr	r0, [r0, #8]
   d5340:	2300      	movs	r3, #0
   d5342:	b138      	cbz	r0, d5354 <_ZN5Timer5_stopEjb+0x18>
   d5344:	e88d 000a 	stmia.w	sp, {r1, r3}
   d5348:	2102      	movs	r1, #2
   d534a:	f003 fa33 	bl	d87b4 <os_timer_change>
   d534e:	fab0 f080 	clz	r0, r0
   d5352:	0940      	lsrs	r0, r0, #5
    }
   d5354:	b003      	add	sp, #12
   d5356:	f85d fb04 	ldr.w	pc, [sp], #4
	...

000d535c <_ZN5TimerD1Ev>:
    template <typename T>
    Timer(unsigned period, void (T::*handler)(), T& instance, bool one_shot=false) : Timer(period, std::bind(handler, &instance), one_shot)
    {
    }

    virtual ~Timer() {
   d535c:	b538      	push	{r3, r4, r5, lr}
   d535e:	4b10      	ldr	r3, [pc, #64]	; (d53a0 <_ZN5TimerD1Ev+0x44>)
   d5360:	6003      	str	r3, [r0, #0]
    }
    bool _changePeriod(std::chrono::milliseconds ms, unsigned block, bool fromISR=false) { return _changePeriod(ms.count(), block, fromISR); }

    void dispose()
    {
        if (handle) {
   d5362:	6883      	ldr	r3, [r0, #8]
    template <typename T>
    Timer(unsigned period, void (T::*handler)(), T& instance, bool one_shot=false) : Timer(period, std::bind(handler, &instance), one_shot)
    {
    }

    virtual ~Timer() {
   d5364:	4604      	mov	r4, r0
    }
    bool _changePeriod(std::chrono::milliseconds ms, unsigned block, bool fromISR=false) { return _changePeriod(ms.count(), block, fromISR); }

    void dispose()
    {
        if (handle) {
   d5366:	b1a3      	cbz	r3, d5392 <_ZN5TimerD1Ev+0x36>
    inline bool changePeriodFromISR(std::chrono::milliseconds ms) { return changePeriodFromISR(ms.count()); }

    static const unsigned default_wait = 0x7FFFFFFF;

    bool start(unsigned block=default_wait) { return _start(block, false); }
    bool stop(unsigned block=default_wait) { return _stop(block, false); }
   d5368:	f06f 4100 	mvn.w	r1, #2147483648	; 0x80000000
   d536c:	2200      	movs	r2, #0
   d536e:	f7ff ffe5 	bl	d533c <_ZN5Timer5_stopEjb>
    {
        if (handle) {
            stop();
            // Make sure the callback will not be called after this object is destroyed.
            // TODO: Consider assigning a higher priority to the timer thread
            os_timer_set_id(handle, nullptr);
   d5372:	2100      	movs	r1, #0
   d5374:	68a0      	ldr	r0, [r4, #8]
   d5376:	f003 fa35 	bl	d87e4 <os_timer_set_id>
            while (running) {
   d537a:	7923      	ldrb	r3, [r4, #4]
   d537c:	f003 05ff 	and.w	r5, r3, #255	; 0xff
   d5380:	b113      	cbz	r3, d5388 <_ZN5TimerD1Ev+0x2c>
                os_thread_yield();
   d5382:	f003 f9df 	bl	d8744 <os_thread_yield>
   d5386:	e7f8      	b.n	d537a <_ZN5TimerD1Ev+0x1e>
            }
            os_timer_destroy(handle, nullptr);
   d5388:	4629      	mov	r1, r5
   d538a:	68a0      	ldr	r0, [r4, #8]
   d538c:	f003 fa02 	bl	d8794 <os_timer_destroy>
            handle = nullptr;
   d5390:	60a5      	str	r5, [r4, #8]
   *  @ingroup functors
   *
   *  Polymorphic function wrapper.
   */
  template<typename _Res, typename... _ArgTypes>
    class function<_Res(_ArgTypes...)>
   d5392:	f104 000c 	add.w	r0, r4, #12
   d5396:	f7ff ff95 	bl	d52c4 <_ZNSt14_Function_baseD1Ev>

    virtual ~Timer() {
    		// when the timer is calling the std::function, we cannot dispose of it until the function completes.
		// the call has exited.
		dispose();
    }
   d539a:	4620      	mov	r0, r4
   d539c:	bd38      	pop	{r3, r4, r5, pc}
   d539e:	bf00      	nop
   d53a0:	000dbe40 	.word	0x000dbe40

000d53a4 <_ZN5TimerD0Ev>:
    template <typename T>
    Timer(unsigned period, void (T::*handler)(), T& instance, bool one_shot=false) : Timer(period, std::bind(handler, &instance), one_shot)
    {
    }

    virtual ~Timer() {
   d53a4:	b510      	push	{r4, lr}
   d53a6:	4604      	mov	r4, r0
    		// when the timer is calling the std::function, we cannot dispose of it until the function completes.
		// the call has exited.
		dispose();
    }
   d53a8:	f7ff ffd8 	bl	d535c <_ZN5TimerD1Ev>
   d53ac:	4620      	mov	r0, r4
   d53ae:	211c      	movs	r1, #28
   d53b0:	f005 f982 	bl	da6b8 <_ZdlPvj>
   d53b4:	4620      	mov	r0, r4
   d53b6:	bd10      	pop	{r4, pc}

000d53b8 <_ZN5Timer6_startEjb>:
    inline bool changePeriod(std::chrono::milliseconds ms, unsigned block=default_wait) { return changePeriod(ms.count(), block); }

    bool isValid() const { return handle!=nullptr; }
    bool isActive() const { return isValid() && os_timer_is_active(handle, nullptr); }

    bool _start(unsigned block, bool fromISR=false)
   d53b8:	b573      	push	{r0, r1, r4, r5, r6, lr}
   d53ba:	4606      	mov	r6, r0
   d53bc:	4614      	mov	r4, r2
   d53be:	460d      	mov	r5, r1
    inline bool changePeriodFromISR(std::chrono::milliseconds ms) { return changePeriodFromISR(ms.count()); }

    static const unsigned default_wait = 0x7FFFFFFF;

    bool start(unsigned block=default_wait) { return _start(block, false); }
    bool stop(unsigned block=default_wait) { return _stop(block, false); }
   d53c0:	2200      	movs	r2, #0
   d53c2:	4621      	mov	r1, r4
   d53c4:	f7ff ffba 	bl	d533c <_ZN5Timer5_stopEjb>
    bool isActive() const { return isValid() && os_timer_is_active(handle, nullptr); }

    bool _start(unsigned block, bool fromISR=false)
    {
        stop(fromISR);
        return handle ? !os_timer_change(handle, OS_TIMER_CHANGE_START, fromISR, 0, block, nullptr) : false;
   d53c8:	68b0      	ldr	r0, [r6, #8]
   d53ca:	2300      	movs	r3, #0
   d53cc:	b140      	cbz	r0, d53e0 <_ZN5Timer6_startEjb+0x28>
   d53ce:	9301      	str	r3, [sp, #4]
   d53d0:	9500      	str	r5, [sp, #0]
   d53d2:	4622      	mov	r2, r4
   d53d4:	4619      	mov	r1, r3
   d53d6:	f003 f9ed 	bl	d87b4 <os_timer_change>
   d53da:	fab0 f080 	clz	r0, r0
   d53de:	0940      	lsrs	r0, r0, #5
    }
   d53e0:	b002      	add	sp, #8
   d53e2:	bd70      	pop	{r4, r5, r6, pc}

000d53e4 <_Z32igh_hardware_service_valve_statev>:
    current_valve_position = VALVE_CLOSE;
}

void igh_hardware_service_valve_state(void)
{
    digitalWrite(IGH_IRRIGATION_VALVE, current_valve_position);
   d53e4:	4b02      	ldr	r3, [pc, #8]	; (d53f0 <_Z32igh_hardware_service_valve_statev+0xc>)
   d53e6:	2007      	movs	r0, #7
   d53e8:	7819      	ldrb	r1, [r3, #0]
   d53ea:	f005 b896 	b.w	da51a <digitalWrite>
   d53ee:	bf00      	nop
   d53f0:	2003e64c 	.word	0x2003e64c

000d53f4 <_Z26igh_boron_toggle_boron_ledh>:
}

/* Onboard LED APIs */
void igh_boron_toggle_boron_led(uint8_t _state)
{
    digitalWrite(BORON_LED, _state);
   d53f4:	4601      	mov	r1, r0
   d53f6:	2007      	movs	r0, #7
   d53f8:	f005 b88f 	b.w	da51a <digitalWrite>

000d53fc <_Z21igh_boron_read_buttonv>:
    igh_button_timer.start();
    igh_button_sec_counter = 0;
}

uint8_t igh_boron_read_button(void)
{
   d53fc:	b508      	push	{r3, lr}
    return digitalRead(IGH_IRRIGATION_BUTTON);
   d53fe:	200f      	movs	r0, #15
   d5400:	f005 f8a4 	bl	da54c <digitalRead>
}
   d5404:	b2c0      	uxtb	r0, r0
   d5406:	bd08      	pop	{r3, pc}

000d5408 <_Z31igh_boron_button_press_durationv>:

void igh_boron_button_press_duration(void)
{
   d5408:	b508      	push	{r3, lr}
    if(!igh_boron_read_button())
   d540a:	f7ff fff7 	bl	d53fc <_Z21igh_boron_read_buttonv>
   d540e:	4b08      	ldr	r3, [pc, #32]	; (d5430 <_Z31igh_boron_button_press_durationv+0x28>)
   d5410:	b910      	cbnz	r0, d5418 <_Z31igh_boron_button_press_durationv+0x10>
    {
        igh_button_sec_counter++;
   d5412:	781a      	ldrb	r2, [r3, #0]
   d5414:	3201      	adds	r2, #1
   d5416:	e000      	b.n	d541a <_Z31igh_boron_button_press_durationv+0x12>
    }
    else
    {
        igh_button_sec_counter = 0;
   d5418:	2200      	movs	r2, #0
   d541a:	701a      	strb	r2, [r3, #0]
    } 

    if( THREE_SECONDS >= igh_button_sec_counter )
   d541c:	781b      	ldrb	r3, [r3, #0]
   d541e:	2b03      	cmp	r3, #3
    {
        // start or stop irrigation at any time with button
        button_irrigate = !button_irrigate;
   d5420:	bf9f      	itttt	ls
   d5422:	4a04      	ldrls	r2, [pc, #16]	; (d5434 <_Z31igh_boron_button_press_durationv+0x2c>)
   d5424:	7813      	ldrbls	r3, [r2, #0]
   d5426:	f083 0301 	eorls.w	r3, r3, #1
   d542a:	7013      	strbls	r3, [r2, #0]
   d542c:	bd08      	pop	{r3, pc}
   d542e:	bf00      	nop
   d5430:	2003da91 	.word	0x2003da91
   d5434:	2003da89 	.word	0x2003da89

000d5438 <_Z27attach_flow_meter_interruptv>:
{
    flow_meter_pulses++;
}

void attach_flow_meter_interrupt( void )
{
   d5438:	b507      	push	{r0, r1, r2, lr}
    pinMode( IGH_WATER_FLOW_PIN, INPUT_PULLUP );
   d543a:	2102      	movs	r1, #2
   d543c:	2005      	movs	r0, #5
   d543e:	f005 f85b 	bl	da4f8 <pinMode>
    attachInterrupt( IGH_WATER_FLOW_PIN , igh_app_water_counter_callback, FALLING );
   d5442:	2300      	movs	r3, #0
   d5444:	9300      	str	r3, [sp, #0]
   d5446:	2202      	movs	r2, #2
   d5448:	f04f 33ff 	mov.w	r3, #4294967295
   d544c:	4903      	ldr	r1, [pc, #12]	; (d545c <_Z27attach_flow_meter_interruptv+0x24>)
   d544e:	2005      	movs	r0, #5
   d5450:	f004 fa52 	bl	d98f8 <_Z15attachInterrupttPFvvE13InterruptModeah>
}
   d5454:	b003      	add	sp, #12
   d5456:	f85d fb04 	ldr.w	pc, [sp], #4
   d545a:	bf00      	nop
   d545c:	000d5251 	.word	0x000d5251

000d5460 <_Z29igh_hardware_water_flow_setupv>:
        button_irrigate = !button_irrigate;
    }
}

void igh_hardware_water_flow_setup( void )
{
   d5460:	b508      	push	{r3, lr}
    attach_flow_meter_interrupt();
   d5462:	f7ff ffe9 	bl	d5438 <_Z27attach_flow_meter_interruptv>
    bool changePeriodFromISR(unsigned period) { return _changePeriod(period, 0, true); }
    inline bool changePeriodFromISR(std::chrono::milliseconds ms) { return changePeriodFromISR(ms.count()); }

    static const unsigned default_wait = 0x7FFFFFFF;

    bool start(unsigned block=default_wait) { return _start(block, false); }
   d5466:	2200      	movs	r2, #0
   d5468:	f06f 4100 	mvn.w	r1, #2147483648	; 0x80000000
   d546c:	4801      	ldr	r0, [pc, #4]	; (d5474 <_Z29igh_hardware_water_flow_setupv+0x14>)
   d546e:	f7ff ffa3 	bl	d53b8 <_ZN5Timer6_startEjb>
   d5472:	bd08      	pop	{r3, pc}
   d5474:	2003da68 	.word	0x2003da68

000d5478 <_Z18igh_hardware_setupv>:
Timer water_flow_timer(ONE_SECOND, igh_hardware_litres_service);



void igh_hardware_setup(void)
{
   d5478:	b510      	push	{r4, lr}


/* Button APIs */
static void igh_hardware_irrigiation_button_setup(void)
{
    pinMode(IGH_IRRIGATION_BUTTON, INPUT_PULLUP);
   d547a:	2102      	movs	r1, #2
   d547c:	200f      	movs	r0, #15
   d547e:	f005 f83b 	bl	da4f8 <pinMode>
   d5482:	2200      	movs	r2, #0
   d5484:	f06f 4100 	mvn.w	r1, #2147483648	; 0x80000000
   d5488:	480b      	ldr	r0, [pc, #44]	; (d54b8 <_Z18igh_hardware_setupv+0x40>)
   d548a:	f7ff ff95 	bl	d53b8 <_ZN5Timer6_startEjb>
    igh_button_timer.start();
    igh_button_sec_counter = 0;
   d548e:	4b0b      	ldr	r3, [pc, #44]	; (d54bc <_Z18igh_hardware_setupv+0x44>)
   d5490:	2400      	movs	r4, #0
    digitalWrite(BORON_LED, _state);
}

static void igh_hardware_onboard_led_setup(void)
{
    pinMode(BORON_LED, OUTPUT);
   d5492:	2101      	movs	r1, #1
   d5494:	2007      	movs	r0, #7
/* Button APIs */
static void igh_hardware_irrigiation_button_setup(void)
{
    pinMode(IGH_IRRIGATION_BUTTON, INPUT_PULLUP);
    igh_button_timer.start();
    igh_button_sec_counter = 0;
   d5496:	701c      	strb	r4, [r3, #0]
    digitalWrite(BORON_LED, _state);
}

static void igh_hardware_onboard_led_setup(void)
{
    pinMode(BORON_LED, OUTPUT);
   d5498:	f005 f82e 	bl	da4f8 <pinMode>
    igh_boron_toggle_boron_led(OFF);
   d549c:	4620      	mov	r0, r4
   d549e:	f7ff ffa9 	bl	d53f4 <_Z26igh_boron_toggle_boron_ledh>


/* Valve control APIs */
static void igh_hardware_vlave_setup(void)
{
    pinMode(IGH_IRRIGATION_VALVE, OUTPUT);
   d54a2:	2101      	movs	r1, #1
   d54a4:	2007      	movs	r0, #7
   d54a6:	f005 f827 	bl	da4f8 <pinMode>
    current_valve_position = VALVE_CLOSE;
   d54aa:	4b05      	ldr	r3, [pc, #20]	; (d54c0 <_Z18igh_hardware_setupv+0x48>)
   d54ac:	701c      	strb	r4, [r3, #0]
{
    igh_hardware_irrigiation_button_setup();
    igh_hardware_onboard_led_setup();
    igh_hardware_vlave_setup();
    igh_hardware_water_flow_setup();
}
   d54ae:	e8bd 4010 	ldmia.w	sp!, {r4, lr}
void igh_hardware_setup(void)
{
    igh_hardware_irrigiation_button_setup();
    igh_hardware_onboard_led_setup();
    igh_hardware_vlave_setup();
    igh_hardware_water_flow_setup();
   d54b2:	f7ff bfd5 	b.w	d5460 <_Z29igh_hardware_water_flow_setupv>
   d54b6:	bf00      	nop
   d54b8:	2003da98 	.word	0x2003da98
   d54bc:	2003da91 	.word	0x2003da91
   d54c0:	2003e64c 	.word	0x2003e64c

000d54c4 <_Z27detach_flow_meter_interruptv>:
    attachInterrupt( IGH_WATER_FLOW_PIN , igh_app_water_counter_callback, FALLING );
}

void detach_flow_meter_interrupt( void )
{
    detachInterrupt( IGH_WATER_FLOW_PIN );
   d54c4:	2005      	movs	r0, #5
   d54c6:	f004 ba3f 	b.w	d9948 <_Z15detachInterruptt>
	...

000d54cc <_Z23igh_get_local_time_hourv>:
    // control valve state
    igh_hardware_water_management_service();
}

uint8_t igh_get_local_time_hour( void )
{
   d54cc:	b508      	push	{r3, lr}
    int local_hour = 0;
    int utc_hour = 0;
    utc_hour = Time.hour();
   d54ce:	f003 ff37 	bl	d9340 <_ZN9TimeClass4hourEv>

    //correct to timezone
    local_hour = utc_hour + igh_current_system_settings.timezone;
   d54d2:	4b05      	ldr	r3, [pc, #20]	; (d54e8 <_Z23igh_get_local_time_hourv+0x1c>)
   d54d4:	685b      	ldr	r3, [r3, #4]

    if( 0 > local_hour )
   d54d6:	18c0      	adds	r0, r0, r3
   d54d8:	d501      	bpl.n	d54de <_Z23igh_get_local_time_hourv+0x12>
    {
        local_hour += TWENTY_FOUR_HOURS;
   d54da:	3018      	adds	r0, #24
   d54dc:	e002      	b.n	d54e4 <_Z23igh_get_local_time_hourv+0x18>
    }
    else if( TWENTY_FOUR_HOURS > local_hour )
   d54de:	2817      	cmp	r0, #23
    {
        local_hour -= TWENTY_FOUR_HOURS;
   d54e0:	bfd8      	it	le
   d54e2:	3818      	suble	r0, #24
    }

    return (uint8_t)local_hour;
}
   d54e4:	b2c0      	uxtb	r0, r0
   d54e6:	bd08      	pop	{r3, pc}
   d54e8:	2003e604 	.word	0x2003e604

000d54ec <_Z37igh_hardware_water_management_servicev>:

void igh_hardware_water_management_service( void )
{
   d54ec:	b508      	push	{r3, lr}
    // This should run on a one second tick
    uint8_t current_hr = igh_get_local_time_hour();
   d54ee:	f7ff ffed 	bl	d54cc <_Z23igh_get_local_time_hourv>

    if( current_hr != previous_hr )
   d54f2:	4b26      	ldr	r3, [pc, #152]	; (d558c <_Z37igh_hardware_water_management_servicev+0xa0>)
   d54f4:	781a      	ldrb	r2, [r3, #0]
   d54f6:	4282      	cmp	r2, r0
   d54f8:	d00e      	beq.n	d5518 <_Z37igh_hardware_water_management_servicev+0x2c>
    {
        if( current_hr == igh_current_system_settings.irrigation_hr )
   d54fa:	4a25      	ldr	r2, [pc, #148]	; (d5590 <_Z37igh_hardware_water_management_servicev+0xa4>)
   d54fc:	7a12      	ldrb	r2, [r2, #8]
   d54fe:	4282      	cmp	r2, r0
   d5500:	d103      	bne.n	d550a <_Z37igh_hardware_water_management_servicev+0x1e>
        {
            // it is ok to irrigat if it hits the irrigation hour
            ok_to_irrigate = true;
   d5502:	4a24      	ldr	r2, [pc, #144]	; (d5594 <_Z37igh_hardware_water_management_servicev+0xa8>)
   d5504:	2101      	movs	r1, #1
   d5506:	7011      	strb	r1, [r2, #0]
   d5508:	e005      	b.n	d5516 <_Z37igh_hardware_water_management_servicev+0x2a>
        }
        else if( MIDNIGHT == current_hr )
   d550a:	b920      	cbnz	r0, d5516 <_Z37igh_hardware_water_management_servicev+0x2a>
        {
            // reset the system at midnight
            ok_to_irrigate = false;
   d550c:	4a21      	ldr	r2, [pc, #132]	; (d5594 <_Z37igh_hardware_water_management_servicev+0xa8>)
   d550e:	7010      	strb	r0, [r2, #0]
            total_water_dispensed_Liters = 0;
   d5510:	4a21      	ldr	r2, [pc, #132]	; (d5598 <_Z37igh_hardware_water_management_servicev+0xac>)
   d5512:	2100      	movs	r1, #0
   d5514:	6011      	str	r1, [r2, #0]
        }

        previous_hr = current_hr;
   d5516:	7018      	strb	r0, [r3, #0]
    }

    if( true == button_irrigate )
   d5518:	4b20      	ldr	r3, [pc, #128]	; (d559c <_Z37igh_hardware_water_management_servicev+0xb0>)
   d551a:	4a21      	ldr	r2, [pc, #132]	; (d55a0 <_Z37igh_hardware_water_management_servicev+0xb4>)
   d551c:	781b      	ldrb	r3, [r3, #0]
   d551e:	b1a3      	cbz	r3, d554a <_Z37igh_hardware_water_management_servicev+0x5e>
    {
        if( (water_dispensed_by_button < (float)igh_current_threshold_settings.water_dispensed_period_low) &&
   d5520:	4b20      	ldr	r3, [pc, #128]	; (d55a4 <_Z37igh_hardware_water_management_servicev+0xb8>)
   d5522:	edd3 7a06 	vldr	s15, [r3, #24]
   d5526:	4b20      	ldr	r3, [pc, #128]	; (d55a8 <_Z37igh_hardware_water_management_servicev+0xbc>)
   d5528:	eef8 7a67 	vcvt.f32.u32	s15, s15
   d552c:	ed93 7a00 	vldr	s14, [r3]
   d5530:	eef4 7ac7 	vcmpe.f32	s15, s14
   d5534:	eef1 fa10 	vmrs	APSR_nzcv, fpscr
   d5538:	dd0a      	ble.n	d5550 <_Z37igh_hardware_water_management_servicev+0x64>
            (valve_open_seconds_counter < igh_current_system_settings.water_dispenser_period) )
   d553a:	4b15      	ldr	r3, [pc, #84]	; (d5590 <_Z37igh_hardware_water_management_servicev+0xa4>)
        previous_hr = current_hr;
    }

    if( true == button_irrigate )
    {
        if( (water_dispensed_by_button < (float)igh_current_threshold_settings.water_dispensed_period_low) &&
   d553c:	68d9      	ldr	r1, [r3, #12]
   d553e:	4b1b      	ldr	r3, [pc, #108]	; (d55ac <_Z37igh_hardware_water_management_servicev+0xc0>)
   d5540:	681b      	ldr	r3, [r3, #0]
   d5542:	4299      	cmp	r1, r3
   d5544:	d904      	bls.n	d5550 <_Z37igh_hardware_water_management_servicev+0x64>
            (valve_open_seconds_counter < igh_current_system_settings.water_dispenser_period) )
        {
            current_valve_position = VALVE_OPEN;
   d5546:	2301      	movs	r3, #1
   d5548:	e003      	b.n	d5552 <_Z37igh_hardware_water_management_servicev+0x66>
        }
    }
    else
    {
        /* Only do auto irrigation if button irrigation is not set */
        if( true == ok_to_irrigate &&
   d554a:	4b12      	ldr	r3, [pc, #72]	; (d5594 <_Z37igh_hardware_water_management_servicev+0xa8>)
   d554c:	781b      	ldrb	r3, [r3, #0]
   d554e:	b913      	cbnz	r3, d5556 <_Z37igh_hardware_water_management_servicev+0x6a>
        {
            current_valve_position = VALVE_OPEN;
        }
        else
        {
            current_valve_position = VALVE_CLOSE;
   d5550:	2300      	movs	r3, #0
   d5552:	7013      	strb	r3, [r2, #0]
   d5554:	bd08      	pop	{r3, pc}
    }
    else
    {
        /* Only do auto irrigation if button irrigation is not set */
        if( true == ok_to_irrigate &&
        VALID_SOIL_DATA == refreshed_soil_data)
   d5556:	4b16      	ldr	r3, [pc, #88]	; (d55b0 <_Z37igh_hardware_water_management_servicev+0xc4>)
        }
    }
    else
    {
        /* Only do auto irrigation if button irrigation is not set */
        if( true == ok_to_irrigate &&
   d5558:	781b      	ldrb	r3, [r3, #0]
   d555a:	2bff      	cmp	r3, #255	; 0xff
   d555c:	d1f8      	bne.n	d5550 <_Z37igh_hardware_water_management_servicev+0x64>
        {
            /**
             * run the dispensor if we are within the dispensor window
             * and if we have valid sensor data
             * */
            if( soil_humidity < igh_current_threshold_settings.soil_humidity_low &&
   d555e:	4b15      	ldr	r3, [pc, #84]	; (d55b4 <_Z37igh_hardware_water_management_servicev+0xc8>)
   d5560:	8819      	ldrh	r1, [r3, #0]
   d5562:	4b10      	ldr	r3, [pc, #64]	; (d55a4 <_Z37igh_hardware_water_management_servicev+0xb8>)
   d5564:	88d8      	ldrh	r0, [r3, #6]
   d5566:	4288      	cmp	r0, r1
   d5568:	d9f2      	bls.n	d5550 <_Z37igh_hardware_water_management_servicev+0x64>
   d556a:	8c18      	ldrh	r0, [r3, #32]
   d556c:	4288      	cmp	r0, r1
   d556e:	d9ef      	bls.n	d5550 <_Z37igh_hardware_water_management_servicev+0x64>
                soil_humidity < igh_current_threshold_settings.soil_humidity_high &&
   d5570:	edd3 7a0c 	vldr	s15, [r3, #48]	; 0x30
                total_water_dispensed_Liters < (float)igh_current_threshold_settings.water_dispensed_period_high )
   d5574:	4b08      	ldr	r3, [pc, #32]	; (d5598 <_Z37igh_hardware_water_management_servicev+0xac>)
            /**
             * run the dispensor if we are within the dispensor window
             * and if we have valid sensor data
             * */
            if( soil_humidity < igh_current_threshold_settings.soil_humidity_low &&
                soil_humidity < igh_current_threshold_settings.soil_humidity_high &&
   d5576:	eef8 7a67 	vcvt.f32.u32	s15, s15
   d557a:	ed93 7a00 	vldr	s14, [r3]
   d557e:	eef4 7ac7 	vcmpe.f32	s15, s14
   d5582:	eef1 fa10 	vmrs	APSR_nzcv, fpscr
   d5586:	dcde      	bgt.n	d5546 <_Z37igh_hardware_water_management_servicev+0x5a>
   d5588:	e7e2      	b.n	d5550 <_Z37igh_hardware_water_management_servicev+0x64>
   d558a:	bf00      	nop
   d558c:	2003da92 	.word	0x2003da92
   d5590:	2003e604 	.word	0x2003e604
   d5594:	2003da88 	.word	0x2003da88
   d5598:	2003dab8 	.word	0x2003dab8
   d559c:	2003da89 	.word	0x2003da89
   d55a0:	2003e64c 	.word	0x2003e64c
   d55a4:	2003e650 	.word	0x2003e650
   d55a8:	2003da8c 	.word	0x2003da8c
   d55ac:	2003da94 	.word	0x2003da94
   d55b0:	2003da90 	.word	0x2003da90
   d55b4:	2003dab4 	.word	0x2003dab4

000d55b8 <_Z37igh_hardware_valve_open_timer_servicev>:
}

void igh_hardware_valve_open_timer_service( void )
{
    // count for how many seconds the valve is open
    if( VALVE_OPEN == current_valve_position )
   d55b8:	4b04      	ldr	r3, [pc, #16]	; (d55cc <_Z37igh_hardware_valve_open_timer_servicev+0x14>)
   d55ba:	781b      	ldrb	r3, [r3, #0]
   d55bc:	2b01      	cmp	r3, #1
   d55be:	4b04      	ldr	r3, [pc, #16]	; (d55d0 <_Z37igh_hardware_valve_open_timer_servicev+0x18>)
    {
        valve_open_seconds_counter++;
   d55c0:	bf0a      	itet	eq
   d55c2:	681a      	ldreq	r2, [r3, #0]
    }
    else
    {
        valve_open_seconds_counter = 0;
   d55c4:	2200      	movne	r2, #0
void igh_hardware_valve_open_timer_service( void )
{
    // count for how many seconds the valve is open
    if( VALVE_OPEN == current_valve_position )
    {
        valve_open_seconds_counter++;
   d55c6:	3201      	addeq	r2, #1
    }
    else
    {
        valve_open_seconds_counter = 0;
   d55c8:	601a      	str	r2, [r3, #0]
   d55ca:	4770      	bx	lr
   d55cc:	2003e64c 	.word	0x2003e64c
   d55d0:	2003da94 	.word	0x2003da94

000d55d4 <_Z27igh_hardware_litres_servicev>:
{
    detachInterrupt( IGH_WATER_FLOW_PIN );
}

void igh_hardware_litres_service( void )
{
   d55d4:	b510      	push	{r4, lr}
    uint32_t copy_flow_meter_pulses = 0;
    detach_flow_meter_interrupt();
   d55d6:	f7ff ff75 	bl	d54c4 <_Z27detach_flow_meter_interruptv>
    // copy the current flow meter pulses
    copy_flow_meter_pulses = flow_meter_pulses;
   d55da:	4b17      	ldr	r3, [pc, #92]	; (d5638 <_Z27igh_hardware_litres_servicev+0x64>)
   d55dc:	681c      	ldr	r4, [r3, #0]
    // reset and enable interrupts to avoid missing too many pulses
    flow_meter_pulses = 0;
   d55de:	2200      	movs	r2, #0
   d55e0:	601a      	str	r2, [r3, #0]
    attach_flow_meter_interrupt();
   d55e2:	f7ff ff29 	bl	d5438 <_Z27attach_flow_meter_interruptv>

    // because we are using a software timer, 
    // this routine will always happen once every second
    float flowRate = copy_flow_meter_pulses / FLOW_METER_CAL_FACTOR;
    float flow_Liters = flowRate / ONE_MIN;
   d55e6:	4620      	mov	r0, r4
   d55e8:	f005 fb04 	bl	dabf4 <__aeabi_ui2d>
   d55ec:	2200      	movs	r2, #0
   d55ee:	4b13      	ldr	r3, [pc, #76]	; (d563c <_Z27igh_hardware_litres_servicev+0x68>)
   d55f0:	f005 fca0 	bl	daf34 <__aeabi_ddiv>
   d55f4:	f005 fd86 	bl	db104 <__aeabi_d2f>
   d55f8:	eddf 7a11 	vldr	s15, [pc, #68]	; d5640 <_Z27igh_hardware_litres_servicev+0x6c>

    // add to the total amount of water flow
    total_water_dispensed_Liters += flow_Liters; 
   d55fc:	4b11      	ldr	r3, [pc, #68]	; (d5644 <_Z27igh_hardware_litres_servicev+0x70>)
    attach_flow_meter_interrupt();

    // because we are using a software timer, 
    // this routine will always happen once every second
    float flowRate = copy_flow_meter_pulses / FLOW_METER_CAL_FACTOR;
    float flow_Liters = flowRate / ONE_MIN;
   d55fe:	ee07 0a10 	vmov	s14, r0
   d5602:	eec7 6a27 	vdiv.f32	s13, s14, s15

    // add to the total amount of water flow
    total_water_dispensed_Liters += flow_Liters; 
   d5606:	ed93 7a00 	vldr	s14, [r3]
   d560a:	ee37 7a26 	vadd.f32	s14, s14, s13
   d560e:	ed83 7a00 	vstr	s14, [r3]

    // if button is open, keep track of how much water is used up then
    if( true == button_irrigate )
   d5612:	4b0d      	ldr	r3, [pc, #52]	; (d5648 <_Z27igh_hardware_litres_servicev+0x74>)
   d5614:	781a      	ldrb	r2, [r3, #0]
   d5616:	4b0d      	ldr	r3, [pc, #52]	; (d564c <_Z27igh_hardware_litres_servicev+0x78>)
   d5618:	b132      	cbz	r2, d5628 <_Z27igh_hardware_litres_servicev+0x54>
    {
        water_dispensed_by_button += flow_Liters;
   d561a:	edd3 7a00 	vldr	s15, [r3]
   d561e:	ee77 7aa6 	vadd.f32	s15, s15, s13
   d5622:	edc3 7a00 	vstr	s15, [r3]
   d5626:	e001      	b.n	d562c <_Z27igh_hardware_litres_servicev+0x58>
    }
    else
    {
        water_dispensed_by_button = 0;
   d5628:	2200      	movs	r2, #0
   d562a:	601a      	str	r2, [r3, #0]
    }
    

    // keep track of valve open state
    igh_hardware_valve_open_timer_service();
   d562c:	f7ff ffc4 	bl	d55b8 <_Z37igh_hardware_valve_open_timer_servicev>
    // control valve state
    igh_hardware_water_management_service();
}
   d5630:	e8bd 4010 	ldmia.w	sp!, {r4, lr}
    

    // keep track of valve open state
    igh_hardware_valve_open_timer_service();
    // control valve state
    igh_hardware_water_management_service();
   d5634:	f7ff bf5a 	b.w	d54ec <_Z37igh_hardware_water_management_servicev>
   d5638:	2003da84 	.word	0x2003da84
   d563c:	40120000 	.word	0x40120000
   d5640:	42700000 	.word	0x42700000
   d5644:	2003dab8 	.word	0x2003dab8
   d5648:	2003da89 	.word	0x2003da89
   d564c:	2003da8c 	.word	0x2003da8c

000d5650 <_GLOBAL__sub_I_liters_timer>:
    }
    else
    {
        valve_open_seconds_counter = 0;
    }
}
   d5650:	e92d 41ff 	stmdb	sp!, {r0, r1, r2, r3, r4, r5, r6, r7, r8, lr}
#define THREE_SECONDS          (3)


// button global variables
uint8_t igh_button_sec_counter;
Timer igh_button_timer(ONE_SECOND, igh_boron_button_press_duration);
   d5654:	f8df 807c 	ldr.w	r8, [pc, #124]	; d56d4 <_GLOBAL__sub_I_liters_timer+0x84>
	typedef _Function_handler<_Signature_type, _Functor> _My_handler;

	if (_My_handler::_M_not_empty_function(__f))
	  {
	    _My_handler::_M_init_functor(_M_functor, std::move(__f));
	    _M_invoker = &_My_handler::_M_invoke;
   d5658:	4f17      	ldr	r7, [pc, #92]	; (d56b8 <_GLOBAL__sub_I_liters_timer+0x68>)
	    _M_manager = &_My_handler::_M_manager;
   d565a:	4c18      	ldr	r4, [pc, #96]	; (d56bc <_GLOBAL__sub_I_liters_timer+0x6c>)
   d565c:	4e18      	ldr	r6, [pc, #96]	; (d56c0 <_GLOBAL__sub_I_liters_timer+0x70>)
   d565e:	4d19      	ldr	r5, [pc, #100]	; (d56c4 <_GLOBAL__sub_I_liters_timer+0x74>)
   d5660:	f002 ff70 	bl	d8544 <HAL_Pin_Map>
	  { return true; }

      private:
	static void
	_M_init_functor(_Any_data& __functor, _Functor&& __f, true_type)
	{ new (__functor._M_access()) _Functor(std::move(__f)); }
   d5664:	4b18      	ldr	r3, [pc, #96]	; (d56c8 <_GLOBAL__sub_I_liters_timer+0x78>)
   d5666:	9300      	str	r3, [sp, #0]
   d5668:	466a      	mov	r2, sp
   d566a:	2300      	movs	r3, #0
   d566c:	f44f 717a 	mov.w	r1, #1000	; 0x3e8
   d5670:	4640      	mov	r0, r8

	if (_My_handler::_M_not_empty_function(__f))
	  {
	    _My_handler::_M_init_functor(_M_functor, std::move(__f));
	    _M_invoker = &_My_handler::_M_invoke;
	    _M_manager = &_My_handler::_M_manager;
   d5672:	9402      	str	r4, [sp, #8]
	typedef _Function_handler<_Signature_type, _Functor> _My_handler;

	if (_My_handler::_M_not_empty_function(__f))
	  {
	    _My_handler::_M_init_functor(_M_functor, std::move(__f));
	    _M_invoker = &_My_handler::_M_invoke;
   d5674:	9703      	str	r7, [sp, #12]
   d5676:	f7ff fe2f 	bl	d52d8 <_ZN5TimerC1EjSt8functionIFvvEEb>
   *  @ingroup functors
   *
   *  Polymorphic function wrapper.
   */
  template<typename _Res, typename... _ArgTypes>
    class function<_Res(_ArgTypes...)>
   d567a:	4668      	mov	r0, sp
   d567c:	f7ff fe22 	bl	d52c4 <_ZNSt14_Function_baseD1Ev>
   d5680:	4632      	mov	r2, r6
   d5682:	4629      	mov	r1, r5
   d5684:	4640      	mov	r0, r8
   d5686:	f005 f809 	bl	da69c <__aeabi_atexit>

	if (_My_handler::_M_not_empty_function(__f))
	  {
	    _My_handler::_M_init_functor(_M_functor, std::move(__f));
	    _M_invoker = &_My_handler::_M_invoke;
	    _M_manager = &_My_handler::_M_manager;
   d568a:	9402      	str	r4, [sp, #8]
static void igh_hardware_irrigiation_button_setup(void);
static void igh_hardware_onboard_led_setup(void);
static void igh_hardware_vlave_setup(void);
void igh_hardware_valve_open_timer_service( void );

Timer water_flow_timer(ONE_SECOND, igh_hardware_litres_service);
   d568c:	4c0f      	ldr	r4, [pc, #60]	; (d56cc <_GLOBAL__sub_I_liters_timer+0x7c>)
	  { return true; }

      private:
	static void
	_M_init_functor(_Any_data& __functor, _Functor&& __f, true_type)
	{ new (__functor._M_access()) _Functor(std::move(__f)); }
   d568e:	4b10      	ldr	r3, [pc, #64]	; (d56d0 <_GLOBAL__sub_I_liters_timer+0x80>)
   d5690:	9300      	str	r3, [sp, #0]
   d5692:	466a      	mov	r2, sp
   d5694:	2300      	movs	r3, #0
   d5696:	f44f 717a 	mov.w	r1, #1000	; 0x3e8
   d569a:	4620      	mov	r0, r4
	typedef _Function_handler<_Signature_type, _Functor> _My_handler;

	if (_My_handler::_M_not_empty_function(__f))
	  {
	    _My_handler::_M_init_functor(_M_functor, std::move(__f));
	    _M_invoker = &_My_handler::_M_invoke;
   d569c:	9703      	str	r7, [sp, #12]
   d569e:	f7ff fe1b 	bl	d52d8 <_ZN5TimerC1EjSt8functionIFvvEEb>
   *  @ingroup functors
   *
   *  Polymorphic function wrapper.
   */
  template<typename _Res, typename... _ArgTypes>
    class function<_Res(_ArgTypes...)>
   d56a2:	4668      	mov	r0, sp
   d56a4:	f7ff fe0e 	bl	d52c4 <_ZNSt14_Function_baseD1Ev>
   d56a8:	4632      	mov	r2, r6
   d56aa:	4629      	mov	r1, r5
   d56ac:	4620      	mov	r0, r4
   d56ae:	f004 fff5 	bl	da69c <__aeabi_atexit>
    }
    else
    {
        valve_open_seconds_counter = 0;
    }
}
   d56b2:	b004      	add	sp, #16
   d56b4:	e8bd 81f0 	ldmia.w	sp!, {r4, r5, r6, r7, r8, pc}
   d56b8:	000d5261 	.word	0x000d5261
   d56bc:	000d5265 	.word	0x000d5265
   d56c0:	2003d9bc 	.word	0x2003d9bc
   d56c4:	000d535d 	.word	0x000d535d
   d56c8:	000d5409 	.word	0x000d5409
   d56cc:	2003da68 	.word	0x2003da68
   d56d0:	000d55d5 	.word	0x000d55d5
   d56d4:	2003da98 	.word	0x2003da98

000d56d8 <_ZN4File9availableEv>:
  void setpos(FatPos_t* pos);
  /** \return The number of bytes available from the current position
   * to EOF for normal files.  Zero is returned for directory files.
   */
  uint32_t available() {
    return isFile() ? fileSize() - curPosition() : 0;
   d56d8:	7c03      	ldrb	r3, [r0, #16]
   d56da:	f003 0308 	and.w	r3, r3, #8
    return isOpen();
  }
  /** \return number of bytes available from the current position to EOF
   *   or INT_MAX if more than INT_MAX bytes are available.
   */
  int available() {
   d56de:	4602      	mov	r2, r0
   d56e0:	f003 00ff 	and.w	r0, r3, #255	; 0xff
   d56e4:	b12b      	cbz	r3, d56f2 <_ZN4File9availableEv+0x1a>
   d56e6:	6ad3      	ldr	r3, [r2, #44]	; 0x2c
   d56e8:	6a50      	ldr	r0, [r2, #36]	; 0x24
    uint32_t n = FatFile::available();
    return n > INT_MAX ? INT_MAX : n;
   d56ea:	1a18      	subs	r0, r3, r0
   d56ec:	bf48      	it	mi
   d56ee:	f06f 4000 	mvnmi.w	r0, #2147483648	; 0x80000000
  }
   d56f2:	4770      	bx	lr

000d56f4 <_ZN6SdFileD1Ev>:
#if ENABLE_ARDUINO_FEATURES
/**
 * \class SdFile
 * \brief Class for backward compatibility.
 */
class SdFile : public PrintFile {
   d56f4:	4770      	bx	lr

000d56f6 <_ZN4FileD1Ev>:
//==============================================================================
/**
 * \class File
 * \brief Arduino SD.h style File API
 */
class File : public FatFile, public Stream {
   d56f6:	4770      	bx	lr

000d56f8 <_ZNK8particle13__SPISettings7printToER5Print>:
  bool operator!=(const __SPISettings& other) const
  {
    return !(other == *this);
  }

  virtual size_t printTo(Print& p) const
   d56f8:	b57f      	push	{r0, r1, r2, r3, r4, r5, r6, lr}
   d56fa:	4602      	mov	r2, r0
   d56fc:	4608      	mov	r0, r1
  {
    if (default_ && clock_ == 0)
   d56fe:	7913      	ldrb	r3, [r2, #4]
   d5700:	6895      	ldr	r5, [r2, #8]
   d5702:	b133      	cbz	r3, d5712 <_ZNK8particle13__SPISettings7printToER5Print+0x1a>
   d5704:	b93d      	cbnz	r5, d5716 <_ZNK8particle13__SPISettings7printToER5Print+0x1e>
      return p.print("<SPISettings default>");
   d5706:	490c      	ldr	r1, [pc, #48]	; (d5738 <_ZNK8particle13__SPISettings7printToER5Print+0x40>)
    else
      return p.printf("<SPISettings %s%lu %s MODE%d>", default_ ? "default " : "", clock_, bitOrder_ == MSBFIRST ? "MSB" : "LSB", dataMode_);
  }
   d5708:	b004      	add	sp, #16
   d570a:	e8bd 4070 	ldmia.w	sp!, {r4, r5, r6, lr}
  }

  virtual size_t printTo(Print& p) const
  {
    if (default_ && clock_ == 0)
      return p.print("<SPISettings default>");
   d570e:	f003 bd2f 	b.w	d9170 <_ZN5Print5printEPKc>
    else
      return p.printf("<SPISettings %s%lu %s MODE%d>", default_ ? "default " : "", clock_, bitOrder_ == MSBFIRST ? "MSB" : "LSB", dataMode_);
   d5712:	4b0a      	ldr	r3, [pc, #40]	; (d573c <_ZNK8particle13__SPISettings7printToER5Print+0x44>)
   d5714:	e000      	b.n	d5718 <_ZNK8particle13__SPISettings7printToER5Print+0x20>
   d5716:	4b0a      	ldr	r3, [pc, #40]	; (d5740 <_ZNK8particle13__SPISettings7printToER5Print+0x48>)
   d5718:	7b16      	ldrb	r6, [r2, #12]
   d571a:	4c0a      	ldr	r4, [pc, #40]	; (d5744 <_ZNK8particle13__SPISettings7printToER5Print+0x4c>)
   d571c:	490a      	ldr	r1, [pc, #40]	; (d5748 <_ZNK8particle13__SPISettings7printToER5Print+0x50>)
    size_t println(const __FlashStringHelper*);

    template <typename... Args>
    inline size_t printf(const char* format, Args... args)
    {
        return this->printf_impl(false, format, args...);
   d571e:	7b52      	ldrb	r2, [r2, #13]
   d5720:	9202      	str	r2, [sp, #8]
   d5722:	2e01      	cmp	r6, #1
   d5724:	bf08      	it	eq
   d5726:	4621      	moveq	r1, r4
   d5728:	9101      	str	r1, [sp, #4]
   d572a:	9500      	str	r5, [sp, #0]
   d572c:	4a07      	ldr	r2, [pc, #28]	; (d574c <_ZNK8particle13__SPISettings7printToER5Print+0x54>)
   d572e:	2100      	movs	r1, #0
   d5730:	f003 fd5b 	bl	d91ea <_ZN5Print11printf_implEbPKcz>
  }
   d5734:	b004      	add	sp, #16
   d5736:	bd70      	pop	{r4, r5, r6, pc}
   d5738:	000dbea9 	.word	0x000dbea9
   d573c:	000dc058 	.word	0x000dc058
   d5740:	000dbe98 	.word	0x000dbe98
   d5744:	000dbea1 	.word	0x000dbea1
   d5748:	000dbea5 	.word	0x000dbea5
   d574c:	000dbebf 	.word	0x000dbebf

000d5750 <_ZN4File5flushEv>:
    uint32_t n = FatFile::available();
    return n > INT_MAX ? INT_MAX : n;
  }
  /** Ensure that any bytes written to the file are saved to the SD card. */
  void flush() {
    FatFile::sync();
   d5750:	3010      	adds	r0, #16
   d5752:	f001 bd95 	b.w	d7280 <_ZN7FatFile4syncEv>

000d5756 <_ZN4File4peekEv>:
  /** Return the next available byte without consuming it.
   *
   * \return The byte if no error and not at eof else -1;
   */
  int peek() {
    return FatFile::peek();
   d5756:	3010      	adds	r0, #16
   d5758:	f001 bc6c 	b.w	d7034 <_ZN7FatFile4peekEv>

000d575c <_ZN4File5writeEPKhj>:
   * include write() is called before a file has been opened, write is called
   * for a read-only file, device is full, a corrupt file system or an
   * I/O error.
   */
  size_t write(const uint8_t *buf, size_t size) {
    return FatFile::write(buf, size);
   d575c:	3010      	adds	r0, #16
   d575e:	f001 be2f 	b.w	d73c0 <_ZN7FatFile5writeEPKvj>

000d5762 <_ZN9PrintFile5writeEPKhj>:
   * include write() is called before a file has been opened, write is called
   * for a read-only file, device is full, a corrupt file system or an
   * I/O error.
   */
  size_t write(const uint8_t *buf, size_t size) {
    return FatFile::write(buf, size);
   d5762:	3008      	adds	r0, #8
   d5764:	f001 be2c 	b.w	d73c0 <_ZN7FatFile5writeEPKvj>

000d5768 <_ZN4File5writeEh>:
  /** Write a byte to a file. Required by the Arduino Print class.
   * \param[in] b the byte to be written.
   * Use getWriteError to check for errors.
   * \return 1 for success and 0 for failure.
   */
  size_t write(uint8_t b) {
   d5768:	b507      	push	{r0, r1, r2, lr}
   d576a:	ab02      	add	r3, sp, #8
  /** Write a single byte.
   * \param[in] b The byte to be written.
   * \return +1 for success or -1 for failure.
   */
  int write(uint8_t b) {
    return write(&b, 1);
   d576c:	2201      	movs	r2, #1
   d576e:	f803 1d01 	strb.w	r1, [r3, #-1]!
   d5772:	3010      	adds	r0, #16
   d5774:	4619      	mov	r1, r3
   d5776:	f001 fe23 	bl	d73c0 <_ZN7FatFile5writeEPKvj>
    return FatFile::write(b);
  }
   d577a:	b003      	add	sp, #12
   d577c:	f85d fb04 	ldr.w	pc, [sp], #4

000d5780 <_ZN6SdFileD0Ev>:
   d5780:	b510      	push	{r4, lr}
   d5782:	212c      	movs	r1, #44	; 0x2c
   d5784:	4604      	mov	r4, r0
   d5786:	f004 ff97 	bl	da6b8 <_ZdlPvj>
   d578a:	4620      	mov	r0, r4
   d578c:	bd10      	pop	{r4, pc}

000d578e <_ZN4FileD0Ev>:
//==============================================================================
/**
 * \class File
 * \brief Arduino SD.h style File API
 */
class File : public FatFile, public Stream {
   d578e:	b510      	push	{r4, lr}
   d5790:	2134      	movs	r1, #52	; 0x34
   d5792:	4604      	mov	r4, r0
   d5794:	f004 ff90 	bl	da6b8 <_ZdlPvj>
   d5798:	4620      	mov	r0, r4
   d579a:	bd10      	pop	{r4, pc}

000d579c <_ZN9PrintFile5writeEh>:
  /** Write a byte to a file. Required by the Arduino Print class.
   * \param[in] b the byte to be written.
   * Use getWriteError to check for errors.
   * \return 1 for success and 0 for failure.
   */
  size_t write(uint8_t b) {
   d579c:	b507      	push	{r0, r1, r2, lr}
   d579e:	ab02      	add	r3, sp, #8
   d57a0:	2201      	movs	r2, #1
   d57a2:	f803 1d01 	strb.w	r1, [r3, #-1]!
   d57a6:	3008      	adds	r0, #8
   d57a8:	4619      	mov	r1, r3
   d57aa:	f001 fe09 	bl	d73c0 <_ZN7FatFile5writeEPKvj>
    return FatFile::write(b);
  }
   d57ae:	b003      	add	sp, #12
   d57b0:	f85d fb04 	ldr.w	pc, [sp], #4

000d57b4 <_ZN7FatFile4readEv>:
  /** Read the next byte from a file.
   *
   * \return For success read returns the next byte in the file as an int.
   * If an error occurs or end of file is reached -1 is returned.
   */
  int read() {
   d57b4:	b507      	push	{r0, r1, r2, lr}
    uint8_t b;
    return read(&b, 1) == 1 ? b : -1;
   d57b6:	2201      	movs	r2, #1
   d57b8:	f10d 0107 	add.w	r1, sp, #7
   d57bc:	f001 fb87 	bl	d6ece <_ZN7FatFile4readEPvj>
   d57c0:	2801      	cmp	r0, #1
   d57c2:	bf0c      	ite	eq
   d57c4:	f89d 0007 	ldrbeq.w	r0, [sp, #7]
   d57c8:	f04f 30ff 	movne.w	r0, #4294967295
  }
   d57cc:	b003      	add	sp, #12
   d57ce:	f85d fb04 	ldr.w	pc, [sp], #4

000d57d2 <_ZN4File4readEv>:
  /** Read the next byte from a file.
   *
   * \return For success return the next byte in the file as an int.
   * If an error occurs or end of file is reached return -1.
   */
  int read() {
   d57d2:	b508      	push	{r3, lr}
    return FatFile::read();
   d57d4:	3010      	adds	r0, #16
   d57d6:	f7ff ffed 	bl	d57b4 <_ZN7FatFile4readEv>
  }
   d57da:	bd08      	pop	{r3, pc}

000d57dc <_Z16igh_sd_log_setupv>:
 * convertedt to a character string
 * eg: 2E78FA2E.LOG
*/

uint8_t igh_sd_log_setup(void)
{
   d57dc:	b57f      	push	{r0, r1, r2, r3, r4, r5, r6, lr}
   d57de:	4820      	ldr	r0, [pc, #128]	; (d5860 <_Z16igh_sd_log_setupv+0x84>)
    if(sd_root.isOpen()) sd_root.close();
   d57e0:	7a03      	ldrb	r3, [r0, #8]
   d57e2:	b113      	cbz	r3, d57ea <_Z16igh_sd_log_setupv+0xe>
   d57e4:	3008      	adds	r0, #8
   d57e6:	f001 fd81 	bl	d72ec <_ZN7FatFile5closeEv>
   * \param[in] csPin SD card chip select pin.
   * \param[in] spiSettings SPI speed, mode, and bit order.
   * \return true for success else false.
   */
  bool begin(uint8_t csPin = SS, SPISettings spiSettings = SPI_FULL_SPEED) {
    return m_card.begin(&m_spi, csPin, spiSettings) &&
   d57ea:	4c1e      	ldr	r4, [pc, #120]	; (d5864 <_Z16igh_sd_log_setupv+0x88>)
    SPI_CLK_ARDUINO = 16*MHZ,
    SPI_CLK_PHOTON = 60*MHZ
};

namespace particle {
class __SPISettings : public Printable {
   d57ec:	4b1e      	ldr	r3, [pc, #120]	; (d5868 <_Z16igh_sd_log_setupv+0x8c>)
   d57ee:	4a1f      	ldr	r2, [pc, #124]	; (d586c <_Z16igh_sd_log_setupv+0x90>)
   d57f0:	9300      	str	r3, [sp, #0]
   d57f2:	f504 668c 	add.w	r6, r4, #1120	; 0x460
   d57f6:	2300      	movs	r3, #0
   d57f8:	f88d 3004 	strb.w	r3, [sp, #4]
   d57fc:	9202      	str	r2, [sp, #8]
   d57fe:	2501      	movs	r5, #1
   d5800:	f88d 300d 	strb.w	r3, [sp, #13]
   d5804:	220e      	movs	r2, #14
   d5806:	466b      	mov	r3, sp
   d5808:	f204 416c 	addw	r1, r4, #1132	; 0x46c
   d580c:	4630      	mov	r0, r6
   d580e:	f88d 500c 	strb.w	r5, [sp, #12]
   d5812:	f002 f91d 	bl	d7a50 <_ZN9SdSpiCard5beginEP14SdSpiAltDriverhN8particle13__SPISettingsE>
   d5816:	b300      	cbz	r0, d585a <_Z16igh_sd_log_setupv+0x7e>
   * \return The value true is returned for success and
   * the value false is returned for failure.
   */
  bool begin(BlockDriver* blockDev, uint8_t part = 0) {
    m_blockDev = blockDev;
    vwd()->close();
   d5818:	f204 403c 	addw	r0, r4, #1084	; 0x43c
   * \param[in] part partition to initialize.
   * \return The value true is returned for success and
   * the value false is returned for failure.
   */
  bool begin(BlockDriver* blockDev, uint8_t part = 0) {
    m_blockDev = blockDev;
   d581c:	6026      	str	r6, [r4, #0]
    vwd()->close();
   d581e:	f001 fd65 	bl	d72ec <_ZN7FatFile5closeEv>
    return (part ? init(part) : init(1) || init(0))
   d5822:	4629      	mov	r1, r5
   d5824:	4620      	mov	r0, r4
   d5826:	f001 ffbc 	bl	d77a2 <_ZN9FatVolume4initEh>
            && vwd()->openRoot(this) && FatFile::setCwd(vwd());
   d582a:	4601      	mov	r1, r0
   d582c:	b180      	cbz	r0, d5850 <_Z16igh_sd_log_setupv+0x74>
   d582e:	4c0d      	ldr	r4, [pc, #52]	; (d5864 <_Z16igh_sd_log_setupv+0x88>)
   d5830:	f204 453c 	addw	r5, r4, #1084	; 0x43c
   d5834:	4621      	mov	r1, r4
   d5836:	4628      	mov	r0, r5
   d5838:	f001 fb31 	bl	d6e9e <_ZN7FatFile8openRootEP9FatVolume>
   d583c:	b168      	cbz	r0, d585a <_Z16igh_sd_log_setupv+0x7e>
   * \param[in] dir New current working directory.
   *
   * \return true for success else false.
   */
  static bool setCwd(FatFile* dir) {
    if (!dir->isDir()) {
   d583e:	f894 343c 	ldrb.w	r3, [r4, #1084]	; 0x43c
   d5842:	f013 0370 	ands.w	r3, r3, #112	; 0x70
      return false;
    }
    m_cwd = dir;
   d5846:	bf16      	itet	ne
   d5848:	4b09      	ldrne	r3, [pc, #36]	; (d5870 <_Z16igh_sd_log_setupv+0x94>)
   d584a:	4618      	moveq	r0, r3
   d584c:	601d      	strne	r5, [r3, #0]
   d584e:	e005      	b.n	d585c <_Z16igh_sd_log_setupv+0x80>
   * the value false is returned for failure.
   */
  bool begin(BlockDriver* blockDev, uint8_t part = 0) {
    m_blockDev = blockDev;
    vwd()->close();
    return (part ? init(part) : init(1) || init(0))
   d5850:	4620      	mov	r0, r4
   d5852:	f001 ffa6 	bl	d77a2 <_ZN9FatVolume4initEh>
   d5856:	2800      	cmp	r0, #0
   d5858:	d1e9      	bne.n	d582e <_Z16igh_sd_log_setupv+0x52>
   d585a:	2000      	movs	r0, #0
    return igh_sd.begin(IGH_SD_CS);
}
   d585c:	b004      	add	sp, #16
   d585e:	bd70      	pop	{r4, r5, r6, pc}
   d5860:	2003df78 	.word	0x2003df78
   d5864:	2003daf4 	.word	0x2003daf4
   d5868:	000dbe54 	.word	0x000dbe54
   d586c:	02faf080 	.word	0x02faf080
   d5870:	2003e01c 	.word	0x2003e01c

000d5874 <_Z24igh_sd_log_get_file_namemPc>:
{
    igh_file.rewindDirectory();
}

void igh_sd_log_get_file_name(unsigned long _unix_time, char * file_name)
{
   d5874:	b507      	push	{r0, r1, r2, lr}
   d5876:	4602      	mov	r2, r0
    sprintf(file_name, "%02X%02X%02X%02X.LOG", 
    (uint8_t)(_unix_time >> 24), 
    (uint8_t)(_unix_time >> 16), 
    (uint8_t)(_unix_time >> 8), 
    (uint8_t)(_unix_time));
   d5878:	b2d3      	uxtb	r3, r2
   d587a:	9301      	str	r3, [sp, #4]
   d587c:	f3c2 2307 	ubfx	r3, r2, #8, #8
   d5880:	9300      	str	r3, [sp, #0]
{
    igh_file.rewindDirectory();
}

void igh_sd_log_get_file_name(unsigned long _unix_time, char * file_name)
{
   d5882:	4608      	mov	r0, r1
    sprintf(file_name, "%02X%02X%02X%02X.LOG", 
    (uint8_t)(_unix_time >> 24), 
    (uint8_t)(_unix_time >> 16), 
    (uint8_t)(_unix_time >> 8), 
    (uint8_t)(_unix_time));
   d5884:	f3c2 4307 	ubfx	r3, r2, #16, #8
   d5888:	4903      	ldr	r1, [pc, #12]	; (d5898 <_Z24igh_sd_log_get_file_namemPc+0x24>)
   d588a:	0e12      	lsrs	r2, r2, #24
   d588c:	f003 f9ae 	bl	d8bec <sprintf>
}
   d5890:	b003      	add	sp, #12
   d5892:	f85d fb04 	ldr.w	pc, [sp], #4
   d5896:	bf00      	nop
   d5898:	000dbedd 	.word	0x000dbedd

000d589c <_Z26igh_sd_log_save_data_pointmPhh>:

uint8_t igh_sd_log_save_data_point(unsigned long _unix_time, uint8_t * data, uint8_t size)
{
   d589c:	e92d 41f0 	stmdb	sp!, {r4, r5, r6, r7, r8, lr}
   d58a0:	b092      	sub	sp, #72	; 0x48
   d58a2:	4688      	mov	r8, r1
    uint8_t ret = 0;
    char name[FILE_NAME_SIZE]; // include the null terminator?
    igh_sd_log_get_file_name(_unix_time, name);
   d58a4:	a901      	add	r1, sp, #4
    (uint8_t)(_unix_time >> 8), 
    (uint8_t)(_unix_time));
}

uint8_t igh_sd_log_save_data_point(unsigned long _unix_time, uint8_t * data, uint8_t size)
{
   d58a6:	4617      	mov	r7, r2
    uint8_t ret = 0;
    char name[FILE_NAME_SIZE]; // include the null terminator?
    igh_sd_log_get_file_name(_unix_time, name);
   d58a8:	f7ff ffe4 	bl	d5874 <_Z24igh_sd_log_get_file_namemPc>
 * \brief Basic file class.
 */
class FatFile {
 public:
  /** Create an instance. */
  FatFile() : m_attr(FILE_ATTR_CLOSED), m_error(0) {}
   d58ac:	2300      	movs	r3, #0
   d58ae:	f88d 3024 	strb.w	r3, [sp, #36]	; 0x24
   d58b2:	f88d 3025 	strb.w	r3, [sp, #37]	; 0x25
  protected:
    void setWriteError(int err = 1) { write_error = err; }
    size_t printf_impl(bool newline, const char* format, ...);

  public:
    Print() : write_error(0) {}
   d58b6:	9306      	str	r3, [sp, #24]
    virtual int available() = 0;
    virtual int read() = 0;
    virtual int peek() = 0;
    virtual void flush() = 0;

    Stream() {_timeout=1000;}
   d58b8:	f44f 737a 	mov.w	r3, #1000	; 0x3e8
   d58bc:	9307      	str	r3, [sp, #28]
 * \class File
 * \brief Arduino SD.h style File API
 */
class File : public FatFile, public Stream {
 public:
  File() {}
   d58be:	4b24      	ldr	r3, [pc, #144]	; (d5950 <_Z26igh_sd_log_save_data_pointmPhh+0xb4>)
   d58c0:	9305      	str	r3, [sp, #20]
   * \param[in] oflag open flags.
   * \return a File object.
   */
  File open(const char *path, oflag_t oflag = FILE_READ) {
    File tmpFile;
    tmpFile.open(vwd(), path, oflag);
   d58c2:	aa01      	add	r2, sp, #4
   d58c4:	f244 2302 	movw	r3, #16898	; 0x4202
   d58c8:	4922      	ldr	r1, [pc, #136]	; (d5954 <_Z26igh_sd_log_save_data_pointmPhh+0xb8>)
//==============================================================================
/**
 * \class File
 * \brief Arduino SD.h style File API
 */
class File : public FatFile, public Stream {
   d58ca:	4e23      	ldr	r6, [pc, #140]	; (d5958 <_Z26igh_sd_log_save_data_pointmPhh+0xbc>)
   d58cc:	a809      	add	r0, sp, #36	; 0x24
   d58ce:	ac09      	add	r4, sp, #36	; 0x24
   d58d0:	f001 fd13 	bl	d72fa <_ZN7FatFile4openEPS_PKci>
   d58d4:	cc0f      	ldmia	r4!, {r0, r1, r2, r3}
   d58d6:	f106 0510 	add.w	r5, r6, #16
   d58da:	c50f      	stmia	r5!, {r0, r1, r2, r3}
   d58dc:	cc0f      	ldmia	r4!, {r0, r1, r2, r3}
   d58de:	c50f      	stmia	r5!, {r0, r1, r2, r3}
   d58e0:	6823      	ldr	r3, [r4, #0]
   d58e2:	602b      	str	r3, [r5, #0]
const unsigned char BIN = 2;

class String;
class __FlashStringHelper;

class Print
   d58e4:	9b06      	ldr	r3, [sp, #24]
   d58e6:	6073      	str	r3, [r6, #4]
#define   getFloat(skipChar)  parseFloat(skipChar)
#define   getString( pre_string, post_string, buffer, length)
readBytesBetween( pre_string, terminator, buffer, length)
*/

class Stream : public Print
   d58e8:	9b07      	ldr	r3, [sp, #28]
   d58ea:	60b3      	str	r3, [r6, #8]
   d58ec:	9b08      	ldr	r3, [sp, #32]
   d58ee:	60f3      	str	r3, [r6, #12]
    igh_file = igh_sd.open((const char *)name, FILE_WRITE);

    Serial.print("Saving: "); Serial.print(name); Serial.print(" Size: "); Serial.print(size);
   d58f0:	f003 ffda 	bl	d98a8 <_Z16_fetch_usbserialv>
   d58f4:	4919      	ldr	r1, [pc, #100]	; (d595c <_Z26igh_sd_log_save_data_pointmPhh+0xc0>)
   d58f6:	f003 fc3b 	bl	d9170 <_ZN5Print5printEPKc>
   d58fa:	f003 ffd5 	bl	d98a8 <_Z16_fetch_usbserialv>
   d58fe:	a901      	add	r1, sp, #4
   d5900:	f003 fc36 	bl	d9170 <_ZN5Print5printEPKc>
   d5904:	f003 ffd0 	bl	d98a8 <_Z16_fetch_usbserialv>
   d5908:	4915      	ldr	r1, [pc, #84]	; (d5960 <_Z26igh_sd_log_save_data_pointmPhh+0xc4>)
   d590a:	f003 fc31 	bl	d9170 <_ZN5Print5printEPKc>
   d590e:	f003 ffcb 	bl	d98a8 <_Z16_fetch_usbserialv>
            t = print('-');
            val = -n;
        } else {
            val = n;
        }
        return printNumber(val, base) + t;
   d5912:	220a      	movs	r2, #10
   d5914:	4639      	mov	r1, r7
   d5916:	f003 fc48 	bl	d91aa <_ZN5Print11printNumberEmh>

    if(igh_file)
   d591a:	7c34      	ldrb	r4, [r6, #16]
   d591c:	b15c      	cbz	r4, d5936 <_Z26igh_sd_log_save_data_pointmPhh+0x9a>
    {
        igh_file.write( data, size);
   d591e:	463a      	mov	r2, r7
   d5920:	4641      	mov	r1, r8
   d5922:	4630      	mov	r0, r6
   d5924:	f7ff ff1a 	bl	d575c <_ZN4File5writeEPKhj>
        Serial.println(" OK");
   d5928:	f003 ffbe 	bl	d98a8 <_Z16_fetch_usbserialv>
   d592c:	490d      	ldr	r1, [pc, #52]	; (d5964 <_Z26igh_sd_log_save_data_pointmPhh+0xc8>)
   d592e:	f003 fc32 	bl	d9196 <_ZN5Print7printlnEPKc>
        ret = 1;
   d5932:	2401      	movs	r4, #1
   d5934:	e004      	b.n	d5940 <_Z26igh_sd_log_save_data_pointmPhh+0xa4>
    }
    else
    {
        Serial.println(" ERROR");
   d5936:	f003 ffb7 	bl	d98a8 <_Z16_fetch_usbserialv>
   d593a:	490b      	ldr	r1, [pc, #44]	; (d5968 <_Z26igh_sd_log_save_data_pointmPhh+0xcc>)
   d593c:	f003 fc2b 	bl	d9196 <_ZN5Print7printlnEPKc>
    }

    igh_file.close();
   d5940:	480a      	ldr	r0, [pc, #40]	; (d596c <_Z26igh_sd_log_save_data_pointmPhh+0xd0>)
   d5942:	f001 fcd3 	bl	d72ec <_ZN7FatFile5closeEv>
    return ret;
}
   d5946:	4620      	mov	r0, r4
   d5948:	b012      	add	sp, #72	; 0x48
   d594a:	e8bd 81f0 	ldmia.w	sp!, {r4, r5, r6, r7, r8, pc}
   d594e:	bf00      	nop
   d5950:	000dbe60 	.word	0x000dbe60
   d5954:	2003df30 	.word	0x2003df30
   d5958:	2003dfa4 	.word	0x2003dfa4
   d595c:	000dbef2 	.word	0x000dbef2
   d5960:	000dbefb 	.word	0x000dbefb
   d5964:	000dbc14 	.word	0x000dbc14
   d5968:	000dbc1c 	.word	0x000dbc1c
   d596c:	2003dfb4 	.word	0x2003dfb4

000d5970 <_Z28igh_sd_log_remove_data_pointPc>:
  *
  * \return The value true is returned for success and
  * the value false is returned for failure.
  */
  bool remove(const char* path) {
    return FatFile::remove(vwd(), path);
   d5970:	4601      	mov	r1, r0
   d5972:	4801      	ldr	r0, [pc, #4]	; (d5978 <_Z28igh_sd_log_remove_data_pointPc+0x8>)
   d5974:	f001 bd10 	b.w	d7398 <_ZN7FatFile6removeEPS_PKc>
   d5978:	2003df30 	.word	0x2003df30

000d597c <_Z26igh_sd_log_read_data_pointPcPhh>:
        return 1;
    }
}

uint8_t igh_sd_log_read_data_point(char * file_name, uint8_t * buffer, uint8_t data_length)
{
   d597c:	e92d 41f0 	stmdb	sp!, {r4, r5, r6, r7, r8, lr}
   d5980:	b08e      	sub	sp, #56	; 0x38
   d5982:	4690      	mov	r8, r2
    virtual int available() = 0;
    virtual int read() = 0;
    virtual int peek() = 0;
    virtual void flush() = 0;

    Stream() {_timeout=1000;}
   d5984:	f44f 727a 	mov.w	r2, #1000	; 0x3e8
   d5988:	9203      	str	r2, [sp, #12]
 public:
  File() {}
   d598a:	4a18      	ldr	r2, [pc, #96]	; (d59ec <_Z26igh_sd_log_read_data_pointPcPhh+0x70>)
   d598c:	9201      	str	r2, [sp, #4]
   d598e:	2300      	movs	r3, #0
   * \param[in] oflag open flags.
   * \return a File object.
   */
  File open(const char *path, oflag_t oflag = FILE_READ) {
    File tmpFile;
    tmpFile.open(vwd(), path, oflag);
   d5990:	4602      	mov	r2, r0
   d5992:	460f      	mov	r7, r1
   d5994:	a805      	add	r0, sp, #20
   d5996:	4916      	ldr	r1, [pc, #88]	; (d59f0 <_Z26igh_sd_log_read_data_pointPcPhh+0x74>)
   d5998:	f88d 3014 	strb.w	r3, [sp, #20]
//==============================================================================
/**
 * \class File
 * \brief Arduino SD.h style File API
 */
class File : public FatFile, public Stream {
   d599c:	ac05      	add	r4, sp, #20
   d599e:	f88d 3015 	strb.w	r3, [sp, #21]
  protected:
    void setWriteError(int err = 1) { write_error = err; }
    size_t printf_impl(bool newline, const char* format, ...);

  public:
    Print() : write_error(0) {}
   d59a2:	9302      	str	r3, [sp, #8]
   d59a4:	f001 fca9 	bl	d72fa <_ZN7FatFile4openEPS_PKci>
   d59a8:	cc0f      	ldmia	r4!, {r0, r1, r2, r3}
   d59aa:	4e12      	ldr	r6, [pc, #72]	; (d59f4 <_Z26igh_sd_log_read_data_pointPcPhh+0x78>)
   d59ac:	f106 0510 	add.w	r5, r6, #16
   d59b0:	c50f      	stmia	r5!, {r0, r1, r2, r3}
   d59b2:	cc0f      	ldmia	r4!, {r0, r1, r2, r3}
   d59b4:	c50f      	stmia	r5!, {r0, r1, r2, r3}
   d59b6:	6823      	ldr	r3, [r4, #0]
   d59b8:	602b      	str	r3, [r5, #0]
const unsigned char BIN = 2;

class String;
class __FlashStringHelper;

class Print
   d59ba:	9b02      	ldr	r3, [sp, #8]
   d59bc:	6073      	str	r3, [r6, #4]
    igh_file = igh_sd.open( (const char *)file_name );
    if(igh_file)
   d59be:	7c30      	ldrb	r0, [r6, #16]
#define   getFloat(skipChar)  parseFloat(skipChar)
#define   getString( pre_string, post_string, buffer, length)
readBytesBetween( pre_string, terminator, buffer, length)
*/

class Stream : public Print
   d59c0:	9b03      	ldr	r3, [sp, #12]
   d59c2:	60b3      	str	r3, [r6, #8]
   d59c4:	9b04      	ldr	r3, [sp, #16]
   d59c6:	60f3      	str	r3, [r6, #12]
   d59c8:	b160      	cbz	r0, d59e4 <_Z26igh_sd_log_read_data_pointPcPhh+0x68>
   d59ca:	463c      	mov	r4, r7
    {
        for(int i = 0; i < data_length; i++)
   d59cc:	1be3      	subs	r3, r4, r7
   d59ce:	4598      	cmp	r8, r3
        {
            buffer[i] = igh_file.read(); // read data_len number of chars
        }
        igh_file.close();
   d59d0:	4809      	ldr	r0, [pc, #36]	; (d59f8 <_Z26igh_sd_log_read_data_pointPcPhh+0x7c>)
uint8_t igh_sd_log_read_data_point(char * file_name, uint8_t * buffer, uint8_t data_length)
{
    igh_file = igh_sd.open( (const char *)file_name );
    if(igh_file)
    {
        for(int i = 0; i < data_length; i++)
   d59d2:	dd04      	ble.n	d59de <_Z26igh_sd_log_read_data_pointPcPhh+0x62>
   *
   * \return For success return the next byte in the file as an int.
   * If an error occurs or end of file is reached return -1.
   */
  int read() {
    return FatFile::read();
   d59d4:	f7ff feee 	bl	d57b4 <_ZN7FatFile4readEv>
        {
            buffer[i] = igh_file.read(); // read data_len number of chars
   d59d8:	f804 0b01 	strb.w	r0, [r4], #1
   d59dc:	e7f6      	b.n	d59cc <_Z26igh_sd_log_read_data_pointPcPhh+0x50>
        }
        igh_file.close();
   d59de:	f001 fc85 	bl	d72ec <_ZN7FatFile5closeEv>
   d59e2:	2001      	movs	r0, #1
    }
    else
    {
        return 0;
    }   
}
   d59e4:	b00e      	add	sp, #56	; 0x38
   d59e6:	e8bd 81f0 	ldmia.w	sp!, {r4, r5, r6, r7, r8, pc}
   d59ea:	bf00      	nop
   d59ec:	000dbe60 	.word	0x000dbe60
   d59f0:	2003df30 	.word	0x2003df30
   d59f4:	2003dfa4 	.word	0x2003dfa4
   d59f8:	2003dfb4 	.word	0x2003dfb4

000d59fc <_Z29igh_sd_log_get_next_file_namePc>:

uint8_t igh_sd_log_get_next_file_name(char * next_file_name)
{
   d59fc:	b510      	push	{r4, lr}
   d59fe:	4604      	mov	r4, r0
    if(!igh_sd_log_setup())
   d5a00:	f7ff feec 	bl	d57dc <_Z16igh_sd_log_setupv>
   d5a04:	b908      	cbnz	r0, d5a0a <_Z29igh_sd_log_get_next_file_namePc+0xe>
    {
        return 0;
   d5a06:	2000      	movs	r0, #0
   d5a08:	bd10      	pop	{r4, pc}
   *
   * \return The value true is returned for success and
   * the value false is returned for failure.
   */
  bool open(const char* path, oflag_t oflag = O_RDONLY) {
    return open(m_cwd, path, oflag);
   d5a0a:	4910      	ldr	r1, [pc, #64]	; (d5a4c <_Z29igh_sd_log_get_next_file_namePc+0x50>)
   d5a0c:	4a10      	ldr	r2, [pc, #64]	; (d5a50 <_Z29igh_sd_log_get_next_file_namePc+0x54>)
   d5a0e:	6809      	ldr	r1, [r1, #0]
   d5a10:	4810      	ldr	r0, [pc, #64]	; (d5a54 <_Z29igh_sd_log_get_next_file_namePc+0x58>)
   d5a12:	2300      	movs	r3, #0
   d5a14:	f001 fc71 	bl	d72fa <_ZN7FatFile4openEPS_PKci>
    }

    if (!sd_root.open("/"))
   d5a18:	2800      	cmp	r0, #0
   d5a1a:	d0f4      	beq.n	d5a06 <_Z29igh_sd_log_get_next_file_namePc+0xa>
    {
        return 0;
    }
    else
    {
        next_file.openNext(&sd_root, O_RDONLY); // skip one index
   d5a1c:	2200      	movs	r2, #0
   d5a1e:	490d      	ldr	r1, [pc, #52]	; (d5a54 <_Z29igh_sd_log_get_next_file_namePc+0x58>)
   d5a20:	480d      	ldr	r0, [pc, #52]	; (d5a58 <_Z29igh_sd_log_get_next_file_namePc+0x5c>)
   d5a22:	f001 fbee 	bl	d7202 <_ZN7FatFile8openNextEPS_i>
        next_file.close(); 
   d5a26:	480c      	ldr	r0, [pc, #48]	; (d5a58 <_Z29igh_sd_log_get_next_file_namePc+0x5c>)
   d5a28:	f001 fc60 	bl	d72ec <_ZN7FatFile5closeEv>
        if( next_file.openNext(&sd_root, O_RDONLY) )
   d5a2c:	2200      	movs	r2, #0
   d5a2e:	4909      	ldr	r1, [pc, #36]	; (d5a54 <_Z29igh_sd_log_get_next_file_namePc+0x58>)
   d5a30:	4809      	ldr	r0, [pc, #36]	; (d5a58 <_Z29igh_sd_log_get_next_file_namePc+0x5c>)
   d5a32:	f001 fbe6 	bl	d7202 <_ZN7FatFile8openNextEPS_i>
   d5a36:	2800      	cmp	r0, #0
   d5a38:	d0e5      	beq.n	d5a06 <_Z29igh_sd_log_get_next_file_namePc+0xa>
        {
            next_file.getSFN(next_file_name);
   d5a3a:	4621      	mov	r1, r4
   d5a3c:	4806      	ldr	r0, [pc, #24]	; (d5a58 <_Z29igh_sd_log_get_next_file_namePc+0x5c>)
   d5a3e:	f001 f991 	bl	d6d64 <_ZN7FatFile6getSFNEPc>
            next_file.close(); 
   d5a42:	4805      	ldr	r0, [pc, #20]	; (d5a58 <_Z29igh_sd_log_get_next_file_namePc+0x5c>)
   d5a44:	f001 fc52 	bl	d72ec <_ZN7FatFile5closeEv>
   d5a48:	2001      	movs	r0, #1
        else
        {
            return 0;
        }    
    }
}
   d5a4a:	bd10      	pop	{r4, pc}
   d5a4c:	2003e01c 	.word	0x2003e01c
   d5a50:	000dbf03 	.word	0x000dbf03
   d5a54:	2003df80 	.word	0x2003df80
   d5a58:	2003dad0 	.word	0x2003dad0

000d5a5c <_GLOBAL__sub_I_igh_sd>:
    {
        return 0;
    }

    return 1;
   d5a5c:	b570      	push	{r4, r5, r6, lr}
   d5a5e:	f002 fd71 	bl	d8544 <HAL_Pin_Map>
 */
class FatVolume {
 public:
  /** Create an instance of FatVolume
   */
  FatVolume() : m_fatType(0) {}
   d5a62:	4b27      	ldr	r3, [pc, #156]	; (d5b00 <_GLOBAL__sub_I_igh_sd+0xa4>)

template <HAL_SPI_Interface Interface>
class SpiProxy {
public:
    static SPIClass& instance() {
        static SPIClass instance(Interface);
   d5a64:	4e27      	ldr	r6, [pc, #156]	; (d5b04 <_GLOBAL__sub_I_igh_sd+0xa8>)
#else  // ENABLE_EXTENDED_TRANSFER_CLASS || ENABLE_SDIO_CLASS
class SdSpiCard {
#endif  // ENABLE_EXTENDED_TRANSFER_CLASS || ENABLE_SDIO_CLASS
 public:
  /** Construct an instance of SdSpiCard. */
  SdSpiCard() : m_errorCode(SD_CARD_ERROR_INIT_NOT_CALLED), m_type(0) {}
   d5a66:	2164      	movs	r1, #100	; 0x64
   d5a68:	f883 1460 	strb.w	r1, [r3, #1120]	; 0x460
      dataMode_{dataMode}
  {
  }

  __SPISettings()
  {
   d5a6c:	4926      	ldr	r1, [pc, #152]	; (d5b08 <_GLOBAL__sub_I_igh_sd+0xac>)
   d5a6e:	f8c3 1470 	str.w	r1, [r3, #1136]	; 0x470
   d5a72:	2101      	movs	r1, #1
   d5a74:	f883 1474 	strb.w	r1, [r3, #1140]	; 0x474
   d5a78:	6831      	ldr	r1, [r6, #0]
   d5a7a:	2200      	movs	r2, #0
   d5a7c:	f011 0501 	ands.w	r5, r1, #1
   d5a80:	71da      	strb	r2, [r3, #7]
 * \brief Basic file class.
 */
class FatFile {
 public:
  /** Create an instance. */
  FatFile() : m_attr(FILE_ATTR_CLOSED), m_error(0) {}
   d5a82:	f883 243c 	strb.w	r2, [r3, #1084]	; 0x43c
   d5a86:	f883 243d 	strb.w	r2, [r3, #1085]	; 0x43d
   d5a8a:	f883 246a 	strb.w	r2, [r3, #1130]	; 0x46a
   d5a8e:	f8c3 2478 	str.w	r2, [r3, #1144]	; 0x478
   d5a92:	f883 247c 	strb.w	r2, [r3, #1148]	; 0x47c
   d5a96:	f883 247d 	strb.w	r2, [r3, #1149]	; 0x47d
   d5a9a:	461c      	mov	r4, r3
   d5a9c:	d10a      	bne.n	d5ab4 <_GLOBAL__sub_I_igh_sd+0x58>
   d5a9e:	4630      	mov	r0, r6
   d5aa0:	f7fe fb03 	bl	d40aa <__cxa_guard_acquire>
   d5aa4:	b130      	cbz	r0, d5ab4 <_GLOBAL__sub_I_igh_sd+0x58>
   d5aa6:	4629      	mov	r1, r5
   d5aa8:	4818      	ldr	r0, [pc, #96]	; (d5b0c <_GLOBAL__sub_I_igh_sd+0xb0>)
   d5aaa:	f003 f90b 	bl	d8cc4 <_ZN8SPIClassC1E17HAL_SPI_Interface>
   d5aae:	4630      	mov	r0, r6
   d5ab0:	f7fe fb00 	bl	d40b4 <__cxa_guard_release>
   d5ab4:	4816      	ldr	r0, [pc, #88]	; (d5b10 <_GLOBAL__sub_I_igh_sd+0xb4>)
#if IMPLEMENT_SPI_PORT_SELECTION || defined(DOXYGEN)
  /** Set SPI port number.
   * \param[in] spiPort Hardware SPI port.
   */
  void setPort(SPIClass* spiPort) {
    m_spi = spiPort ? spiPort : &SDCARD_SPI;
   d5ab6:	4b15      	ldr	r3, [pc, #84]	; (d5b0c <_GLOBAL__sub_I_igh_sd+0xb0>)
   d5ab8:	f8c4 346c 	str.w	r3, [r4, #1132]	; 0x46c
   d5abc:	2400      	movs	r4, #0
    virtual int available() = 0;
    virtual int read() = 0;
    virtual int peek() = 0;
    virtual void flush() = 0;

    Stream() {_timeout=1000;}
   d5abe:	f44f 737a 	mov.w	r3, #1000	; 0x3e8
   d5ac2:	7404      	strb	r4, [r0, #16]
   d5ac4:	7444      	strb	r4, [r0, #17]
  protected:
    void setWriteError(int err = 1) { write_error = err; }
    size_t printf_impl(bool newline, const char* format, ...);

  public:
    Print() : write_error(0) {}
   d5ac6:	6044      	str	r4, [r0, #4]
   d5ac8:	6083      	str	r3, [r0, #8]
#include <SPI.h>
#include "SdFat.h"
#include "igh_sd_log.h"

SdFat igh_sd;
File igh_file;
   d5aca:	4a12      	ldr	r2, [pc, #72]	; (d5b14 <_GLOBAL__sub_I_igh_sd+0xb8>)
 * \class File
 * \brief Arduino SD.h style File API
 */
class File : public FatFile, public Stream {
 public:
  File() {}
   d5acc:	4b12      	ldr	r3, [pc, #72]	; (d5b18 <_GLOBAL__sub_I_igh_sd+0xbc>)
   d5ace:	4913      	ldr	r1, [pc, #76]	; (d5b1c <_GLOBAL__sub_I_igh_sd+0xc0>)
   d5ad0:	6003      	str	r3, [r0, #0]
   d5ad2:	f004 fde3 	bl	da69c <__aeabi_atexit>
   d5ad6:	4812      	ldr	r0, [pc, #72]	; (d5b20 <_GLOBAL__sub_I_igh_sd+0xc4>)
 * \class SdFile
 * \brief Class for backward compatibility.
 */
class SdFile : public PrintFile {
 public:
  SdFile() {}
   d5ad8:	4d12      	ldr	r5, [pc, #72]	; (d5b24 <_GLOBAL__sub_I_igh_sd+0xc8>)
   d5ada:	7204      	strb	r4, [r0, #8]
   d5adc:	7244      	strb	r4, [r0, #9]
   d5ade:	6044      	str	r4, [r0, #4]
SdFile sd_root;
   d5ae0:	4a0c      	ldr	r2, [pc, #48]	; (d5b14 <_GLOBAL__sub_I_igh_sd+0xb8>)
   d5ae2:	4911      	ldr	r1, [pc, #68]	; (d5b28 <_GLOBAL__sub_I_igh_sd+0xcc>)
   d5ae4:	6005      	str	r5, [r0, #0]
   d5ae6:	f004 fdd9 	bl	da69c <__aeabi_atexit>
   d5aea:	4810      	ldr	r0, [pc, #64]	; (d5b2c <_GLOBAL__sub_I_igh_sd+0xd0>)
SdFile next_file;
   d5aec:	4a09      	ldr	r2, [pc, #36]	; (d5b14 <_GLOBAL__sub_I_igh_sd+0xb8>)
   d5aee:	7204      	strb	r4, [r0, #8]
   d5af0:	7244      	strb	r4, [r0, #9]
   d5af2:	6044      	str	r4, [r0, #4]
   d5af4:	6005      	str	r5, [r0, #0]
   d5af6:	490c      	ldr	r1, [pc, #48]	; (d5b28 <_GLOBAL__sub_I_igh_sd+0xcc>)
    {
        return 0;
    }

    return 1;
   d5af8:	e8bd 4070 	ldmia.w	sp!, {r4, r5, r6, lr}
#include "igh_sd_log.h"

SdFat igh_sd;
File igh_file;
SdFile sd_root;
SdFile next_file;
   d5afc:	f004 bdce 	b.w	da69c <__aeabi_atexit>
   d5b00:	2003daf4 	.word	0x2003daf4
   d5b04:	2003dabc 	.word	0x2003dabc
   d5b08:	000dbe54 	.word	0x000dbe54
   d5b0c:	2003dac0 	.word	0x2003dac0
   d5b10:	2003dfa4 	.word	0x2003dfa4
   d5b14:	2003d9bc 	.word	0x2003d9bc
   d5b18:	000dbe60 	.word	0x000dbe60
   d5b1c:	000d56f7 	.word	0x000d56f7
   d5b20:	2003df78 	.word	0x2003df78
   d5b24:	000dbe88 	.word	0x000dbe88
   d5b28:	000d56f5 	.word	0x000d56f5
   d5b2c:	2003dac8 	.word	0x2003dac8

000d5b30 <_ZN14CellularSignalD1Ev>:
    int rssi = 0;
    int qual = 0;

    CellularSignal() {}
    CellularSignal(const cellular_signal_t& sig);
    virtual ~CellularSignal() {};
   d5b30:	4770      	bx	lr

000d5b32 <_ZN14CellularSignalD0Ev>:
   d5b32:	b510      	push	{r4, lr}
   d5b34:	2128      	movs	r1, #40	; 0x28
   d5b36:	4604      	mov	r4, r0
   d5b38:	f004 fdbe 	bl	da6b8 <_ZdlPvj>
   d5b3c:	4620      	mov	r0, r4
   d5b3e:	bd10      	pop	{r4, pc}

000d5b40 <_Z19igh_boron_sync_timev>:
/* Local function prototypes */
uint8_t get_int_from_str( uint8_t num );

/* Functions */
void igh_boron_sync_time(void)
{
   d5b40:	b510      	push	{r4, lr}
   d5b42:	f002 fdc7 	bl	d86d4 <HAL_Timer_Get_Milli_Seconds>
    if((millis() - lastSync > ONE_DAY_MILLIS))
   d5b46:	4b08      	ldr	r3, [pc, #32]	; (d5b68 <_Z19igh_boron_sync_timev+0x28>)
   d5b48:	681a      	ldr	r2, [r3, #0]
   d5b4a:	1a80      	subs	r0, r0, r2
   d5b4c:	4a07      	ldr	r2, [pc, #28]	; (d5b6c <_Z19igh_boron_sync_timev+0x2c>)
   d5b4e:	4290      	cmp	r0, r2
   d5b50:	461c      	mov	r4, r3
   d5b52:	d908      	bls.n	d5b66 <_Z19igh_boron_sync_timev+0x26>
    static void sleep(Spark_Sleep_TypeDef sleepMode, long seconds=0) __attribute__ ((deprecated("Please use System.sleep() instead.")))
    { SystemClass::sleep(sleepMode, seconds); }
    static void sleep(uint16_t wakeUpPin, InterruptMode edgeTriggerMode, long seconds=0) __attribute__ ((deprecated("Please use System.sleep() instead.")))
    { SystemClass::sleep(wakeUpPin, edgeTriggerMode, seconds); }

    static bool connected(void) { return spark_cloud_flag_connected(); }
   d5b54:	f003 f80a 	bl	d8b6c <spark_cloud_flag_connected>
        spark_unsubscribe(NULL);
    }

    bool syncTime(void)
    {
        if (!connected()) {
   d5b58:	b110      	cbz	r0, d5b60 <_Z19igh_boron_sync_timev+0x20>
            return false;
        }
        return spark_sync_time(NULL);
   d5b5a:	2000      	movs	r0, #0
   d5b5c:	f003 f816 	bl	d8b8c <spark_sync_time>
   d5b60:	f002 fdb8 	bl	d86d4 <HAL_Timer_Get_Milli_Seconds>
    {
        Particle.syncTime();
        lastSync = millis(); 
   d5b64:	6020      	str	r0, [r4, #0]
   d5b66:	bd10      	pop	{r4, pc}
   d5b68:	2003e000 	.word	0x2003e000
   d5b6c:	05265c00 	.word	0x05265c00

000d5b70 <_Z19igh_boron_unix_timev>:
    }
}

uint32_t igh_boron_unix_time(void)
{
    return (uint32_t)Time.now();
   d5b70:	f003 bbde 	b.w	d9330 <_ZN9TimeClass3nowEv>

000d5b74 <_Z13igh_boron_SoCv>:
}

float igh_boron_SoC(void)
{
    return fuel.getSoC();
   d5b74:	4801      	ldr	r0, [pc, #4]	; (d5b7c <_Z13igh_boron_SoCv+0x8>)
   d5b76:	f003 bcf5 	b.w	d9564 <_ZN9FuelGauge6getSoCEv>
   d5b7a:	bf00      	nop
   d5b7c:	2003e004 	.word	0x2003e004

000d5b80 <_Z16get_int_from_strh>:
        k++; j++;
    }
}

uint8_t get_int_from_str( uint8_t num )
{
   d5b80:	b510      	push	{r4, lr}
    unsigned long location = (unsigned long)strchr(hex_digits_LC, num);
   d5b82:	4c04      	ldr	r4, [pc, #16]	; (d5b94 <_Z16get_int_from_strh+0x14>)
   d5b84:	4601      	mov	r1, r0
   d5b86:	4620      	mov	r0, r4
   d5b88:	f005 fc5c 	bl	db444 <strchr>
    unsigned long origin = (unsigned long)hex_digits_LC;
    return uint8_t(location - origin);
   d5b8c:	1b00      	subs	r0, r0, r4
}
   d5b8e:	b2c0      	uxtb	r0, r0
   d5b90:	bd10      	pop	{r4, pc}
   d5b92:	bf00      	nop
   d5b94:	2003d8f0 	.word	0x2003d8f0

000d5b98 <_Z15igh_boron_setupv>:
{
    return Particle.connected();;
}

void igh_boron_setup(void)
{
   d5b98:	e92d 41ff 	stmdb	sp!, {r0, r1, r2, r3, r4, r5, r6, r7, r8, lr}
   d5b9c:	f002 fd9a 	bl	d86d4 <HAL_Timer_Get_Milli_Seconds>
    lastSync = millis();
   d5ba0:	4b14      	ldr	r3, [pc, #80]	; (d5bf4 <_Z15igh_boron_setupv+0x5c>)
   d5ba2:	6018      	str	r0, [r3, #0]
   d5ba4:	4668      	mov	r0, sp
   d5ba6:	f002 ffe9 	bl	d8b7c <spark_deviceID>
    // get serial number 
    memcpy( deviceID_string, System.deviceID(), sizeof(deviceID_string) );
   d5baa:	9b00      	ldr	r3, [sp, #0]
   d5bac:	4a12      	ldr	r2, [pc, #72]	; (d5bf8 <_Z15igh_boron_setupv+0x60>)
   d5bae:	f103 0118 	add.w	r1, r3, #24
   d5bb2:	4617      	mov	r7, r2
   d5bb4:	f853 0b04 	ldr.w	r0, [r3], #4
   d5bb8:	f842 0b04 	str.w	r0, [r2], #4
   d5bbc:	428b      	cmp	r3, r1
   d5bbe:	d1f9      	bne.n	d5bb4 <_Z15igh_boron_setupv+0x1c>
   d5bc0:	4668      	mov	r0, sp
   d5bc2:	f003 f9e1 	bl	d8f88 <_ZN6StringD1Ev>
   d5bc6:	4e0d      	ldr	r6, [pc, #52]	; (d5bfc <_Z15igh_boron_setupv+0x64>)
   d5bc8:	2500      	movs	r5, #0

    uint8_t k = 0; uint8_t j = 0;
    while( k < sizeof(deviceID_string) )
    {
        boron_serial_number[j] = get_int_from_str(deviceID_string[k]) << 4;
   d5bca:	5d78      	ldrb	r0, [r7, r5]
   d5bcc:	f7ff ffd8 	bl	d5b80 <_Z16get_int_from_strh>
   d5bd0:	eb07 0805 	add.w	r8, r7, r5
   d5bd4:	0100      	lsls	r0, r0, #4
   d5bd6:	b2c4      	uxtb	r4, r0
        k++;
        boron_serial_number[j] |= get_int_from_str(deviceID_string[k]);
   d5bd8:	f898 0001 	ldrb.w	r0, [r8, #1]
    memcpy( deviceID_string, System.deviceID(), sizeof(deviceID_string) );

    uint8_t k = 0; uint8_t j = 0;
    while( k < sizeof(deviceID_string) )
    {
        boron_serial_number[j] = get_int_from_str(deviceID_string[k]) << 4;
   d5bdc:	f806 4f01 	strb.w	r4, [r6, #1]!
        k++;
        boron_serial_number[j] |= get_int_from_str(deviceID_string[k]);
   d5be0:	f7ff ffce 	bl	d5b80 <_Z16get_int_from_strh>
   d5be4:	3502      	adds	r5, #2
   d5be6:	4320      	orrs	r0, r4
    lastSync = millis();
    // get serial number 
    memcpy( deviceID_string, System.deviceID(), sizeof(deviceID_string) );

    uint8_t k = 0; uint8_t j = 0;
    while( k < sizeof(deviceID_string) )
   d5be8:	2d18      	cmp	r5, #24
    {
        boron_serial_number[j] = get_int_from_str(deviceID_string[k]) << 4;
        k++;
        boron_serial_number[j] |= get_int_from_str(deviceID_string[k]);
   d5bea:	7030      	strb	r0, [r6, #0]
    lastSync = millis();
    // get serial number 
    memcpy( deviceID_string, System.deviceID(), sizeof(deviceID_string) );

    uint8_t k = 0; uint8_t j = 0;
    while( k < sizeof(deviceID_string) )
   d5bec:	d1ed      	bne.n	d5bca <_Z15igh_boron_setupv+0x32>
        boron_serial_number[j] = get_int_from_str(deviceID_string[k]) << 4;
        k++;
        boron_serial_number[j] |= get_int_from_str(deviceID_string[k]);
        k++; j++;
    }
}
   d5bee:	b004      	add	sp, #16
   d5bf0:	e8bd 81f0 	ldmia.w	sp!, {r4, r5, r6, r7, r8, pc}
   d5bf4:	2003e000 	.word	0x2003e000
   d5bf8:	2003e684 	.word	0x2003e684
   d5bfc:	2003e69b 	.word	0x2003e69b

000d5c00 <_Z17igh_boron_servicev>:
    return uint8_t(location - origin);
}

void igh_boron_service(void)
{
    igh_boron_sync_time();
   d5c00:	f7ff bf9e 	b.w	d5b40 <_Z19igh_boron_sync_timev>

000d5c04 <_GLOBAL__sub_I_lastSync>:
    Serial.print("network status:   "); Serial.println(igh_boron_connecetd_to_network());
    Serial.print("signal strength:  "); Serial.println(igh_boron_ss());
    Serial.print("signal quality:   "); Serial.println(igh_boron_sq());
    Serial.print("Battery Voltage:  "); Serial.println(igh_boron_voltage());
    Serial.print("Battery SOC:      "); Serial.println(igh_boron_SoC());
   d5c04:	b570      	push	{r4, r5, r6, lr}
   d5c06:	f002 fc9d 	bl	d8544 <HAL_Pin_Map>
class CellularSignal : public particle::Signal, public Printable {
public:
    int rssi = 0;
    int qual = 0;

    CellularSignal() {}
   d5c0a:	4c10      	ldr	r4, [pc, #64]	; (d5c4c <_GLOBAL__sub_I_lastSync+0x48>)
   d5c0c:	4b10      	ldr	r3, [pc, #64]	; (d5c50 <_GLOBAL__sub_I_lastSync+0x4c>)
   d5c0e:	6023      	str	r3, [r4, #0]
   d5c10:	2500      	movs	r5, #0
   d5c12:	3328      	adds	r3, #40	; 0x28
   d5c14:	4629      	mov	r1, r5
#define ONE_DAY_MILLIS (24 * 60 * 60 * 1000)

unsigned long lastSync;
bool connected_to_cloud;
bool connected_to_network;
CellularSignal signal;
   d5c16:	4e0f      	ldr	r6, [pc, #60]	; (d5c54 <_GLOBAL__sub_I_lastSync+0x50>)
   d5c18:	6063      	str	r3, [r4, #4]
   d5c1a:	2218      	movs	r2, #24
   d5c1c:	f104 0010 	add.w	r0, r4, #16
   d5c20:	60a5      	str	r5, [r4, #8]
   d5c22:	60e5      	str	r5, [r4, #12]
   d5c24:	f005 fbde 	bl	db3e4 <memset>
   d5c28:	4620      	mov	r0, r4
float signal_quality, signal_strength;
FuelGauge fuel;
   d5c2a:	4c0b      	ldr	r4, [pc, #44]	; (d5c58 <_GLOBAL__sub_I_lastSync+0x54>)
#define ONE_DAY_MILLIS (24 * 60 * 60 * 1000)

unsigned long lastSync;
bool connected_to_cloud;
bool connected_to_network;
CellularSignal signal;
   d5c2c:	490b      	ldr	r1, [pc, #44]	; (d5c5c <_GLOBAL__sub_I_lastSync+0x58>)
   d5c2e:	4632      	mov	r2, r6
   d5c30:	f004 fd34 	bl	da69c <__aeabi_atexit>
float signal_quality, signal_strength;
FuelGauge fuel;
   d5c34:	4629      	mov	r1, r5
   d5c36:	4620      	mov	r0, r4
   d5c38:	f003 fc54 	bl	d94e4 <_ZN9FuelGaugeC1Eb>
   d5c3c:	4632      	mov	r2, r6
   d5c3e:	4620      	mov	r0, r4
   d5c40:	4907      	ldr	r1, [pc, #28]	; (d5c60 <_GLOBAL__sub_I_lastSync+0x5c>)
    Serial.print("network status:   "); Serial.println(igh_boron_connecetd_to_network());
    Serial.print("signal strength:  "); Serial.println(igh_boron_ss());
    Serial.print("signal quality:   "); Serial.println(igh_boron_sq());
    Serial.print("Battery Voltage:  "); Serial.println(igh_boron_voltage());
    Serial.print("Battery SOC:      "); Serial.println(igh_boron_SoC());
   d5c42:	e8bd 4070 	ldmia.w	sp!, {r4, r5, r6, lr}
unsigned long lastSync;
bool connected_to_cloud;
bool connected_to_network;
CellularSignal signal;
float signal_quality, signal_strength;
FuelGauge fuel;
   d5c46:	f004 bd29 	b.w	da69c <__aeabi_atexit>
   d5c4a:	bf00      	nop
   d5c4c:	2003dfd8 	.word	0x2003dfd8
   d5c50:	000dc0c4 	.word	0x000dc0c4
   d5c54:	2003d9bc 	.word	0x2003d9bc
   d5c58:	2003e004 	.word	0x2003e004
   d5c5c:	000d5b31 	.word	0x000d5b31
   d5c60:	000d9503 	.word	0x000d9503

000d5c64 <_Z21igh_rfm69_set_bitratehh>:
    // configure the encrytion key, should be standard for all devices in the fleet
    igh_radio.encrypt(ENCRYPTKEY);
} 

void igh_rfm69_set_bitrate(uint8_t msb, uint8_t lsb)
{
   d5c64:	b538      	push	{r3, r4, r5, lr}
    igh_radio.writeReg(REG_BITRATEMSB, msb); 
   d5c66:	4c07      	ldr	r4, [pc, #28]	; (d5c84 <_Z21igh_rfm69_set_bitratehh+0x20>)
    // configure the encrytion key, should be standard for all devices in the fleet
    igh_radio.encrypt(ENCRYPTKEY);
} 

void igh_rfm69_set_bitrate(uint8_t msb, uint8_t lsb)
{
   d5c68:	460d      	mov	r5, r1
    igh_radio.writeReg(REG_BITRATEMSB, msb); 
   d5c6a:	4602      	mov	r2, r0
   d5c6c:	2103      	movs	r1, #3
   d5c6e:	4620      	mov	r0, r4
   d5c70:	f002 f96e 	bl	d7f50 <_ZN5RFM698writeRegEhh>
    igh_radio.writeReg(REG_BITRATELSB, lsb);
   d5c74:	462a      	mov	r2, r5
   d5c76:	4620      	mov	r0, r4
   d5c78:	2104      	movs	r1, #4
}
   d5c7a:	e8bd 4038 	ldmia.w	sp!, {r3, r4, r5, lr}
} 

void igh_rfm69_set_bitrate(uint8_t msb, uint8_t lsb)
{
    igh_radio.writeReg(REG_BITRATEMSB, msb); 
    igh_radio.writeReg(REG_BITRATELSB, lsb);
   d5c7e:	f002 b967 	b.w	d7f50 <_ZN5RFM698writeRegEhh>
   d5c82:	bf00      	nop
   d5c84:	2003e00c 	.word	0x2003e00c

000d5c88 <_Z25igh_rfm69_set_power_levelh>:
}

void igh_rfm69_set_power_level(uint8_t pwrlvl)
{
    igh_radio.setPowerLevel(pwrlvl);
   d5c88:	4601      	mov	r1, r0
   d5c8a:	4801      	ldr	r0, [pc, #4]	; (d5c90 <_Z25igh_rfm69_set_power_levelh+0x8>)
   d5c8c:	f002 b972 	b.w	d7f74 <_ZN5RFM6913setPowerLevelEh>
   d5c90:	2003e00c 	.word	0x2003e00c

000d5c94 <_Z15igh_rfm69_resetv>:
}

void igh_rfm69_reset(void)
{
   d5c94:	b508      	push	{r3, lr}
    digitalWrite(RFM69_RST, HIGH);
   d5c96:	2101      	movs	r1, #1
   d5c98:	2006      	movs	r0, #6
   d5c9a:	f004 fc3e 	bl	da51a <digitalWrite>
    delay(100);
   d5c9e:	2064      	movs	r0, #100	; 0x64
   d5ca0:	f003 fb62 	bl	d9368 <delay>
    digitalWrite(RFM69_RST, LOW);
   d5ca4:	2006      	movs	r0, #6
   d5ca6:	2100      	movs	r1, #0
   d5ca8:	f004 fc37 	bl	da51a <digitalWrite>
    delay(100);
   d5cac:	2064      	movs	r0, #100	; 0x64
}
   d5cae:	e8bd 4008 	ldmia.w	sp!, {r3, lr}
void igh_rfm69_reset(void)
{
    digitalWrite(RFM69_RST, HIGH);
    delay(100);
    digitalWrite(RFM69_RST, LOW);
    delay(100);
   d5cb2:	f003 bb59 	b.w	d9368 <delay>
	...

000d5cb8 <_Z15igh_rfm69_setupv>:
uint8_t rfm69_powerlevel  = 10; // default power level, about 100M line of site

RFM69 igh_radio = RFM69(RFM69_CS, RFM69_IRQ, IS_RFM69HCW, RFM69_IRQN);

void igh_rfm69_setup(void)
{
   d5cb8:	b538      	push	{r3, r4, r5, lr}
    // first reset the module
    pinMode(RFM69_RST, OUTPUT);

    igh_rfm69_reset();
    
    if( false == igh_radio.initialize( FREQUENCY, RFM69_NODE_ID, RFM69_NETWORK_ID) )
   d5cba:	4c23      	ldr	r4, [pc, #140]	; (d5d48 <_Z15igh_rfm69_setupv+0x90>)
RFM69 igh_radio = RFM69(RFM69_CS, RFM69_IRQ, IS_RFM69HCW, RFM69_IRQN);

void igh_rfm69_setup(void)
{
    // first reset the module
    pinMode(RFM69_RST, OUTPUT);
   d5cbc:	2101      	movs	r1, #1
   d5cbe:	2006      	movs	r0, #6
   d5cc0:	f004 fc1a 	bl	da4f8 <pinMode>

    igh_rfm69_reset();
   d5cc4:	f7ff ffe6 	bl	d5c94 <_Z15igh_rfm69_resetv>
    
    if( false == igh_radio.initialize( FREQUENCY, RFM69_NODE_ID, RFM69_NETWORK_ID) )
   d5cc8:	f894 3022 	ldrb.w	r3, [r4, #34]	; 0x22
   d5ccc:	f894 2023 	ldrb.w	r2, [r4, #35]	; 0x23
   d5cd0:	481e      	ldr	r0, [pc, #120]	; (d5d4c <_Z15igh_rfm69_setupv+0x94>)
   d5cd2:	215b      	movs	r1, #91	; 0x5b
   d5cd4:	f002 fb12 	bl	d82fc <_ZN5RFM6910initializeEhhh>
   d5cd8:	b920      	cbnz	r0, d5ce4 <_Z15igh_rfm69_setupv+0x2c>
    Serial.println("RFM69 INIT ERROR");
   d5cda:	f003 fde5 	bl	d98a8 <_Z16_fetch_usbserialv>
   d5cde:	491c      	ldr	r1, [pc, #112]	; (d5d50 <_Z15igh_rfm69_setupv+0x98>)
   d5ce0:	f003 fa59 	bl	d9196 <_ZN5Print7printlnEPKc>

    Serial.print( "NEW SHIELD RF ID: " ); Serial.println( RFM69_NODE_ID);
   d5ce4:	f003 fde0 	bl	d98a8 <_Z16_fetch_usbserialv>
   d5ce8:	491a      	ldr	r1, [pc, #104]	; (d5d54 <_Z15igh_rfm69_setupv+0x9c>)
   d5cea:	f003 fa41 	bl	d9170 <_ZN5Print5printEPKc>
   d5cee:	f003 fddb 	bl	d98a8 <_Z16_fetch_usbserialv>
            t = print('-');
            val = -n;
        } else {
            val = n;
        }
        return printNumber(val, base) + t;
   d5cf2:	220a      	movs	r2, #10
   d5cf4:	f894 1023 	ldrb.w	r1, [r4, #35]	; 0x23
   d5cf8:	4605      	mov	r5, r0
   d5cfa:	f003 fa56 	bl	d91aa <_ZN5Print11printNumberEmh>
    size_t println(char);
    template <typename T, std::enable_if_t<std::is_integral<T>::value || std::is_convertible<T, unsigned long long>::value ||
        std::is_convertible<T, long long>::value, int> = 0>
    size_t println(T b, int base = DEC) {
        size_t n = print(b, base);
        n += println();
   d5cfe:	4628      	mov	r0, r5
   d5d00:	f003 fa3d 	bl	d917e <_ZN5Print7printlnEv>
    Serial.print( "NEW NETWORK ID: " ); Serial.println( RFM69_NETWORK_ID);
   d5d04:	f003 fdd0 	bl	d98a8 <_Z16_fetch_usbserialv>
   d5d08:	4913      	ldr	r1, [pc, #76]	; (d5d58 <_Z15igh_rfm69_setupv+0xa0>)
   d5d0a:	f003 fa31 	bl	d9170 <_ZN5Print5printEPKc>
   d5d0e:	f003 fdcb 	bl	d98a8 <_Z16_fetch_usbserialv>
            t = print('-');
            val = -n;
        } else {
            val = n;
        }
        return printNumber(val, base) + t;
   d5d12:	220a      	movs	r2, #10
   d5d14:	f894 1022 	ldrb.w	r1, [r4, #34]	; 0x22
   d5d18:	4605      	mov	r5, r0
   d5d1a:	f003 fa46 	bl	d91aa <_ZN5Print11printNumberEmh>
    size_t println(char);
    template <typename T, std::enable_if_t<std::is_integral<T>::value || std::is_convertible<T, unsigned long long>::value ||
        std::is_convertible<T, long long>::value, int> = 0>
    size_t println(T b, int base = DEC) {
        size_t n = print(b, base);
        n += println();
   d5d1e:	4628      	mov	r0, r5
   d5d20:	f003 fa2d 	bl	d917e <_ZN5Print7printlnEv>

    igh_radio.setHighPower(); // This should only be called for RFM69HCW & HW
   d5d24:	2101      	movs	r1, #1
   d5d26:	4809      	ldr	r0, [pc, #36]	; (d5d4c <_Z15igh_rfm69_setupv+0x94>)
   d5d28:	f002 fa0e 	bl	d8148 <_ZN5RFM6912setHighPowerEb>

    igh_rfm69_set_bitrate(RF_BITRATEMSB_9600, RF_BITRATELSB_9600); // set to 9.6Kbps
   d5d2c:	2105      	movs	r1, #5
   d5d2e:	200d      	movs	r0, #13
   d5d30:	f7ff ff98 	bl	d5c64 <_Z21igh_rfm69_set_bitratehh>

    igh_rfm69_set_power_level(rfm69_powerlevel);
   d5d34:	4b09      	ldr	r3, [pc, #36]	; (d5d5c <_Z15igh_rfm69_setupv+0xa4>)
   d5d36:	7818      	ldrb	r0, [r3, #0]
   d5d38:	f7ff ffa6 	bl	d5c88 <_Z25igh_rfm69_set_power_levelh>

    // configure the encrytion key, should be standard for all devices in the fleet
    igh_radio.encrypt(ENCRYPTKEY);
   d5d3c:	4908      	ldr	r1, [pc, #32]	; (d5d60 <_Z15igh_rfm69_setupv+0xa8>)
   d5d3e:	4803      	ldr	r0, [pc, #12]	; (d5d4c <_Z15igh_rfm69_setupv+0x94>)
} 
   d5d40:	e8bd 4038 	ldmia.w	sp!, {r3, r4, r5, lr}
    igh_rfm69_set_bitrate(RF_BITRATEMSB_9600, RF_BITRATELSB_9600); // set to 9.6Kbps

    igh_rfm69_set_power_level(rfm69_powerlevel);

    // configure the encrytion key, should be standard for all devices in the fleet
    igh_radio.encrypt(ENCRYPTKEY);
   d5d44:	f002 baae 	b.w	d82a4 <_ZN5RFM697encryptEPKc>
   d5d48:	2003e604 	.word	0x2003e604
   d5d4c:	2003e00c 	.word	0x2003e00c
   d5d50:	000dbf05 	.word	0x000dbf05
   d5d54:	000dbf16 	.word	0x000dbf16
   d5d58:	000dbf29 	.word	0x000dbf29
   d5d5c:	2003d901 	.word	0x2003d901
   d5d60:	000dbf3a 	.word	0x000dbf3a

000d5d64 <_Z27igh_rfm69_receive_raw_bytesPhh>:
    }
    
}

uint8_t igh_rfm69_receive_raw_bytes( uint8_t *buffer, uint8_t len )
{
   d5d64:	b570      	push	{r4, r5, r6, lr}
   d5d66:	4605      	mov	r5, r0
    uint8_t rx_len = 0;
    if ( igh_radio.receiveDone() )
   d5d68:	4809      	ldr	r0, [pc, #36]	; (d5d90 <_Z27igh_rfm69_receive_raw_bytesPhh+0x2c>)
    }
    
}

uint8_t igh_rfm69_receive_raw_bytes( uint8_t *buffer, uint8_t len )
{
   d5d6a:	460e      	mov	r6, r1
    uint8_t rx_len = 0;
    if ( igh_radio.receiveDone() )
   d5d6c:	f002 f9cc 	bl	d8108 <_ZN5RFM6911receiveDoneEv>
   d5d70:	b160      	cbz	r0, d5d8c <_Z27igh_rfm69_receive_raw_bytesPhh+0x28>
    {
        if( igh_radio.DATALEN <= len )
   d5d72:	4c08      	ldr	r4, [pc, #32]	; (d5d94 <_Z27igh_rfm69_receive_raw_bytesPhh+0x30>)
   d5d74:	7823      	ldrb	r3, [r4, #0]
   d5d76:	42b3      	cmp	r3, r6
   d5d78:	d807      	bhi.n	d5d8a <_Z27igh_rfm69_receive_raw_bytesPhh+0x26>
        {
            memcpy( buffer, (uint8_t *)igh_radio.DATA, igh_radio.DATALEN);
   d5d7a:	7822      	ldrb	r2, [r4, #0]
   d5d7c:	4906      	ldr	r1, [pc, #24]	; (d5d98 <_Z27igh_rfm69_receive_raw_bytesPhh+0x34>)
   d5d7e:	4628      	mov	r0, r5
   d5d80:	f005 fb25 	bl	db3ce <memcpy>
            rx_len = igh_radio.DATALEN;
   d5d84:	7820      	ldrb	r0, [r4, #0]
   d5d86:	b2c0      	uxtb	r0, r0
   d5d88:	bd70      	pop	{r4, r5, r6, pc}
    
}

uint8_t igh_rfm69_receive_raw_bytes( uint8_t *buffer, uint8_t len )
{
    uint8_t rx_len = 0;
   d5d8a:	2000      	movs	r0, #0
            memcpy( buffer, (uint8_t *)igh_radio.DATA, igh_radio.DATALEN);
            rx_len = igh_radio.DATALEN;
        }
    }
    return rx_len;
}
   d5d8c:	bd70      	pop	{r4, r5, r6, pc}
   d5d8e:	bf00      	nop
   d5d90:	2003e00c 	.word	0x2003e00c
   d5d94:	2003e083 	.word	0x2003e083
   d5d98:	2003e046 	.word	0x2003e046

000d5d9c <_Z17igh_rfm69_servicev>:

void igh_rfm69_service( void )
{
   d5d9c:	b510      	push	{r4, lr}
    // if new settings have been sent, re initialize the module
    if( true == initialize_rfm69 )
   d5d9e:	4c04      	ldr	r4, [pc, #16]	; (d5db0 <_Z17igh_rfm69_servicev+0x14>)
   d5da0:	7823      	ldrb	r3, [r4, #0]
   d5da2:	2b01      	cmp	r3, #1
   d5da4:	d103      	bne.n	d5dae <_Z17igh_rfm69_servicev+0x12>
    {
        igh_rfm69_setup();
   d5da6:	f7ff ff87 	bl	d5cb8 <_Z15igh_rfm69_setupv>
        initialize_rfm69 = false;
   d5daa:	2300      	movs	r3, #0
   d5dac:	7023      	strb	r3, [r4, #0]
   d5dae:	bd10      	pop	{r4, pc}
   d5db0:	2003d9c1 	.word	0x2003d9c1

000d5db4 <_GLOBAL__sub_I_NETWORKID>:
    }
   d5db4:	b508      	push	{r3, lr}
   d5db6:	f002 fbc5 	bl	d8544 <HAL_Pin_Map>
    static volatile byte ACK_REQUESTED;
    static volatile byte ACK_RECEIVED; /// Should be polled immediately after sending a packet with ACK request
    static volatile int RSSI; //most accurate RSSI during reception (closest to the reception)
    static volatile byte _mode; //should be protected?

    RFM69(byte slaveSelectPin=RF69_SPI_CS, byte interruptPin=RF69_IRQ_PIN, bool isRFM69HW=false, byte interruptNum=RF69_IRQ_NUM) {
   d5dba:	4b08      	ldr	r3, [pc, #32]	; (d5ddc <_GLOBAL__sub_I_NETWORKID+0x28>)
   d5dbc:	4a08      	ldr	r2, [pc, #32]	; (d5de0 <_GLOBAL__sub_I_NETWORKID+0x2c>)
   d5dbe:	601a      	str	r2, [r3, #0]
      _slaveSelectPin = slaveSelectPin;
   d5dc0:	2211      	movs	r2, #17
      _interruptPin = interruptPin;
      _interruptNum = interruptNum;
      _mode = RF69_MODE_STANDBY;
   d5dc2:	4908      	ldr	r1, [pc, #32]	; (d5de4 <_GLOBAL__sub_I_NETWORKID+0x30>)
    static volatile byte ACK_RECEIVED; /// Should be polled immediately after sending a packet with ACK request
    static volatile int RSSI; //most accurate RSSI during reception (closest to the reception)
    static volatile byte _mode; //should be protected?

    RFM69(byte slaveSelectPin=RF69_SPI_CS, byte interruptPin=RF69_IRQ_PIN, bool isRFM69HW=false, byte interruptNum=RF69_IRQ_NUM) {
      _slaveSelectPin = slaveSelectPin;
   d5dc4:	711a      	strb	r2, [r3, #4]
      _interruptPin = interruptPin;
   d5dc6:	2208      	movs	r2, #8
   d5dc8:	715a      	strb	r2, [r3, #5]
      _interruptNum = interruptNum;
   d5dca:	719a      	strb	r2, [r3, #6]
      _mode = RF69_MODE_STANDBY;
   d5dcc:	2201      	movs	r2, #1
   d5dce:	700a      	strb	r2, [r1, #0]
      _promiscuousMode = false;
   d5dd0:	2100      	movs	r1, #0
   d5dd2:	7219      	strb	r1, [r3, #8]
      _powerLevel = 31;
   d5dd4:	211f      	movs	r1, #31
   d5dd6:	7259      	strb	r1, [r3, #9]
      _isRFM69HW = isRFM69HW;
   d5dd8:	729a      	strb	r2, [r3, #10]
   d5dda:	bd08      	pop	{r3, pc}
   d5ddc:	2003e00c 	.word	0x2003e00c
   d5de0:	000dbf74 	.word	0x000dbf74
   d5de4:	2003e084 	.word	0x2003e084

000d5de8 <_ZN9TCPClientD1Ev>:
class TCPClient : public Client {

public:
    TCPClient();
    TCPClient(sock_handle_t sock);
    virtual ~TCPClient() {};
   d5de8:	b538      	push	{r3, r4, r5, lr}
      // Does not throw if __r._M_get_use_count() == 0, caller must check.
      explicit __shared_count(const __weak_count<_Lp>& __r, std::nothrow_t);

      ~__shared_count() noexcept
      {
	if (_M_pi != nullptr)
   d5dea:	6984      	ldr	r4, [r0, #24]
   d5dec:	4b0a      	ldr	r3, [pc, #40]	; (d5e18 <_ZN9TCPClientD1Ev+0x30>)
   d5dee:	6003      	str	r3, [r0, #0]
   d5df0:	4605      	mov	r5, r0
   d5df2:	b17c      	cbz	r4, d5e14 <_ZN9TCPClientD1Ev+0x2c>

  template<>
    inline void
    _Sp_counted_base<_S_single>::_M_release() noexcept
    {
      if (--_M_use_count == 0)
   d5df4:	6863      	ldr	r3, [r4, #4]
   d5df6:	3b01      	subs	r3, #1
   d5df8:	6063      	str	r3, [r4, #4]
   d5dfa:	b95b      	cbnz	r3, d5e14 <_ZN9TCPClientD1Ev+0x2c>
        {
          _M_dispose();
   d5dfc:	6823      	ldr	r3, [r4, #0]
   d5dfe:	4620      	mov	r0, r4
   d5e00:	689b      	ldr	r3, [r3, #8]
   d5e02:	4798      	blx	r3
          if (--_M_weak_count == 0)
   d5e04:	68a3      	ldr	r3, [r4, #8]
   d5e06:	3b01      	subs	r3, #1
   d5e08:	60a3      	str	r3, [r4, #8]
   d5e0a:	b91b      	cbnz	r3, d5e14 <_ZN9TCPClientD1Ev+0x2c>
            _M_destroy();
   d5e0c:	6823      	ldr	r3, [r4, #0]
   d5e0e:	4620      	mov	r0, r4
   d5e10:	68db      	ldr	r3, [r3, #12]
   d5e12:	4798      	blx	r3
   d5e14:	4628      	mov	r0, r5
   d5e16:	bd38      	pop	{r3, r4, r5, pc}
   d5e18:	000dc218 	.word	0x000dc218

000d5e1c <_ZN9TCPClientD0Ev>:
   d5e1c:	b510      	push	{r4, lr}
   d5e1e:	4604      	mov	r4, r0
   d5e20:	f7ff ffe2 	bl	d5de8 <_ZN9TCPClientD1Ev>
   d5e24:	4620      	mov	r0, r4
   d5e26:	211c      	movs	r1, #28
   d5e28:	f004 fc46 	bl	da6b8 <_ZdlPvj>
   d5e2c:	4620      	mov	r0, r4
   d5e2e:	bd10      	pop	{r4, pc}

000d5e30 <_ZN4MQTT10initializeEPcPhtiPFvS0_S1_jEi>:

    if (buffer != NULL)
      delete[] buffer;
}

void MQTT::initialize(char* domain, uint8_t *ip, uint16_t port, int keepalive, void (*callback)(char*,uint8_t*,unsigned int), int maxpacketsize) {
   d5e30:	b538      	push	{r3, r4, r5, lr}
   d5e32:	461d      	mov	r5, r3
    this->callback = callback;
   d5e34:	9b05      	ldr	r3, [sp, #20]
   d5e36:	6303      	str	r3, [r0, #48]	; 0x30
    this->qoscallback = NULL;
   d5e38:	2300      	movs	r3, #0

    if (buffer != NULL)
      delete[] buffer;
}

void MQTT::initialize(char* domain, uint8_t *ip, uint16_t port, int keepalive, void (*callback)(char*,uint8_t*,unsigned int), int maxpacketsize) {
   d5e3a:	4604      	mov	r4, r0
    this->callback = callback;
    this->qoscallback = NULL;
   d5e3c:	6343      	str	r3, [r0, #52]	; 0x34
    if (ip != NULL)
   d5e3e:	b102      	cbz	r2, d5e42 <_ZN4MQTT10initializeEPcPhtiPFvS0_S1_jEi+0x12>
        this->ip = ip;
   d5e40:	6482      	str	r2, [r0, #72]	; 0x48
    if (domain != NULL)
   d5e42:	b119      	cbz	r1, d5e4c <_ZN4MQTT10initializeEPcPhtiPFvS0_S1_jEi+0x1c>
        this->domain = domain;
   d5e44:	f104 0038 	add.w	r0, r4, #56	; 0x38
   d5e48:	f003 f92c 	bl	d90a4 <_ZN6StringaSEPKc>
    this->port = port;
    this->keepalive = keepalive;
   d5e4c:	9b04      	ldr	r3, [sp, #16]
   d5e4e:	6523      	str	r3, [r4, #80]	; 0x50

    // if maxpacketsize is over MQTT_MAX_PACKET_SIZE.
    this->maxpacketsize = (maxpacketsize <= MQTT_MAX_PACKET_SIZE ? MQTT_MAX_PACKET_SIZE : maxpacketsize);
   d5e50:	9b06      	ldr	r3, [sp, #24]
    if (buffer != NULL)
   d5e52:	69e0      	ldr	r0, [r4, #28]
    this->qoscallback = NULL;
    if (ip != NULL)
        this->ip = ip;
    if (domain != NULL)
        this->domain = domain;
    this->port = port;
   d5e54:	f8a4 504c 	strh.w	r5, [r4, #76]	; 0x4c
    this->keepalive = keepalive;

    // if maxpacketsize is over MQTT_MAX_PACKET_SIZE.
    this->maxpacketsize = (maxpacketsize <= MQTT_MAX_PACKET_SIZE ? MQTT_MAX_PACKET_SIZE : maxpacketsize);
   d5e58:	2bff      	cmp	r3, #255	; 0xff
   d5e5a:	bfb8      	it	lt
   d5e5c:	23ff      	movlt	r3, #255	; 0xff
   d5e5e:	f8a4 3054 	strh.w	r3, [r4, #84]	; 0x54
    if (buffer != NULL)
   d5e62:	b108      	cbz	r0, d5e68 <_ZN4MQTT10initializeEPcPhtiPFvS0_S1_jEi+0x38>
      delete[] buffer;
   d5e64:	f7fe f91f 	bl	d40a6 <_ZdaPv>
    buffer = new uint8_t[this->maxpacketsize];
   d5e68:	f8b4 0054 	ldrh.w	r0, [r4, #84]	; 0x54
   d5e6c:	f7fe f917 	bl	d409e <_Znaj>
   d5e70:	61e0      	str	r0, [r4, #28]
   d5e72:	bd38      	pop	{r3, r4, r5, pc}

000d5e74 <_ZN4MQTTC1EPctPFvS0_PhjE>:
#define MQTTQOS2_HEADER_MASK        (2 << 1)

#define DUP_FLAG_OFF_MASK           (0<<3)
#define DUP_FLAG_ON_MASK            (1<<3)

MQTT::MQTT(char* domain, uint16_t port, void (*callback)(char*,uint8_t*,unsigned int)) {
   d5e74:	e92d 41ff 	stmdb	sp!, {r0, r1, r2, r3, r4, r5, r6, r7, r8, lr}
   d5e78:	4604      	mov	r4, r0
   d5e7a:	2500      	movs	r5, #0
   d5e7c:	4617      	mov	r7, r2
   d5e7e:	4698      	mov	r8, r3
   d5e80:	460e      	mov	r6, r1
   d5e82:	f004 fa41 	bl	da308 <_ZN9TCPClientC1Ev>
   d5e86:	61e5      	str	r5, [r4, #28]
   d5e88:	490a      	ldr	r1, [pc, #40]	; (d5eb4 <_ZN4MQTTC1EPctPFvS0_PhjE+0x40>)
   d5e8a:	f104 0038 	add.w	r0, r4, #56	; 0x38
   d5e8e:	f003 f8c2 	bl	d9016 <_ZN6StringC1EPK19__FlashStringHelper>
    this->initialize(domain, NULL, port, MQTT_DEFAULT_KEEPALIVE, callback, MQTT_MAX_PACKET_SIZE);
   d5e92:	23ff      	movs	r3, #255	; 0xff
   d5e94:	9302      	str	r3, [sp, #8]
   d5e96:	230f      	movs	r3, #15
   d5e98:	9300      	str	r3, [sp, #0]
   d5e9a:	4620      	mov	r0, r4
#define MQTTQOS2_HEADER_MASK        (2 << 1)

#define DUP_FLAG_OFF_MASK           (0<<3)
#define DUP_FLAG_ON_MASK            (1<<3)

MQTT::MQTT(char* domain, uint16_t port, void (*callback)(char*,uint8_t*,unsigned int)) {
   d5e9c:	64a5      	str	r5, [r4, #72]	; 0x48
    this->initialize(domain, NULL, port, MQTT_DEFAULT_KEEPALIVE, callback, MQTT_MAX_PACKET_SIZE);
   d5e9e:	f8cd 8004 	str.w	r8, [sp, #4]
   d5ea2:	463b      	mov	r3, r7
   d5ea4:	462a      	mov	r2, r5
   d5ea6:	4631      	mov	r1, r6
   d5ea8:	f7ff ffc2 	bl	d5e30 <_ZN4MQTT10initializeEPcPhtiPFvS0_S1_jEi>
}
   d5eac:	4620      	mov	r0, r4
   d5eae:	b004      	add	sp, #16
   d5eb0:	e8bd 81f0 	ldmia.w	sp!, {r4, r5, r6, r7, r8, pc}
   d5eb4:	000dc058 	.word	0x000dc058

000d5eb8 <_ZN4MQTT8readByteEv>:
        _client.stop();
    }
    return false;
}

uint8_t MQTT::readByte() {
   d5eb8:	b510      	push	{r4, lr}
   d5eba:	4604      	mov	r4, r0
    while(!_client.available()) {}
   d5ebc:	4620      	mov	r0, r4
   d5ebe:	f004 f987 	bl	da1d0 <_ZN9TCPClient9availableEv>
   d5ec2:	2800      	cmp	r0, #0
   d5ec4:	d0fa      	beq.n	d5ebc <_ZN4MQTT8readByteEv+0x4>
    return _client.read();
   d5ec6:	4620      	mov	r0, r4
   d5ec8:	f004 f82b 	bl	d9f22 <_ZN9TCPClient4readEv>
}
   d5ecc:	b2c0      	uxtb	r0, r0
   d5ece:	bd10      	pop	{r4, pc}

000d5ed0 <_ZN4MQTT10readPacketEPh>:

uint16_t MQTT::readPacket(uint8_t* lengthLength) {
   d5ed0:	e92d 47f0 	stmdb	sp!, {r4, r5, r6, r7, r8, r9, sl, lr}
   d5ed4:	4605      	mov	r5, r0
    uint16_t len = 0;
    buffer[len++] = readByte();
   d5ed6:	69c4      	ldr	r4, [r0, #28]
uint8_t MQTT::readByte() {
    while(!_client.available()) {}
    return _client.read();
}

uint16_t MQTT::readPacket(uint8_t* lengthLength) {
   d5ed8:	4688      	mov	r8, r1
    uint16_t len = 0;
    buffer[len++] = readByte();
   d5eda:	f7ff ffed 	bl	d5eb8 <_ZN4MQTT8readByteEv>
   d5ede:	7020      	strb	r0, [r4, #0]
    bool isPublish = (buffer[0]&0xF0) == MQTTPUBLISH;
   d5ee0:	69eb      	ldr	r3, [r5, #28]
   d5ee2:	f893 a000 	ldrb.w	sl, [r3]
    uint32_t multiplier = 1;
   d5ee6:	f04f 0901 	mov.w	r9, #1
   d5eea:	f00a 0af0 	and.w	sl, sl, #240	; 0xf0
    uint16_t length = 0;
   d5eee:	2700      	movs	r7, #0
    return _client.read();
}

uint16_t MQTT::readPacket(uint8_t* lengthLength) {
    uint16_t len = 0;
    buffer[len++] = readByte();
   d5ef0:	464e      	mov	r6, r9
    uint8_t digit = 0;
    uint16_t skip = 0;
    uint8_t start = 0;

    do {
        digit = readByte();
   d5ef2:	4628      	mov	r0, r5
   d5ef4:	f7ff ffe0 	bl	d5eb8 <_ZN4MQTT8readByteEv>
        buffer[len++] = digit;
   d5ef8:	69eb      	ldr	r3, [r5, #28]
   d5efa:	5598      	strb	r0, [r3, r6]
        length += (digit & 127) * multiplier;
   d5efc:	f000 037f 	and.w	r3, r0, #127	; 0x7f
   d5f00:	fb13 f309 	smulbb	r3, r3, r9
   d5f04:	441f      	add	r7, r3
    uint16_t skip = 0;
    uint8_t start = 0;

    do {
        digit = readByte();
        buffer[len++] = digit;
   d5f06:	1c74      	adds	r4, r6, #1
        length += (digit & 127) * multiplier;
        multiplier *= 128;
    } while ((digit & 128) != 0);
   d5f08:	0603      	lsls	r3, r0, #24
    uint16_t skip = 0;
    uint8_t start = 0;

    do {
        digit = readByte();
        buffer[len++] = digit;
   d5f0a:	b2a4      	uxth	r4, r4
        length += (digit & 127) * multiplier;
   d5f0c:	b2bf      	uxth	r7, r7
        multiplier *= 128;
   d5f0e:	ea4f 19c9 	mov.w	r9, r9, lsl #7
    } while ((digit & 128) != 0);
   d5f12:	d501      	bpl.n	d5f18 <_ZN4MQTT10readPacketEPh+0x48>
    uint16_t skip = 0;
    uint8_t start = 0;

    do {
        digit = readByte();
        buffer[len++] = digit;
   d5f14:	4626      	mov	r6, r4
   d5f16:	e7ec      	b.n	d5ef2 <_ZN4MQTT10readPacketEPh+0x22>
        length += (digit & 127) * multiplier;
        multiplier *= 128;
    } while ((digit & 128) != 0);
    *lengthLength = len-1;
   d5f18:	1e63      	subs	r3, r4, #1

    if (isPublish) {
   d5f1a:	f1ba 0f30 	cmp.w	sl, #48	; 0x30
        digit = readByte();
        buffer[len++] = digit;
        length += (digit & 127) * multiplier;
        multiplier *= 128;
    } while ((digit & 128) != 0);
    *lengthLength = len-1;
   d5f1e:	f888 3000 	strb.w	r3, [r8]

    if (isPublish) {
   d5f22:	d113      	bne.n	d5f4c <_ZN4MQTT10readPacketEPh+0x7c>
        // Read in topic length to calculate bytes to skip over for Stream writing
        buffer[len++] = readByte();
   d5f24:	4628      	mov	r0, r5
   d5f26:	f8d5 801c 	ldr.w	r8, [r5, #28]
   d5f2a:	f7ff ffc5 	bl	d5eb8 <_ZN4MQTT8readByteEv>
   d5f2e:	f808 0004 	strb.w	r0, [r8, r4]
        buffer[len++] = readByte();
   d5f32:	4628      	mov	r0, r5
   d5f34:	1cf4      	adds	r4, r6, #3
   d5f36:	f8d5 801c 	ldr.w	r8, [r5, #28]
   d5f3a:	3602      	adds	r6, #2
   d5f3c:	f7ff ffbc 	bl	d5eb8 <_ZN4MQTT8readByteEv>
   d5f40:	b2b6      	uxth	r6, r6
   d5f42:	b2a4      	uxth	r4, r4
   d5f44:	f808 0006 	strb.w	r0, [r8, r6]
        skip = (buffer[*lengthLength+1]<<8)+buffer[*lengthLength+2];
        start = 2;
   d5f48:	2302      	movs	r3, #2
   d5f4a:	e000      	b.n	d5f4e <_ZN4MQTT10readPacketEPh+0x7e>
    bool isPublish = (buffer[0]&0xF0) == MQTTPUBLISH;
    uint32_t multiplier = 1;
    uint16_t length = 0;
    uint8_t digit = 0;
    uint16_t skip = 0;
    uint8_t start = 0;
   d5f4c:	2300      	movs	r3, #0
   d5f4e:	1b1b      	subs	r3, r3, r4
   d5f50:	b29e      	uxth	r6, r3
            // skip message id
            skip += 2;
        }
    }

    for (uint16_t i = start;i<length;i++) {
   d5f52:	19a3      	adds	r3, r4, r6
   d5f54:	b29b      	uxth	r3, r3
   d5f56:	429f      	cmp	r7, r3
   d5f58:	d90b      	bls.n	d5f72 <_ZN4MQTT10readPacketEPh+0xa2>
        digit = readByte();
   d5f5a:	4628      	mov	r0, r5
   d5f5c:	f7ff ffac 	bl	d5eb8 <_ZN4MQTT8readByteEv>
        if (len < this->maxpacketsize) {
   d5f60:	f8b5 3054 	ldrh.w	r3, [r5, #84]	; 0x54
   d5f64:	42a3      	cmp	r3, r4
            buffer[len] = digit;
   d5f66:	bf84      	itt	hi
   d5f68:	69eb      	ldrhi	r3, [r5, #28]
   d5f6a:	5518      	strbhi	r0, [r3, r4]
        }
        len++;
   d5f6c:	3401      	adds	r4, #1
   d5f6e:	b2a4      	uxth	r4, r4
            // skip message id
            skip += 2;
        }
    }

    for (uint16_t i = start;i<length;i++) {
   d5f70:	e7ef      	b.n	d5f52 <_ZN4MQTT10readPacketEPh+0x82>
            buffer[len] = digit;
        }
        len++;
    }

    if (len > this->maxpacketsize) {
   d5f72:	f8b5 0054 	ldrh.w	r0, [r5, #84]	; 0x54
        len = 0; // This will cause the packet to be ignored.
    }

    return len;
}
   d5f76:	42a0      	cmp	r0, r4
   d5f78:	bf2c      	ite	cs
   d5f7a:	4620      	movcs	r0, r4
   d5f7c:	2000      	movcc	r0, #0
   d5f7e:	e8bd 87f0 	ldmia.w	sp!, {r4, r5, r6, r7, r8, r9, sl, pc}

000d5f82 <_ZN4MQTT5writeEhPht>:
        return _client.write(buffer, length);
    }
    return false;
}

bool MQTT::write(uint8_t header, uint8_t* buf, uint16_t length) {
   d5f82:	b5f7      	push	{r0, r1, r2, r4, r5, r6, r7, lr}
   d5f84:	4607      	mov	r7, r0
   d5f86:	468e      	mov	lr, r1
   d5f88:	461e      	mov	r6, r3
    uint8_t lenBuf[4];
    uint8_t llen = 0;
    uint8_t digit;
    uint8_t pos = 0;
    uint16_t rc;
    uint16_t len = length;
   d5f8a:	461d      	mov	r5, r3
    return false;
}

bool MQTT::write(uint8_t header, uint8_t* buf, uint16_t length) {
    uint8_t lenBuf[4];
    uint8_t llen = 0;
   d5f8c:	2400      	movs	r4, #0
        digit = len % 128;
        len = len / 128;
        if (len > 0) {
            digit |= 0x80;
        }
        lenBuf[pos++] = digit;
   d5f8e:	a902      	add	r1, sp, #8
    uint8_t digit;
    uint8_t pos = 0;
    uint16_t rc;
    uint16_t len = length;
    do {
        digit = len % 128;
   d5f90:	f005 037f 	and.w	r3, r5, #127	; 0x7f
        len = len / 128;
        if (len > 0) {
            digit |= 0x80;
        }
        lenBuf[pos++] = digit;
   d5f94:	4421      	add	r1, r4
    uint16_t rc;
    uint16_t len = length;
    do {
        digit = len % 128;
        len = len / 128;
        if (len > 0) {
   d5f96:	09ed      	lsrs	r5, r5, #7
            digit |= 0x80;
   d5f98:	bf18      	it	ne
   d5f9a:	f043 0380 	orrne.w	r3, r3, #128	; 0x80
        }
        lenBuf[pos++] = digit;
        llen++;
   d5f9e:	3401      	adds	r4, #1
        digit = len % 128;
        len = len / 128;
        if (len > 0) {
            digit |= 0x80;
        }
        lenBuf[pos++] = digit;
   d5fa0:	f801 3c04 	strb.w	r3, [r1, #-4]
        llen++;
   d5fa4:	b2e4      	uxtb	r4, r4
    } while(len > 0);
   d5fa6:	2d00      	cmp	r5, #0
   d5fa8:	d1f1      	bne.n	d5f8e <_ZN4MQTT5writeEhPht+0xc>

    buf[4-llen] = header;
   d5faa:	f1c4 0304 	rsb	r3, r4, #4
   d5fae:	18d1      	adds	r1, r2, r3
   d5fb0:	f802 e003 	strb.w	lr, [r2, r3]
    for (int i = 0; i < llen; i++) {
   d5fb4:	42a5      	cmp	r5, r4
   d5fb6:	da06      	bge.n	d5fc6 <_ZN4MQTT5writeEhPht+0x44>
        buf[5-llen+i] = lenBuf[i];
   d5fb8:	1b2b      	subs	r3, r5, r4
   d5fba:	a801      	add	r0, sp, #4
   d5fbc:	4413      	add	r3, r2
   d5fbe:	5c28      	ldrb	r0, [r5, r0]
   d5fc0:	7158      	strb	r0, [r3, #5]
        lenBuf[pos++] = digit;
        llen++;
    } while(len > 0);

    buf[4-llen] = header;
    for (int i = 0; i < llen; i++) {
   d5fc2:	3501      	adds	r5, #1
   d5fc4:	e7f6      	b.n	d5fb4 <_ZN4MQTT5writeEhPht+0x32>
        buf[5-llen+i] = lenBuf[i];
    }
    rc = _client.write(buf+(4-llen), length+1+llen);
   d5fc6:	1c72      	adds	r2, r6, #1
   d5fc8:	4422      	add	r2, r4
   d5fca:	4638      	mov	r0, r7
   d5fcc:	f003 feff 	bl	d9dce <_ZN9TCPClient5writeEPKhj>
   d5fd0:	4605      	mov	r5, r0
   d5fd2:	f002 fb7f 	bl	d86d4 <HAL_Timer_Get_Milli_Seconds>

    lastOutActivity = millis();
    return (rc == 1+llen+length);
   d5fd6:	3401      	adds	r4, #1
    for (int i = 0; i < llen; i++) {
        buf[5-llen+i] = lenBuf[i];
    }
    rc = _client.write(buf+(4-llen), length+1+llen);

    lastOutActivity = millis();
   d5fd8:	6278      	str	r0, [r7, #36]	; 0x24
    return (rc == 1+llen+length);
   d5fda:	4434      	add	r4, r6
   d5fdc:	b2a8      	uxth	r0, r5
}
   d5fde:	1a23      	subs	r3, r4, r0
   d5fe0:	4258      	negs	r0, r3
   d5fe2:	4158      	adcs	r0, r3
   d5fe4:	b003      	add	sp, #12
   d5fe6:	bdf0      	pop	{r4, r5, r6, r7, pc}

000d5fe8 <_ZN4MQTT10disconnectEv>:
        return write(MQTTUNSUBSCRIBE | MQTTQOS1_HEADER_MASK,buffer,length-5);
    }
    return false;
}

void MQTT::disconnect() {
   d5fe8:	b510      	push	{r4, lr}
    buffer[0] = MQTTDISCONNECT;
   d5fea:	69c3      	ldr	r3, [r0, #28]
   d5fec:	22e0      	movs	r2, #224	; 0xe0
   d5fee:	701a      	strb	r2, [r3, #0]
    buffer[1] = 0;
   d5ff0:	69c3      	ldr	r3, [r0, #28]
   d5ff2:	2200      	movs	r2, #0
   d5ff4:	705a      	strb	r2, [r3, #1]
        return write(MQTTUNSUBSCRIBE | MQTTQOS1_HEADER_MASK,buffer,length-5);
    }
    return false;
}

void MQTT::disconnect() {
   d5ff6:	4604      	mov	r4, r0
    buffer[0] = MQTTDISCONNECT;
    buffer[1] = 0;
    _client.write(buffer,2);
   d5ff8:	2202      	movs	r2, #2
   d5ffa:	69c1      	ldr	r1, [r0, #28]
   d5ffc:	f003 fee7 	bl	d9dce <_ZN9TCPClient5writeEPKhj>
    _client.stop();
   d6000:	4620      	mov	r0, r4
   d6002:	f004 f8cd 	bl	da1a0 <_ZN9TCPClient4stopEv>
   d6006:	f002 fb65 	bl	d86d4 <HAL_Timer_Get_Milli_Seconds>
    lastInActivity = lastOutActivity = millis();
   d600a:	6260      	str	r0, [r4, #36]	; 0x24
   d600c:	62a0      	str	r0, [r4, #40]	; 0x28
   d600e:	bd10      	pop	{r4, pc}

000d6010 <_ZN4MQTT11writeStringEPKcPht>:
}

uint16_t MQTT::writeString(const char* string, uint8_t* buf, uint16_t pos) {
    const char* idp = string;
    uint16_t i = 0;
    pos += 2;
   d6010:	3302      	adds	r3, #2
    _client.write(buffer,2);
    _client.stop();
    lastInActivity = lastOutActivity = millis();
}

uint16_t MQTT::writeString(const char* string, uint8_t* buf, uint16_t pos) {
   d6012:	b5f0      	push	{r4, r5, r6, r7, lr}
    const char* idp = string;
    uint16_t i = 0;
    pos += 2;
   d6014:	b29b      	uxth	r3, r3
   d6016:	460d      	mov	r5, r1
   d6018:	1a6c      	subs	r4, r5, r1
    while (*idp && pos < this->maxpacketsize) {
   d601a:	f815 6b01 	ldrb.w	r6, [r5], #1
   d601e:	b2a4      	uxth	r4, r4
   d6020:	b13e      	cbz	r6, d6032 <_ZN4MQTT11writeStringEPKcPht+0x22>
   d6022:	f8b0 7054 	ldrh.w	r7, [r0, #84]	; 0x54
   d6026:	429f      	cmp	r7, r3
   d6028:	d903      	bls.n	d6032 <_ZN4MQTT11writeStringEPKcPht+0x22>
        buf[pos++] = *idp++;
   d602a:	1c5c      	adds	r4, r3, #1
   d602c:	54d6      	strb	r6, [r2, r3]
   d602e:	b2a3      	uxth	r3, r4

uint16_t MQTT::writeString(const char* string, uint8_t* buf, uint16_t pos) {
    const char* idp = string;
    uint16_t i = 0;
    pos += 2;
    while (*idp && pos < this->maxpacketsize) {
   d6030:	e7f2      	b.n	d6018 <_ZN4MQTT11writeStringEPKcPht+0x8>
        buf[pos++] = *idp++;
        i++;
    }
    buf[pos-i-2] = (i >> 8);
   d6032:	1b19      	subs	r1, r3, r4
   d6034:	440a      	add	r2, r1
   d6036:	1221      	asrs	r1, r4, #8
   d6038:	f802 1c02 	strb.w	r1, [r2, #-2]
    buf[pos-i-1] = (i & 0xFF);
   d603c:	f802 4c01 	strb.w	r4, [r2, #-1]
    return pos;
}
   d6040:	4618      	mov	r0, r3
   d6042:	bdf0      	pop	{r4, r5, r6, r7, pc}

000d6044 <_ZN4MQTT11isConnectedEv>:


bool MQTT::isConnected() {
   d6044:	b538      	push	{r3, r4, r5, lr}
   d6046:	4605      	mov	r5, r0
    bool rc = (int)_client.connected();
   d6048:	f003 fed7 	bl	d9dfa <_ZN9TCPClient9connectedEv>
   d604c:	2800      	cmp	r0, #0
   d604e:	bf14      	ite	ne
   d6050:	2401      	movne	r4, #1
   d6052:	2400      	moveq	r4, #0
    if (!rc) _client.stop();
   d6054:	d102      	bne.n	d605c <_ZN4MQTT11isConnectedEv+0x18>
   d6056:	4628      	mov	r0, r5
   d6058:	f004 f8a2 	bl	da1a0 <_ZN9TCPClient4stopEv>
    return rc;
}
   d605c:	4620      	mov	r0, r4
   d605e:	bd38      	pop	{r3, r4, r5, pc}

000d6060 <_ZN4MQTT9setBrokerEPct>:
    if (buffer != NULL)
      delete[] buffer;
    buffer = new uint8_t[this->maxpacketsize];
}

void MQTT::setBroker(char* domain, uint16_t port) {
   d6060:	b570      	push	{r4, r5, r6, lr}
   d6062:	4604      	mov	r4, r0
   d6064:	460e      	mov	r6, r1
   d6066:	4615      	mov	r5, r2
    if(isConnected()) {
   d6068:	f7ff ffec 	bl	d6044 <_ZN4MQTT11isConnectedEv>
   d606c:	b110      	cbz	r0, d6074 <_ZN4MQTT9setBrokerEPct+0x14>
        disconnect();
   d606e:	4620      	mov	r0, r4
   d6070:	f7ff ffba 	bl	d5fe8 <_ZN4MQTT10disconnectEv>
    }
    this->domain = domain;
   d6074:	4631      	mov	r1, r6
   d6076:	f104 0038 	add.w	r0, r4, #56	; 0x38
   d607a:	f003 f813 	bl	d90a4 <_ZN6StringaSEPKc>
    this->ip = NULL;
   d607e:	2300      	movs	r3, #0
   d6080:	64a3      	str	r3, [r4, #72]	; 0x48
    this->port = port;
   d6082:	f8a4 504c 	strh.w	r5, [r4, #76]	; 0x4c
   d6086:	bd70      	pop	{r4, r5, r6, pc}

000d6088 <_ZN4MQTT7connectEPKcS1_S1_S1_NS_9EMQTT_QOSEhS1_bNS_12MQTT_VERSIONE>:

bool MQTT::connect(const char *id, const char *user, const char *pass) {
    return connect(id, user, pass, 0, QOS0, 0, 0, true);
}

bool MQTT::connect(const char *id, const char *user, const char *pass, const char* willTopic, EMQTT_QOS willQos, uint8_t willRetain, const char* willMessage, bool cleanSession, MQTT_VERSION version) {
   d6088:	e92d 43f0 	stmdb	sp!, {r4, r5, r6, r7, r8, r9, lr}
   d608c:	b087      	sub	sp, #28
   d608e:	4604      	mov	r4, r0
   d6090:	4689      	mov	r9, r1
   d6092:	4617      	mov	r7, r2
   d6094:	461e      	mov	r6, r3
   d6096:	f8dd 8038 	ldr.w	r8, [sp, #56]	; 0x38
    if (!isConnected()) {
   d609a:	f7ff ffd3 	bl	d6044 <_ZN4MQTT11isConnectedEv>
   d609e:	4605      	mov	r5, r0
   d60a0:	2800      	cmp	r0, #0
   d60a2:	f040 80bd 	bne.w	d6220 <_ZN4MQTT7connectEPKcS1_S1_S1_NS_9EMQTT_QOSEhS1_bNS_12MQTT_VERSIONE+0x198>
        int result = 0;
        if (ip == NULL)
   d60a6:	6ca1      	ldr	r1, [r4, #72]	; 0x48
   d60a8:	b939      	cbnz	r1, d60ba <_ZN4MQTT7connectEPKcS1_S1_S1_NS_9EMQTT_QOSEhS1_bNS_12MQTT_VERSIONE+0x32>
            result = _client.connect(this->domain.c_str(), this->port);
   d60aa:	4603      	mov	r3, r0
   d60ac:	f8b4 204c 	ldrh.w	r2, [r4, #76]	; 0x4c
   d60b0:	6ba1      	ldr	r1, [r4, #56]	; 0x38
   d60b2:	4620      	mov	r0, r4
   d60b4:	f003 ff78 	bl	d9fa8 <_ZN9TCPClient7connectEPKctm>
   d60b8:	e009      	b.n	d60ce <_ZN4MQTT7connectEPKcS1_S1_S1_NS_9EMQTT_QOSEhS1_bNS_12MQTT_VERSIONE+0x46>
        else
            result = _client.connect(this->ip, this->port);
   d60ba:	4668      	mov	r0, sp
   d60bc:	f003 fb88 	bl	d97d0 <_ZN9IPAddressC1EPKh>
   d60c0:	462b      	mov	r3, r5
   d60c2:	f8b4 204c 	ldrh.w	r2, [r4, #76]	; 0x4c
   d60c6:	4669      	mov	r1, sp
   d60c8:	4620      	mov	r0, r4
   d60ca:	f003 ffef 	bl	da0ac <_ZN9TCPClient7connectE9IPAddresstm>

        if (result) {
   d60ce:	2800      	cmp	r0, #0
   d60d0:	f000 80a2 	beq.w	d6218 <_ZN4MQTT7connectEPKcS1_S1_S1_NS_9EMQTT_QOSEhS1_bNS_12MQTT_VERSIONE+0x190>
            nextMsgId = 1;
   d60d4:	2301      	movs	r3, #1
   d60d6:	8423      	strh	r3, [r4, #32]
            uint16_t length = 5;

            if (version == MQTT_V311) {
   d60d8:	f89d 304c 	ldrb.w	r3, [sp, #76]	; 0x4c
   d60dc:	2b04      	cmp	r3, #4
   d60de:	d115      	bne.n	d610c <_ZN4MQTT7connectEPKcS1_S1_S1_NS_9EMQTT_QOSEhS1_bNS_12MQTT_VERSIONE+0x84>
                const uint8_t MQTT_HEADER_V311[] = {0x00,0x04,'M','Q','T','T',MQTT_V311};
   d60e0:	4b52      	ldr	r3, [pc, #328]	; (d622c <_ZN4MQTT7connectEPKcS1_S1_S1_NS_9EMQTT_QOSEhS1_bNS_12MQTT_VERSIONE+0x1a4>)
   d60e2:	6818      	ldr	r0, [r3, #0]
   d60e4:	889a      	ldrh	r2, [r3, #4]
   d60e6:	f8ad 2004 	strh.w	r2, [sp, #4]
   d60ea:	9000      	str	r0, [sp, #0]
                memcpy(buffer + length, MQTT_HEADER_V311, sizeof(MQTT_HEADER_V311));
   d60ec:	69e2      	ldr	r2, [r4, #28]
        if (result) {
            nextMsgId = 1;
            uint16_t length = 5;

            if (version == MQTT_V311) {
                const uint8_t MQTT_HEADER_V311[] = {0x00,0x04,'M','Q','T','T',MQTT_V311};
   d60ee:	799b      	ldrb	r3, [r3, #6]
                memcpy(buffer + length, MQTT_HEADER_V311, sizeof(MQTT_HEADER_V311));
   d60f0:	9800      	ldr	r0, [sp, #0]
        if (result) {
            nextMsgId = 1;
            uint16_t length = 5;

            if (version == MQTT_V311) {
                const uint8_t MQTT_HEADER_V311[] = {0x00,0x04,'M','Q','T','T',MQTT_V311};
   d60f2:	f88d 3006 	strb.w	r3, [sp, #6]
                memcpy(buffer + length, MQTT_HEADER_V311, sizeof(MQTT_HEADER_V311));
   d60f6:	1d53      	adds	r3, r2, #5
   d60f8:	f8c2 0005 	str.w	r0, [r2, #5]
   d60fc:	f8bd 1004 	ldrh.w	r1, [sp, #4]
   d6100:	f89d 2006 	ldrb.w	r2, [sp, #6]
   d6104:	719a      	strb	r2, [r3, #6]
   d6106:	8099      	strh	r1, [r3, #4]
                length+=sizeof(MQTT_HEADER_V311);
   d6108:	230c      	movs	r3, #12
   d610a:	e012      	b.n	d6132 <_ZN4MQTT7connectEPKcS1_S1_S1_NS_9EMQTT_QOSEhS1_bNS_12MQTT_VERSIONE+0xaa>
            } else {
                const uint8_t MQTT_HEADER_V31[] = {0x00,0x06,'M','Q','I','s','d','p', MQTT_V31};
   d610c:	4b48      	ldr	r3, [pc, #288]	; (d6230 <_ZN4MQTT7connectEPKcS1_S1_S1_NS_9EMQTT_QOSEhS1_bNS_12MQTT_VERSIONE+0x1a8>)
                memcpy(buffer + length, MQTT_HEADER_V31, sizeof(MQTT_HEADER_V31));
   d610e:	f8d4 c01c 	ldr.w	ip, [r4, #28]
            if (version == MQTT_V311) {
                const uint8_t MQTT_HEADER_V311[] = {0x00,0x04,'M','Q','T','T',MQTT_V311};
                memcpy(buffer + length, MQTT_HEADER_V311, sizeof(MQTT_HEADER_V311));
                length+=sizeof(MQTT_HEADER_V311);
            } else {
                const uint8_t MQTT_HEADER_V31[] = {0x00,0x06,'M','Q','I','s','d','p', MQTT_V31};
   d6112:	6818      	ldr	r0, [r3, #0]
   d6114:	6859      	ldr	r1, [r3, #4]
   d6116:	7a1b      	ldrb	r3, [r3, #8]
   d6118:	466a      	mov	r2, sp
   d611a:	c203      	stmia	r2!, {r0, r1}
   d611c:	7013      	strb	r3, [r2, #0]
                memcpy(buffer + length, MQTT_HEADER_V31, sizeof(MQTT_HEADER_V31));
   d611e:	466b      	mov	r3, sp
   d6120:	cb03      	ldmia	r3!, {r0, r1}
   d6122:	f8cc 0005 	str.w	r0, [ip, #5]
   d6126:	f8cc 1009 	str.w	r1, [ip, #9]
   d612a:	7813      	ldrb	r3, [r2, #0]
   d612c:	f88c 300d 	strb.w	r3, [ip, #13]
                length+=sizeof(MQTT_HEADER_V31);
   d6130:	230e      	movs	r3, #14
            }

            uint8_t v = 0;
            if (willTopic) {
   d6132:	f1b8 0f00 	cmp.w	r8, #0
   d6136:	d00a      	beq.n	d614e <_ZN4MQTT7connectEPKcS1_S1_S1_NS_9EMQTT_QOSEhS1_bNS_12MQTT_VERSIONE+0xc6>
                v = 0x06|(willQos<<3)|(willRetain<<5);
   d6138:	f89d 2040 	ldrb.w	r2, [sp, #64]	; 0x40
   d613c:	f89d 103c 	ldrb.w	r1, [sp, #60]	; 0x3c
   d6140:	0152      	lsls	r2, r2, #5
   d6142:	f042 0206 	orr.w	r2, r2, #6
   d6146:	ea42 02c1 	orr.w	r2, r2, r1, lsl #3
   d614a:	b2d2      	uxtb	r2, r2
   d614c:	e000      	b.n	d6150 <_ZN4MQTT7connectEPKcS1_S1_S1_NS_9EMQTT_QOSEhS1_bNS_12MQTT_VERSIONE+0xc8>
            } else {
                v = 0x02;
   d614e:	2202      	movs	r2, #2
            }

            if (!cleanSession) {
   d6150:	f89d 1048 	ldrb.w	r1, [sp, #72]	; 0x48
   d6154:	b909      	cbnz	r1, d615a <_ZN4MQTT7connectEPKcS1_S1_S1_NS_9EMQTT_QOSEhS1_bNS_12MQTT_VERSIONE+0xd2>
              v = v&0xfd;
   d6156:	f002 02fd 	and.w	r2, r2, #253	; 0xfd
            }

            if(user != NULL) {
   d615a:	b12f      	cbz	r7, d6168 <_ZN4MQTT7connectEPKcS1_S1_S1_NS_9EMQTT_QOSEhS1_bNS_12MQTT_VERSIONE+0xe0>
                v = v|0x80;

                if(pass != NULL) {
   d615c:	b916      	cbnz	r6, d6164 <_ZN4MQTT7connectEPKcS1_S1_S1_NS_9EMQTT_QOSEhS1_bNS_12MQTT_VERSIONE+0xdc>
            if (!cleanSession) {
              v = v&0xfd;
            }

            if(user != NULL) {
                v = v|0x80;
   d615e:	f042 0280 	orr.w	r2, r2, #128	; 0x80
   d6162:	e001      	b.n	d6168 <_ZN4MQTT7connectEPKcS1_S1_S1_NS_9EMQTT_QOSEhS1_bNS_12MQTT_VERSIONE+0xe0>

                if(pass != NULL) {
                    v = v|(0x80>>1);
   d6164:	f042 02c0 	orr.w	r2, r2, #192	; 0xc0
                }
            }

            buffer[length++] = v;
   d6168:	69e1      	ldr	r1, [r4, #28]
   d616a:	54ca      	strb	r2, [r1, r3]

            buffer[length++] = ((this->keepalive) >> 8);
   d616c:	6d22      	ldr	r2, [r4, #80]	; 0x50
   d616e:	69e1      	ldr	r1, [r4, #28]
   d6170:	1c58      	adds	r0, r3, #1
   d6172:	1212      	asrs	r2, r2, #8
   d6174:	540a      	strb	r2, [r1, r0]
            buffer[length++] = ((this->keepalive) & 0xFF);
   d6176:	1c9a      	adds	r2, r3, #2
   d6178:	69e1      	ldr	r1, [r4, #28]
   d617a:	6d20      	ldr	r0, [r4, #80]	; 0x50
   d617c:	5488      	strb	r0, [r1, r2]
            length = writeString(id, buffer, length);
   d617e:	3303      	adds	r3, #3
   d6180:	69e2      	ldr	r2, [r4, #28]
   d6182:	4649      	mov	r1, r9
   d6184:	4620      	mov	r0, r4
   d6186:	f7ff ff43 	bl	d6010 <_ZN4MQTT11writeStringEPKcPht>
            if (willTopic) {
   d618a:	f1b8 0f00 	cmp.w	r8, #0
   d618e:	d00b      	beq.n	d61a8 <_ZN4MQTT7connectEPKcS1_S1_S1_NS_9EMQTT_QOSEhS1_bNS_12MQTT_VERSIONE+0x120>
                length = writeString(willTopic, buffer, length);
   d6190:	4603      	mov	r3, r0
   d6192:	69e2      	ldr	r2, [r4, #28]
   d6194:	4641      	mov	r1, r8
   d6196:	4620      	mov	r0, r4
   d6198:	f7ff ff3a 	bl	d6010 <_ZN4MQTT11writeStringEPKcPht>
                length = writeString(willMessage, buffer, length);
   d619c:	69e2      	ldr	r2, [r4, #28]
   d619e:	9911      	ldr	r1, [sp, #68]	; 0x44
   d61a0:	4603      	mov	r3, r0
   d61a2:	4620      	mov	r0, r4
   d61a4:	f7ff ff34 	bl	d6010 <_ZN4MQTT11writeStringEPKcPht>
            }

            if(user != NULL) {
   d61a8:	b167      	cbz	r7, d61c4 <_ZN4MQTT7connectEPKcS1_S1_S1_NS_9EMQTT_QOSEhS1_bNS_12MQTT_VERSIONE+0x13c>
                length = writeString(user,buffer,length);
   d61aa:	4603      	mov	r3, r0
   d61ac:	69e2      	ldr	r2, [r4, #28]
   d61ae:	4639      	mov	r1, r7
   d61b0:	4620      	mov	r0, r4
   d61b2:	f7ff ff2d 	bl	d6010 <_ZN4MQTT11writeStringEPKcPht>
                if(pass != NULL) {
   d61b6:	b12e      	cbz	r6, d61c4 <_ZN4MQTT7connectEPKcS1_S1_S1_NS_9EMQTT_QOSEhS1_bNS_12MQTT_VERSIONE+0x13c>
                    length = writeString(pass,buffer,length);
   d61b8:	4603      	mov	r3, r0
   d61ba:	69e2      	ldr	r2, [r4, #28]
   d61bc:	4631      	mov	r1, r6
   d61be:	4620      	mov	r0, r4
   d61c0:	f7ff ff26 	bl	d6010 <_ZN4MQTT11writeStringEPKcPht>
                }
            }

            write(MQTTCONNECT, buffer, length-5);
   d61c4:	1f43      	subs	r3, r0, #5
   d61c6:	b29b      	uxth	r3, r3
   d61c8:	69e2      	ldr	r2, [r4, #28]
   d61ca:	2110      	movs	r1, #16
   d61cc:	4620      	mov	r0, r4
   d61ce:	f7ff fed8 	bl	d5f82 <_ZN4MQTT5writeEhPht>
   d61d2:	f002 fa7f 	bl	d86d4 <HAL_Timer_Get_Milli_Seconds>
            lastInActivity = lastOutActivity = millis();

            while (!_client.available()) {
                unsigned long t = millis();
                if (t-lastInActivity > this->keepalive*1000UL) {
   d61d6:	f44f 767a 	mov.w	r6, #1000	; 0x3e8
                    length = writeString(pass,buffer,length);
                }
            }

            write(MQTTCONNECT, buffer, length-5);
            lastInActivity = lastOutActivity = millis();
   d61da:	6260      	str	r0, [r4, #36]	; 0x24
   d61dc:	62a0      	str	r0, [r4, #40]	; 0x28

            while (!_client.available()) {
   d61de:	4620      	mov	r0, r4
   d61e0:	f003 fff6 	bl	da1d0 <_ZN9TCPClient9availableEv>
   d61e4:	b940      	cbnz	r0, d61f8 <_ZN4MQTT7connectEPKcS1_S1_S1_NS_9EMQTT_QOSEhS1_bNS_12MQTT_VERSIONE+0x170>
   d61e6:	f002 fa75 	bl	d86d4 <HAL_Timer_Get_Milli_Seconds>
                unsigned long t = millis();
                if (t-lastInActivity > this->keepalive*1000UL) {
   d61ea:	6aa3      	ldr	r3, [r4, #40]	; 0x28
   d61ec:	1ac0      	subs	r0, r0, r3
   d61ee:	6d23      	ldr	r3, [r4, #80]	; 0x50
   d61f0:	4373      	muls	r3, r6
   d61f2:	4298      	cmp	r0, r3
   d61f4:	d9f3      	bls.n	d61de <_ZN4MQTT7connectEPKcS1_S1_S1_NS_9EMQTT_QOSEhS1_bNS_12MQTT_VERSIONE+0x156>
   d61f6:	e00f      	b.n	d6218 <_ZN4MQTT7connectEPKcS1_S1_S1_NS_9EMQTT_QOSEhS1_bNS_12MQTT_VERSIONE+0x190>
                    _client.stop();
                    return false;
                }
            }
            uint8_t llen;
            uint16_t len = readPacket(&llen);
   d61f8:	4669      	mov	r1, sp
   d61fa:	4620      	mov	r0, r4
   d61fc:	f7ff fe68 	bl	d5ed0 <_ZN4MQTT10readPacketEPh>

            if (len == 4) {
   d6200:	2804      	cmp	r0, #4
   d6202:	d109      	bne.n	d6218 <_ZN4MQTT7connectEPKcS1_S1_S1_NS_9EMQTT_QOSEhS1_bNS_12MQTT_VERSIONE+0x190>
                if (buffer[3] == CONN_ACCEPT) {
   d6204:	69e3      	ldr	r3, [r4, #28]
   d6206:	78de      	ldrb	r6, [r3, #3]
   d6208:	b936      	cbnz	r6, d6218 <_ZN4MQTT7connectEPKcS1_S1_S1_NS_9EMQTT_QOSEhS1_bNS_12MQTT_VERSIONE+0x190>
   d620a:	f002 fa63 	bl	d86d4 <HAL_Timer_Get_Milli_Seconds>
                    lastInActivity = millis();
                    pingOutstanding = false;
                    debug_print(" Connect success\n");
                    return true;
   d620e:	2501      	movs	r5, #1
            uint8_t llen;
            uint16_t len = readPacket(&llen);

            if (len == 4) {
                if (buffer[3] == CONN_ACCEPT) {
                    lastInActivity = millis();
   d6210:	62a0      	str	r0, [r4, #40]	; 0x28
                    pingOutstanding = false;
   d6212:	f884 602c 	strb.w	r6, [r4, #44]	; 0x2c
   d6216:	e004      	b.n	d6222 <_ZN4MQTT7connectEPKcS1_S1_S1_NS_9EMQTT_QOSEhS1_bNS_12MQTT_VERSIONE+0x19a>
                    // check EMQTT_CONNACK_RESPONSE code.
                    debug_print(" Connect fail. code = [%d]\n", buffer[3]);
                }
            }
        }
        _client.stop();
   d6218:	4620      	mov	r0, r4
   d621a:	f003 ffc1 	bl	da1a0 <_ZN9TCPClient4stopEv>
   d621e:	e000      	b.n	d6222 <_ZN4MQTT7connectEPKcS1_S1_S1_NS_9EMQTT_QOSEhS1_bNS_12MQTT_VERSIONE+0x19a>
    }
    return false;
   d6220:	2500      	movs	r5, #0
}
   d6222:	4628      	mov	r0, r5
   d6224:	b007      	add	sp, #28
   d6226:	e8bd 83f0 	ldmia.w	sp!, {r4, r5, r6, r7, r8, r9, pc}
   d622a:	bf00      	nop
   d622c:	000dbf5c 	.word	0x000dbf5c
   d6230:	000dbf63 	.word	0x000dbf63

000d6234 <_ZN4MQTT7connectEPKc>:
void MQTT::addQosCallback(void (*qoscallback)(unsigned int)) {
    this->qoscallback = qoscallback;
}


bool MQTT::connect(const char *id) {
   d6234:	b57f      	push	{r0, r1, r2, r3, r4, r5, r6, lr}
    return connect(id, NULL, NULL, 0, QOS0, 0, 0, true);
   d6236:	2304      	movs	r3, #4
   d6238:	9305      	str	r3, [sp, #20]
   d623a:	2301      	movs	r3, #1
   d623c:	9304      	str	r3, [sp, #16]
   d623e:	2300      	movs	r3, #0
   d6240:	9303      	str	r3, [sp, #12]
   d6242:	9302      	str	r3, [sp, #8]
   d6244:	9301      	str	r3, [sp, #4]
   d6246:	9300      	str	r3, [sp, #0]
   d6248:	461a      	mov	r2, r3
   d624a:	f7ff ff1d 	bl	d6088 <_ZN4MQTT7connectEPKcS1_S1_S1_NS_9EMQTT_QOSEhS1_bNS_12MQTT_VERSIONE>
}
   d624e:	b007      	add	sp, #28
   d6250:	f85d fb04 	ldr.w	pc, [sp], #4

000d6254 <_ZN4MQTT7publishEPKcPKhjbNS_9EMQTT_QOSEbPt>:

bool MQTT::publish(const char* topic, const uint8_t* payload, unsigned int plength, bool retain, EMQTT_QOS qos, uint16_t *messageid) {
    return publish(topic, payload, plength, retain, qos, false, messageid);
}

bool MQTT::publish(const char* topic, const uint8_t* payload, unsigned int plength, bool retain, EMQTT_QOS qos, bool dup, uint16_t *messageid) {
   d6254:	e92d 4ff1 	stmdb	sp!, {r0, r4, r5, r6, r7, r8, r9, sl, fp, lr}
   d6258:	9e0d      	ldr	r6, [sp, #52]	; 0x34
   d625a:	f89d 8028 	ldrb.w	r8, [sp, #40]	; 0x28
   d625e:	f89d 502c 	ldrb.w	r5, [sp, #44]	; 0x2c
   d6262:	f89d 7030 	ldrb.w	r7, [sp, #48]	; 0x30
   d6266:	4604      	mov	r4, r0
   d6268:	468b      	mov	fp, r1
   d626a:	4691      	mov	r9, r2
   d626c:	469a      	mov	sl, r3
    if (isConnected()) {
   d626e:	f7ff fee9 	bl	d6044 <_ZN4MQTT11isConnectedEv>
   d6272:	2800      	cmp	r0, #0
   d6274:	d04c      	beq.n	d6310 <_ZN4MQTT7publishEPKcPKhjbNS_9EMQTT_QOSEbPt+0xbc>
        // Leave room in the buffer for header and variable length field
        uint16_t length = 5;
        memset(buffer, 0, this->maxpacketsize);
   d6276:	f8b4 2054 	ldrh.w	r2, [r4, #84]	; 0x54
   d627a:	69e0      	ldr	r0, [r4, #28]
   d627c:	2100      	movs	r1, #0
   d627e:	f005 f8b1 	bl	db3e4 <memset>

        length = writeString(topic, buffer, length);
   d6282:	2305      	movs	r3, #5
   d6284:	69e2      	ldr	r2, [r4, #28]
   d6286:	4659      	mov	r1, fp
   d6288:	4620      	mov	r0, r4
   d628a:	f7ff fec1 	bl	d6010 <_ZN4MQTT11writeStringEPKcPht>

        if (qos == QOS2 || qos == QOS1) {
   d628e:	1e6b      	subs	r3, r5, #1
   d6290:	2b01      	cmp	r3, #1
   d6292:	d812      	bhi.n	d62ba <_ZN4MQTT7publishEPKcPKhjbNS_9EMQTT_QOSEbPt+0x66>
            nextMsgId += 1;
   d6294:	8c23      	ldrh	r3, [r4, #32]
            buffer[length++] = (nextMsgId >> 8);
   d6296:	69e2      	ldr	r2, [r4, #28]
        memset(buffer, 0, this->maxpacketsize);

        length = writeString(topic, buffer, length);

        if (qos == QOS2 || qos == QOS1) {
            nextMsgId += 1;
   d6298:	3301      	adds	r3, #1
   d629a:	b29b      	uxth	r3, r3
   d629c:	8423      	strh	r3, [r4, #32]
            buffer[length++] = (nextMsgId >> 8);
   d629e:	121b      	asrs	r3, r3, #8
   d62a0:	5413      	strb	r3, [r2, r0]
   d62a2:	1c41      	adds	r1, r0, #1
   d62a4:	b289      	uxth	r1, r1
            buffer[length++] = (nextMsgId & 0xFF);
   d62a6:	69e3      	ldr	r3, [r4, #28]
   d62a8:	8c22      	ldrh	r2, [r4, #32]
   d62aa:	545a      	strb	r2, [r3, r1]
   d62ac:	3002      	adds	r0, #2
   d62ae:	b280      	uxth	r0, r0
            if (messageid != NULL)
   d62b0:	b11e      	cbz	r6, d62ba <_ZN4MQTT7publishEPKcPKhjbNS_9EMQTT_QOSEbPt+0x66>
                *messageid = nextMsgId++;
   d62b2:	8c23      	ldrh	r3, [r4, #32]
   d62b4:	1c5a      	adds	r2, r3, #1
   d62b6:	8422      	strh	r2, [r4, #32]
   d62b8:	8033      	strh	r3, [r6, #0]

bool MQTT::publish(const char* topic, const uint8_t* payload, unsigned int plength, bool retain, EMQTT_QOS qos, uint16_t *messageid) {
    return publish(topic, payload, plength, retain, qos, false, messageid);
}

bool MQTT::publish(const char* topic, const uint8_t* payload, unsigned int plength, bool retain, EMQTT_QOS qos, bool dup, uint16_t *messageid) {
   d62ba:	2200      	movs	r2, #0
            buffer[length++] = (nextMsgId & 0xFF);
            if (messageid != NULL)
                *messageid = nextMsgId++;
        }

        for (uint16_t i=0; i < plength && length < this->maxpacketsize; i++) {
   d62bc:	b291      	uxth	r1, r2
   d62be:	1883      	adds	r3, r0, r2
   d62c0:	458a      	cmp	sl, r1
   d62c2:	b29b      	uxth	r3, r3
   d62c4:	d90a      	bls.n	d62dc <_ZN4MQTT7publishEPKcPKhjbNS_9EMQTT_QOSEbPt+0x88>
   d62c6:	f8b4 6054 	ldrh.w	r6, [r4, #84]	; 0x54
   d62ca:	429e      	cmp	r6, r3
   d62cc:	f102 0201 	add.w	r2, r2, #1
   d62d0:	d904      	bls.n	d62dc <_ZN4MQTT7publishEPKcPKhjbNS_9EMQTT_QOSEbPt+0x88>
            buffer[length++] = payload[i];
   d62d2:	f819 6001 	ldrb.w	r6, [r9, r1]
   d62d6:	69e1      	ldr	r1, [r4, #28]
   d62d8:	54ce      	strb	r6, [r1, r3]
   d62da:	e7ef      	b.n	d62bc <_ZN4MQTT7publishEPKcPKhjbNS_9EMQTT_QOSEbPt+0x68>
        }

        uint8_t header = MQTTPUBLISH;
        if (retain) {
            header |= 1;
   d62dc:	f1b8 0f00 	cmp.w	r8, #0
   d62e0:	bf0c      	ite	eq
   d62e2:	2130      	moveq	r1, #48	; 0x30
   d62e4:	2131      	movne	r1, #49	; 0x31
        }

        if (dup) {
   d62e6:	b10f      	cbz	r7, d62ec <_ZN4MQTT7publishEPKcPKhjbNS_9EMQTT_QOSEbPt+0x98>
            header |= DUP_FLAG_ON_MASK;
   d62e8:	f041 0108 	orr.w	r1, r1, #8
        }

        if (qos == QOS2)
   d62ec:	2d02      	cmp	r5, #2
   d62ee:	d102      	bne.n	d62f6 <_ZN4MQTT7publishEPKcPKhjbNS_9EMQTT_QOSEbPt+0xa2>
            header |= MQTTQOS2_HEADER_MASK;
   d62f0:	f041 0104 	orr.w	r1, r1, #4
   d62f4:	e003      	b.n	d62fe <_ZN4MQTT7publishEPKcPKhjbNS_9EMQTT_QOSEbPt+0xaa>
        else if (qos == QOS1)
   d62f6:	2d01      	cmp	r5, #1
            header |= MQTTQOS1_HEADER_MASK;
   d62f8:	bf08      	it	eq
   d62fa:	f041 0102 	orreq.w	r1, r1, #2
        else
            header |= MQTTQOS0_HEADER_MASK;

        return write(header, buffer, length-5);
   d62fe:	3b05      	subs	r3, #5
   d6300:	69e2      	ldr	r2, [r4, #28]
   d6302:	b29b      	uxth	r3, r3
   d6304:	4620      	mov	r0, r4
    }
    return false;
}
   d6306:	b001      	add	sp, #4
   d6308:	e8bd 4ff0 	ldmia.w	sp!, {r4, r5, r6, r7, r8, r9, sl, fp, lr}
        else if (qos == QOS1)
            header |= MQTTQOS1_HEADER_MASK;
        else
            header |= MQTTQOS0_HEADER_MASK;

        return write(header, buffer, length-5);
   d630c:	f7ff be39 	b.w	d5f82 <_ZN4MQTT5writeEhPht>
    }
    return false;
}
   d6310:	b001      	add	sp, #4
   d6312:	e8bd 8ff0 	ldmia.w	sp!, {r4, r5, r6, r7, r8, r9, sl, fp, pc}

000d6316 <_ZN4MQTT7publishEPKcPKhjbNS_9EMQTT_QOSEPt>:

bool MQTT::publish(const char* topic, const uint8_t* payload, unsigned int plength, bool retain) {
    return publish(topic, payload, plength, retain, QOS0, NULL);
}

bool MQTT::publish(const char* topic, const uint8_t* payload, unsigned int plength, bool retain, EMQTT_QOS qos, uint16_t *messageid) {
   d6316:	b51f      	push	{r0, r1, r2, r3, r4, lr}
    return publish(topic, payload, plength, retain, qos, false, messageid);
   d6318:	9c08      	ldr	r4, [sp, #32]
   d631a:	9403      	str	r4, [sp, #12]
   d631c:	2400      	movs	r4, #0
   d631e:	9402      	str	r4, [sp, #8]
   d6320:	f89d 401c 	ldrb.w	r4, [sp, #28]
   d6324:	9401      	str	r4, [sp, #4]
   d6326:	f89d 4018 	ldrb.w	r4, [sp, #24]
   d632a:	9400      	str	r4, [sp, #0]
   d632c:	f7ff ff92 	bl	d6254 <_ZN4MQTT7publishEPKcPKhjbNS_9EMQTT_QOSEbPt>
}
   d6330:	b004      	add	sp, #16
   d6332:	bd10      	pop	{r4, pc}

000d6334 <_ZN4MQTT7publishEPKcPKhj>:

bool MQTT::publish(const char * topic, const char* payload, EMQTT_QOS qos, uint16_t *messageid) {
    return publish(topic, (uint8_t*)payload, strlen(payload), false, qos, messageid);
}

bool MQTT::publish(const char* topic, const uint8_t* payload, unsigned int plength) {
   d6334:	b51f      	push	{r0, r1, r2, r3, r4, lr}
    return publish(topic, payload, plength, false, QOS0, NULL);
   d6336:	2400      	movs	r4, #0
   d6338:	9402      	str	r4, [sp, #8]
   d633a:	9401      	str	r4, [sp, #4]
   d633c:	9400      	str	r4, [sp, #0]
   d633e:	f7ff ffea 	bl	d6316 <_ZN4MQTT7publishEPKcPKhjbNS_9EMQTT_QOSEPt>
}
   d6342:	b004      	add	sp, #16
   d6344:	bd10      	pop	{r4, pc}

000d6346 <_ZN4MQTT14publishReleaseEt>:
        return write(header, buffer, length-5);
    }
    return false;
}

bool MQTT::publishRelease(uint16_t messageid) {
   d6346:	b538      	push	{r3, r4, r5, lr}
   d6348:	4604      	mov	r4, r0
   d634a:	460d      	mov	r5, r1
    if (isConnected()) {
   d634c:	f7ff fe7a 	bl	d6044 <_ZN4MQTT11isConnectedEv>
   d6350:	b190      	cbz	r0, d6378 <_ZN4MQTT14publishReleaseEt+0x32>
        uint16_t length = 0;
        // reserved bits in MQTT v3.1.1
        buffer[length++] = MQTTPUBREL | MQTTQOS1_HEADER_MASK;
   d6352:	69e3      	ldr	r3, [r4, #28]
   d6354:	2262      	movs	r2, #98	; 0x62
   d6356:	701a      	strb	r2, [r3, #0]
        buffer[length++] = 2;
   d6358:	69e3      	ldr	r3, [r4, #28]
   d635a:	2202      	movs	r2, #2
   d635c:	705a      	strb	r2, [r3, #1]
        buffer[length++] = (messageid >> 8);
   d635e:	69e3      	ldr	r3, [r4, #28]
   d6360:	122a      	asrs	r2, r5, #8
   d6362:	709a      	strb	r2, [r3, #2]
        buffer[length++] = (messageid & 0xFF);
   d6364:	69e3      	ldr	r3, [r4, #28]
   d6366:	70dd      	strb	r5, [r3, #3]
        return _client.write(buffer, length);
   d6368:	2204      	movs	r2, #4
   d636a:	69e1      	ldr	r1, [r4, #28]
   d636c:	4620      	mov	r0, r4
   d636e:	f003 fd2e 	bl	d9dce <_ZN9TCPClient5writeEPKhj>
   d6372:	3000      	adds	r0, #0
   d6374:	bf18      	it	ne
   d6376:	2001      	movne	r0, #1
    }
    return false;
}
   d6378:	bd38      	pop	{r3, r4, r5, pc}

000d637a <_ZN4MQTT15publishCompleteEt>:

bool MQTT::publishComplete(uint16_t messageid) {
   d637a:	b538      	push	{r3, r4, r5, lr}
   d637c:	4604      	mov	r4, r0
   d637e:	460d      	mov	r5, r1
    if (isConnected()) {
   d6380:	f7ff fe60 	bl	d6044 <_ZN4MQTT11isConnectedEv>
   d6384:	b190      	cbz	r0, d63ac <_ZN4MQTT15publishCompleteEt+0x32>
        uint16_t length = 0;
        // reserved bits in MQTT v3.1.1
        buffer[length++] = MQTTPUBCOMP | MQTTQOS1_HEADER_MASK;
   d6386:	69e3      	ldr	r3, [r4, #28]
   d6388:	2272      	movs	r2, #114	; 0x72
   d638a:	701a      	strb	r2, [r3, #0]
        buffer[length++] = 2;
   d638c:	69e3      	ldr	r3, [r4, #28]
   d638e:	2202      	movs	r2, #2
   d6390:	705a      	strb	r2, [r3, #1]
        buffer[length++] = (messageid >> 8);
   d6392:	69e3      	ldr	r3, [r4, #28]
   d6394:	122a      	asrs	r2, r5, #8
   d6396:	709a      	strb	r2, [r3, #2]
        buffer[length++] = (messageid & 0xFF);
   d6398:	69e3      	ldr	r3, [r4, #28]
   d639a:	70dd      	strb	r5, [r3, #3]
        return _client.write(buffer, length);
   d639c:	2204      	movs	r2, #4
   d639e:	69e1      	ldr	r1, [r4, #28]
   d63a0:	4620      	mov	r0, r4
   d63a2:	f003 fd14 	bl	d9dce <_ZN9TCPClient5writeEPKhj>
   d63a6:	3000      	adds	r0, #0
   d63a8:	bf18      	it	ne
   d63aa:	2001      	movne	r0, #1
    }
    return false;
}
   d63ac:	bd38      	pop	{r3, r4, r5, pc}

000d63ae <_ZN4MQTT4loopEv>:
    }

    return len;
}

bool MQTT::loop() {
   d63ae:	e92d 4ff0 	stmdb	sp!, {r4, r5, r6, r7, r8, r9, sl, fp, lr}
   d63b2:	b083      	sub	sp, #12
   d63b4:	af00      	add	r7, sp, #0
   d63b6:	4604      	mov	r4, r0
    if (isConnected()) {
   d63b8:	f7ff fe44 	bl	d6044 <_ZN4MQTT11isConnectedEv>
   d63bc:	4681      	mov	r9, r0
   d63be:	2800      	cmp	r0, #0
   d63c0:	f000 80f6 	beq.w	d65b0 <_ZN4MQTT4loopEv+0x202>
   d63c4:	f002 f986 	bl	d86d4 <HAL_Timer_Get_Milli_Seconds>
        unsigned long t = millis();
        if ((t - lastInActivity > this->keepalive*1000UL) || (t - lastOutActivity > this->keepalive*1000UL)) {
   d63c8:	6d22      	ldr	r2, [r4, #80]	; 0x50
   d63ca:	f44f 737a 	mov.w	r3, #1000	; 0x3e8
   d63ce:	4353      	muls	r3, r2
   d63d0:	6aa2      	ldr	r2, [r4, #40]	; 0x28
   d63d2:	1a82      	subs	r2, r0, r2
   d63d4:	429a      	cmp	r2, r3
   d63d6:	4605      	mov	r5, r0
   d63d8:	d803      	bhi.n	d63e2 <_ZN4MQTT4loopEv+0x34>
   d63da:	6a62      	ldr	r2, [r4, #36]	; 0x24
   d63dc:	1a82      	subs	r2, r0, r2
   d63de:	4293      	cmp	r3, r2
   d63e0:	d217      	bcs.n	d6412 <_ZN4MQTT4loopEv+0x64>
            if (pingOutstanding) {
   d63e2:	f894 302c 	ldrb.w	r3, [r4, #44]	; 0x2c
   d63e6:	b12b      	cbz	r3, d63f4 <_ZN4MQTT4loopEv+0x46>
                _client.stop();
   d63e8:	4620      	mov	r0, r4
   d63ea:	f003 fed9 	bl	da1a0 <_ZN9TCPClient4stopEv>
                return false;
   d63ee:	f04f 0900 	mov.w	r9, #0
   d63f2:	e0dd      	b.n	d65b0 <_ZN4MQTT4loopEv+0x202>
            } else {
                buffer[0] = MQTTPINGREQ;
   d63f4:	69e2      	ldr	r2, [r4, #28]
   d63f6:	21c0      	movs	r1, #192	; 0xc0
   d63f8:	7011      	strb	r1, [r2, #0]
                buffer[1] = 0;
   d63fa:	69e2      	ldr	r2, [r4, #28]
   d63fc:	7053      	strb	r3, [r2, #1]
                _client.write(buffer,2);
   d63fe:	69e1      	ldr	r1, [r4, #28]
   d6400:	2202      	movs	r2, #2
   d6402:	4620      	mov	r0, r4
   d6404:	f003 fce3 	bl	d9dce <_ZN9TCPClient5writeEPKhj>
                lastOutActivity = t;
                lastInActivity = t;
                pingOutstanding = true;
   d6408:	2301      	movs	r3, #1
                return false;
            } else {
                buffer[0] = MQTTPINGREQ;
                buffer[1] = 0;
                _client.write(buffer,2);
                lastOutActivity = t;
   d640a:	6265      	str	r5, [r4, #36]	; 0x24
                lastInActivity = t;
   d640c:	62a5      	str	r5, [r4, #40]	; 0x28
                pingOutstanding = true;
   d640e:	f884 302c 	strb.w	r3, [r4, #44]	; 0x2c
            }
        }
        if (_client.available()) {
   d6412:	4620      	mov	r0, r4
   d6414:	f003 fedc 	bl	da1d0 <_ZN9TCPClient9availableEv>
   d6418:	2800      	cmp	r0, #0
   d641a:	f000 80c9 	beq.w	d65b0 <_ZN4MQTT4loopEv+0x202>
            uint8_t llen;
            uint16_t len = readPacket(&llen);
   d641e:	1df9      	adds	r1, r7, #7
   d6420:	4620      	mov	r0, r4
   d6422:	f7ff fd55 	bl	d5ed0 <_ZN4MQTT10readPacketEPh>
            uint16_t msgId = 0;
            uint8_t *payload;
            if (len > 0) {
   d6426:	4602      	mov	r2, r0
   d6428:	2800      	cmp	r0, #0
   d642a:	f000 80c1 	beq.w	d65b0 <_ZN4MQTT4loopEv+0x202>
                lastInActivity = t;
                uint8_t type = buffer[0]&0xF0;
   d642e:	69e3      	ldr	r3, [r4, #28]
            uint8_t llen;
            uint16_t len = readPacket(&llen);
            uint16_t msgId = 0;
            uint8_t *payload;
            if (len > 0) {
                lastInActivity = t;
   d6430:	62a5      	str	r5, [r4, #40]	; 0x28
                uint8_t type = buffer[0]&0xF0;
   d6432:	7818      	ldrb	r0, [r3, #0]
   d6434:	f000 01f0 	and.w	r1, r0, #240	; 0xf0
                if (type == MQTTPUBLISH) {
   d6438:	2930      	cmp	r1, #48	; 0x30
   d643a:	d17d      	bne.n	d6538 <_ZN4MQTT4loopEv+0x18a>
                    if (callback) {
   d643c:	f8d4 b030 	ldr.w	fp, [r4, #48]	; 0x30
   d6440:	f1bb 0f00 	cmp.w	fp, #0
   d6444:	f000 80b4 	beq.w	d65b0 <_ZN4MQTT4loopEv+0x202>
                        uint16_t tl = (buffer[llen+1]<<8)+buffer[llen+2]; // topic length
   d6448:	f897 c007 	ldrb.w	ip, [r7, #7]
   d644c:	eb03 000c 	add.w	r0, r3, ip
              							_client.write(buffer, 4);
              							lastOutActivity = t;
            						} else {
                            payload = buffer+llen+3+tl;
                            callback(topic,payload,len-llen-3-tl);
                        }
   d6450:	46ea      	mov	sl, sp
            if (len > 0) {
                lastInActivity = t;
                uint8_t type = buffer[0]&0xF0;
                if (type == MQTTPUBLISH) {
                    if (callback) {
                        uint16_t tl = (buffer[llen+1]<<8)+buffer[llen+2]; // topic length
   d6452:	7881      	ldrb	r1, [r0, #2]
   d6454:	f890 e001 	ldrb.w	lr, [r0, #1]
   d6458:	eb01 2e0e 	add.w	lr, r1, lr, lsl #8
   d645c:	fa1f fe8e 	uxth.w	lr, lr
                        char topic[tl+1];
   d6460:	f10e 0108 	add.w	r1, lr, #8
   d6464:	f021 0107 	bic.w	r1, r1, #7
   d6468:	ebad 0d01 	sub.w	sp, sp, r1
   d646c:	4668      	mov	r0, sp
   d646e:	2100      	movs	r1, #0
                        for (uint16_t i=0;i<tl;i++) {
   d6470:	b28e      	uxth	r6, r1
   d6472:	45b6      	cmp	lr, r6
   d6474:	d906      	bls.n	d6484 <_ZN4MQTT4loopEv+0xd6>
                            topic[i] = buffer[llen+3+i];
   d6476:	eb0c 0601 	add.w	r6, ip, r1
   d647a:	441e      	add	r6, r3
   d647c:	78f6      	ldrb	r6, [r6, #3]
   d647e:	5446      	strb	r6, [r0, r1]
   d6480:	3101      	adds	r1, #1
                uint8_t type = buffer[0]&0xF0;
                if (type == MQTTPUBLISH) {
                    if (callback) {
                        uint16_t tl = (buffer[llen+1]<<8)+buffer[llen+2]; // topic length
                        char topic[tl+1];
                        for (uint16_t i=0;i<tl;i++) {
   d6482:	e7f5      	b.n	d6470 <_ZN4MQTT4loopEv+0xc2>
                            topic[i] = buffer[llen+3+i];
                        }
                        topic[tl] = 0;
   d6484:	2100      	movs	r1, #0
   d6486:	f800 100e 	strb.w	r1, [r0, lr]
   d648a:	781e      	ldrb	r6, [r3, #0]
   d648c:	f006 0606 	and.w	r6, r6, #6
                        // msgId only present for QOS>0
                        if ((buffer[0]&0x06) == MQTTQOS1_HEADER_MASK) { // QoS=1
   d6490:	2e02      	cmp	r6, #2
   d6492:	f10c 0103 	add.w	r1, ip, #3
   d6496:	ebcc 0202 	rsb	r2, ip, r2
   d649a:	d11e      	bne.n	d64da <_ZN4MQTT4loopEv+0x12c>
                            msgId = (buffer[llen+3+tl]<<8)+buffer[llen+3+tl+1];
   d649c:	4471      	add	r1, lr
                            payload = buffer+llen+3+tl+2;
                            callback(topic,payload,len-llen-3-tl-2);
   d649e:	ebce 0202 	rsb	r2, lr, r2
                            topic[i] = buffer[llen+3+i];
                        }
                        topic[tl] = 0;
                        // msgId only present for QOS>0
                        if ((buffer[0]&0x06) == MQTTQOS1_HEADER_MASK) { // QoS=1
                            msgId = (buffer[llen+3+tl]<<8)+buffer[llen+3+tl+1];
   d64a2:	f813 8001 	ldrb.w	r8, [r3, r1]
   d64a6:	4419      	add	r1, r3
                            payload = buffer+llen+3+tl+2;
                            callback(topic,payload,len-llen-3-tl-2);
   d64a8:	3a05      	subs	r2, #5
                            topic[i] = buffer[llen+3+i];
                        }
                        topic[tl] = 0;
                        // msgId only present for QOS>0
                        if ((buffer[0]&0x06) == MQTTQOS1_HEADER_MASK) { // QoS=1
                            msgId = (buffer[llen+3+tl]<<8)+buffer[llen+3+tl+1];
   d64aa:	7849      	ldrb	r1, [r1, #1]
   d64ac:	eb01 2808 	add.w	r8, r1, r8, lsl #8
                            payload = buffer+llen+3+tl+2;
                            callback(topic,payload,len-llen-3-tl-2);
   d64b0:	f10c 0105 	add.w	r1, ip, #5
   d64b4:	4471      	add	r1, lr
   d64b6:	4419      	add	r1, r3
   d64b8:	47d8      	blx	fp

                            buffer[0] = MQTTPUBACK; // respond with PUBACK
   d64ba:	69e3      	ldr	r3, [r4, #28]
   d64bc:	2240      	movs	r2, #64	; 0x40
   d64be:	701a      	strb	r2, [r3, #0]
                            buffer[1] = 2;
   d64c0:	69e3      	ldr	r3, [r4, #28]
   d64c2:	705e      	strb	r6, [r3, #1]
                            buffer[2] = (msgId >> 8);
   d64c4:	69e3      	ldr	r3, [r4, #28]
                            topic[i] = buffer[llen+3+i];
                        }
                        topic[tl] = 0;
                        // msgId only present for QOS>0
                        if ((buffer[0]&0x06) == MQTTQOS1_HEADER_MASK) { // QoS=1
                            msgId = (buffer[llen+3+tl]<<8)+buffer[llen+3+tl+1];
   d64c6:	fa1f f888 	uxth.w	r8, r8
                            payload = buffer+llen+3+tl+2;
                            callback(topic,payload,len-llen-3-tl-2);

                            buffer[0] = MQTTPUBACK; // respond with PUBACK
                            buffer[1] = 2;
                            buffer[2] = (msgId >> 8);
   d64ca:	ea4f 2228 	mov.w	r2, r8, asr #8
   d64ce:	709a      	strb	r2, [r3, #2]
                            buffer[3] = (msgId & 0xFF);
   d64d0:	69e3      	ldr	r3, [r4, #28]
                            _client.write(buffer,4);
   d64d2:	2204      	movs	r2, #4
                            callback(topic,payload,len-llen-3-tl-2);

                            buffer[0] = MQTTPUBACK; // respond with PUBACK
                            buffer[1] = 2;
                            buffer[2] = (msgId >> 8);
                            buffer[3] = (msgId & 0xFF);
   d64d4:	f883 8003 	strb.w	r8, [r3, #3]
   d64d8:	e020      	b.n	d651c <_ZN4MQTT4loopEv+0x16e>
                            _client.write(buffer,4);
                            lastOutActivity = t;
        						    } else if ((buffer[0] & 0x06) == MQTTQOS2_HEADER_MASK) { // QoS=2
   d64da:	2e04      	cmp	r6, #4
   d64dc:	d124      	bne.n	d6528 <_ZN4MQTT4loopEv+0x17a>
							              msgId = (buffer[llen + 3 + tl] << 8) + buffer[llen + 3 + tl + 1];
   d64de:	4471      	add	r1, lr
							              payload = buffer + llen + 3 + tl + 2;
							              callback(topic, payload, len - llen - 3 - tl - 2);
   d64e0:	ebce 0202 	rsb	r2, lr, r2
                            buffer[2] = (msgId >> 8);
                            buffer[3] = (msgId & 0xFF);
                            _client.write(buffer,4);
                            lastOutActivity = t;
        						    } else if ((buffer[0] & 0x06) == MQTTQOS2_HEADER_MASK) { // QoS=2
							              msgId = (buffer[llen + 3 + tl] << 8) + buffer[llen + 3 + tl + 1];
   d64e4:	f813 8001 	ldrb.w	r8, [r3, r1]
   d64e8:	4419      	add	r1, r3
							              payload = buffer + llen + 3 + tl + 2;
							              callback(topic, payload, len - llen - 3 - tl - 2);
   d64ea:	3a05      	subs	r2, #5
                            buffer[2] = (msgId >> 8);
                            buffer[3] = (msgId & 0xFF);
                            _client.write(buffer,4);
                            lastOutActivity = t;
        						    } else if ((buffer[0] & 0x06) == MQTTQOS2_HEADER_MASK) { // QoS=2
							              msgId = (buffer[llen + 3 + tl] << 8) + buffer[llen + 3 + tl + 1];
   d64ec:	7849      	ldrb	r1, [r1, #1]
   d64ee:	eb01 2808 	add.w	r8, r1, r8, lsl #8
							              payload = buffer + llen + 3 + tl + 2;
							              callback(topic, payload, len - llen - 3 - tl - 2);
   d64f2:	f10c 0105 	add.w	r1, ip, #5
   d64f6:	4471      	add	r1, lr
   d64f8:	4419      	add	r1, r3
   d64fa:	47d8      	blx	fp

              							buffer[0] = MQTTPUBREC; // respond with PUBREC
   d64fc:	69e3      	ldr	r3, [r4, #28]
   d64fe:	2250      	movs	r2, #80	; 0x50
   d6500:	701a      	strb	r2, [r3, #0]
              							buffer[1] = 2;
   d6502:	69e3      	ldr	r3, [r4, #28]
   d6504:	2202      	movs	r2, #2
   d6506:	705a      	strb	r2, [r3, #1]
              							buffer[2] = (msgId >> 8);
   d6508:	69e3      	ldr	r3, [r4, #28]
                            buffer[2] = (msgId >> 8);
                            buffer[3] = (msgId & 0xFF);
                            _client.write(buffer,4);
                            lastOutActivity = t;
        						    } else if ((buffer[0] & 0x06) == MQTTQOS2_HEADER_MASK) { // QoS=2
							              msgId = (buffer[llen + 3 + tl] << 8) + buffer[llen + 3 + tl + 1];
   d650a:	fa1f f888 	uxth.w	r8, r8
							              payload = buffer + llen + 3 + tl + 2;
							              callback(topic, payload, len - llen - 3 - tl - 2);

              							buffer[0] = MQTTPUBREC; // respond with PUBREC
              							buffer[1] = 2;
              							buffer[2] = (msgId >> 8);
   d650e:	ea4f 2228 	mov.w	r2, r8, asr #8
   d6512:	709a      	strb	r2, [r3, #2]
              							buffer[3] = (msgId & 0xFF);
   d6514:	69e3      	ldr	r3, [r4, #28]
              							_client.write(buffer, 4);
   d6516:	4632      	mov	r2, r6
							              callback(topic, payload, len - llen - 3 - tl - 2);

              							buffer[0] = MQTTPUBREC; // respond with PUBREC
              							buffer[1] = 2;
              							buffer[2] = (msgId >> 8);
              							buffer[3] = (msgId & 0xFF);
   d6518:	f883 8003 	strb.w	r8, [r3, #3]
              							_client.write(buffer, 4);
   d651c:	69e1      	ldr	r1, [r4, #28]
   d651e:	4620      	mov	r0, r4
   d6520:	f003 fc55 	bl	d9dce <_ZN9TCPClient5writeEPKhj>
              							lastOutActivity = t;
   d6524:	6265      	str	r5, [r4, #36]	; 0x24
   d6526:	e005      	b.n	d6534 <_ZN4MQTT4loopEv+0x186>
            						} else {
                            payload = buffer+llen+3+tl;
                            callback(topic,payload,len-llen-3-tl);
   d6528:	3a03      	subs	r2, #3
   d652a:	4471      	add	r1, lr
   d652c:	ebce 0202 	rsb	r2, lr, r2
   d6530:	4419      	add	r1, r3
   d6532:	47d8      	blx	fp
   d6534:	46d5      	mov	sp, sl
   d6536:	e03b      	b.n	d65b0 <_ZN4MQTT4loopEv+0x202>
                        }
                    }
                } else if (type == MQTTPUBREC) {
   d6538:	2950      	cmp	r1, #80	; 0x50
   d653a:	d108      	bne.n	d654e <_ZN4MQTT4loopEv+0x1a0>
                    // check for the situation that QoS2 receive PUBREC, should return PUBREL
                    msgId = (buffer[2] << 8) + buffer[3];
                    this->publishRelease(msgId);
   d653c:	7899      	ldrb	r1, [r3, #2]
   d653e:	78db      	ldrb	r3, [r3, #3]
   d6540:	eb03 2101 	add.w	r1, r3, r1, lsl #8
   d6544:	b289      	uxth	r1, r1
   d6546:	4620      	mov	r0, r4
   d6548:	f7ff fefd 	bl	d6346 <_ZN4MQTT14publishReleaseEt>
   d654c:	e030      	b.n	d65b0 <_ZN4MQTT4loopEv+0x202>
                } else if (type == MQTTPUBACK) {
   d654e:	2940      	cmp	r1, #64	; 0x40
   d6550:	d00c      	beq.n	d656c <_ZN4MQTT4loopEv+0x1be>
                        if (len == 4 && (buffer[0]&0x06) == MQTTQOS0_HEADER_MASK) {
                            msgId = (buffer[2]<<8)+buffer[3];
                            this->qoscallback(msgId);
                        }
                    }
                } else if (type == MQTTPUBREL) {
   d6552:	2960      	cmp	r1, #96	; 0x60
   d6554:	d108      	bne.n	d6568 <_ZN4MQTT4loopEv+0x1ba>
                  msgId = (buffer[2] << 8) + buffer[3];
                  this->publishComplete(msgId);
   d6556:	7899      	ldrb	r1, [r3, #2]
   d6558:	78db      	ldrb	r3, [r3, #3]
   d655a:	eb03 2101 	add.w	r1, r3, r1, lsl #8
   d655e:	b289      	uxth	r1, r1
   d6560:	4620      	mov	r0, r4
   d6562:	f7ff ff0a 	bl	d637a <_ZN4MQTT15publishCompleteEt>
   d6566:	e023      	b.n	d65b0 <_ZN4MQTT4loopEv+0x202>
                } else if (type == MQTTPUBCOMP) {
   d6568:	2970      	cmp	r1, #112	; 0x70
   d656a:	d10d      	bne.n	d6588 <_ZN4MQTT4loopEv+0x1da>
                  if (qoscallback) {
   d656c:	6b61      	ldr	r1, [r4, #52]	; 0x34
   d656e:	b1f9      	cbz	r1, d65b0 <_ZN4MQTT4loopEv+0x202>
                      // msgId only present for QOS==0
                      if (len == 4 && (buffer[0]&0x06) == MQTTQOS0_HEADER_MASK) {
   d6570:	2a04      	cmp	r2, #4
   d6572:	d11d      	bne.n	d65b0 <_ZN4MQTT4loopEv+0x202>
   d6574:	f010 0f06 	tst.w	r0, #6
   d6578:	d11a      	bne.n	d65b0 <_ZN4MQTT4loopEv+0x202>
                          msgId = (buffer[2]<<8)+buffer[3];
                          this->qoscallback(msgId);
   d657a:	7898      	ldrb	r0, [r3, #2]
   d657c:	78db      	ldrb	r3, [r3, #3]
   d657e:	eb03 2000 	add.w	r0, r3, r0, lsl #8
   d6582:	b280      	uxth	r0, r0
   d6584:	4788      	blx	r1
   d6586:	e013      	b.n	d65b0 <_ZN4MQTT4loopEv+0x202>
                      }
                  }
                } else if (type == MQTTSUBACK) {
   d6588:	2990      	cmp	r1, #144	; 0x90
   d658a:	d011      	beq.n	d65b0 <_ZN4MQTT4loopEv+0x202>
                    // if something...
                } else if (type == MQTTPINGREQ) {
   d658c:	29c0      	cmp	r1, #192	; 0xc0
   d658e:	d10a      	bne.n	d65a6 <_ZN4MQTT4loopEv+0x1f8>
                    buffer[0] = MQTTPINGRESP;
   d6590:	22d0      	movs	r2, #208	; 0xd0
   d6592:	701a      	strb	r2, [r3, #0]
                    buffer[1] = 0;
   d6594:	69e3      	ldr	r3, [r4, #28]
   d6596:	2200      	movs	r2, #0
   d6598:	705a      	strb	r2, [r3, #1]
                    _client.write(buffer,2);
   d659a:	69e1      	ldr	r1, [r4, #28]
   d659c:	2202      	movs	r2, #2
   d659e:	4620      	mov	r0, r4
   d65a0:	f003 fc15 	bl	d9dce <_ZN9TCPClient5writeEPKhj>
   d65a4:	e004      	b.n	d65b0 <_ZN4MQTT4loopEv+0x202>
                } else if (type == MQTTPINGRESP) {
   d65a6:	29d0      	cmp	r1, #208	; 0xd0
                    pingOutstanding = false;
   d65a8:	bf04      	itt	eq
   d65aa:	2300      	moveq	r3, #0
   d65ac:	f884 302c 	strbeq.w	r3, [r4, #44]	; 0x2c
            }
        }
        return true;
    }
    return false;
}
   d65b0:	4648      	mov	r0, r9
   d65b2:	370c      	adds	r7, #12
   d65b4:	46bd      	mov	sp, r7
   d65b6:	e8bd 8ff0 	ldmia.w	sp!, {r4, r5, r6, r7, r8, r9, sl, fp, pc}

000d65ba <_ZN4MQTT9subscribeEPKcNS_9EMQTT_QOSE>:

bool MQTT::subscribe(const char* topic) {
    return subscribe(topic, QOS0);
}

bool MQTT::subscribe(const char* topic, EMQTT_QOS qos) {
   d65ba:	b570      	push	{r4, r5, r6, lr}
   d65bc:	4604      	mov	r4, r0
   d65be:	460e      	mov	r6, r1
   d65c0:	4615      	mov	r5, r2

    if (isConnected()) {
   d65c2:	f7ff fd3f 	bl	d6044 <_ZN4MQTT11isConnectedEv>
   d65c6:	b1e8      	cbz	r0, d6604 <_ZN4MQTT9subscribeEPKcNS_9EMQTT_QOSE+0x4a>
        // Leave room in the buffer for header and variable length field
        uint16_t length = 5;
        nextMsgId++;
   d65c8:	8c23      	ldrh	r3, [r4, #32]
   d65ca:	3301      	adds	r3, #1
   d65cc:	b29b      	uxth	r3, r3
        if (nextMsgId == 0) {
   d65ce:	b903      	cbnz	r3, d65d2 <_ZN4MQTT9subscribeEPKcNS_9EMQTT_QOSE+0x18>
            nextMsgId = 1;
   d65d0:	2301      	movs	r3, #1
   d65d2:	8423      	strh	r3, [r4, #32]
        }
        buffer[length++] = (nextMsgId >> 8);
   d65d4:	8c23      	ldrh	r3, [r4, #32]
   d65d6:	69e2      	ldr	r2, [r4, #28]
   d65d8:	121b      	asrs	r3, r3, #8
   d65da:	7153      	strb	r3, [r2, #5]
        buffer[length++] = (nextMsgId & 0xFF);
   d65dc:	69e3      	ldr	r3, [r4, #28]
   d65de:	8c22      	ldrh	r2, [r4, #32]
   d65e0:	719a      	strb	r2, [r3, #6]
        length = writeString(topic, buffer,length);
   d65e2:	69e2      	ldr	r2, [r4, #28]
   d65e4:	4631      	mov	r1, r6
   d65e6:	2307      	movs	r3, #7
   d65e8:	4620      	mov	r0, r4
   d65ea:	f7ff fd11 	bl	d6010 <_ZN4MQTT11writeStringEPKcPht>
        buffer[length++] = qos;
   d65ee:	69e3      	ldr	r3, [r4, #28]
   d65f0:	541d      	strb	r5, [r3, r0]
        return write(MQTTSUBSCRIBE | MQTTQOS1_HEADER_MASK,buffer,length-5);
   d65f2:	1f03      	subs	r3, r0, #4
   d65f4:	69e2      	ldr	r2, [r4, #28]
   d65f6:	4620      	mov	r0, r4
   d65f8:	b29b      	uxth	r3, r3
   d65fa:	2182      	movs	r1, #130	; 0x82
    }
    return false;
}
   d65fc:	e8bd 4070 	ldmia.w	sp!, {r4, r5, r6, lr}
        }
        buffer[length++] = (nextMsgId >> 8);
        buffer[length++] = (nextMsgId & 0xFF);
        length = writeString(topic, buffer,length);
        buffer[length++] = qos;
        return write(MQTTSUBSCRIBE | MQTTQOS1_HEADER_MASK,buffer,length-5);
   d6600:	f7ff bcbf 	b.w	d5f82 <_ZN4MQTT5writeEhPht>
    }
    return false;
}
   d6604:	bd70      	pop	{r4, r5, r6, pc}

000d6606 <_ZN4MQTT9subscribeEPKc>:
    lastOutActivity = millis();
    return (rc == 1+llen+length);
}

bool MQTT::subscribe(const char* topic) {
    return subscribe(topic, QOS0);
   d6606:	2200      	movs	r2, #0
   d6608:	f7ff bfd7 	b.w	d65ba <_ZN4MQTT9subscribeEPKcNS_9EMQTT_QOSE>

000d660c <_ZN4MQTTD1Ev>:

MQTT::MQTT(uint8_t *ip, uint16_t port, int keepalive, void (*callback)(char*,uint8_t*,unsigned int), int maxpacketsize) {
    this->initialize(NULL, ip, port, keepalive, callback, maxpacketsize);
}

MQTT::~MQTT() {
   d660c:	b510      	push	{r4, lr}
   d660e:	4604      	mov	r4, r0
    if (isConnected()) {
   d6610:	f7ff fd18 	bl	d6044 <_ZN4MQTT11isConnectedEv>
   d6614:	b110      	cbz	r0, d661c <_ZN4MQTTD1Ev+0x10>
        disconnect();
   d6616:	4620      	mov	r0, r4
   d6618:	f7ff fce6 	bl	d5fe8 <_ZN4MQTT10disconnectEv>
    }

    if (buffer != NULL)
   d661c:	69e0      	ldr	r0, [r4, #28]
   d661e:	b108      	cbz	r0, d6624 <_ZN4MQTTD1Ev+0x18>
      delete[] buffer;
   d6620:	f7fd fd41 	bl	d40a6 <_ZdaPv>

MQTT::MQTT(uint8_t *ip, uint16_t port, int keepalive, void (*callback)(char*,uint8_t*,unsigned int), int maxpacketsize) {
    this->initialize(NULL, ip, port, keepalive, callback, maxpacketsize);
}

MQTT::~MQTT() {
   d6624:	f104 0038 	add.w	r0, r4, #56	; 0x38
   d6628:	f002 fcae 	bl	d8f88 <_ZN6StringD1Ev>
   d662c:	4620      	mov	r0, r4
   d662e:	f7ff fbdb 	bl	d5de8 <_ZN9TCPClientD1Ev>
        disconnect();
    }

    if (buffer != NULL)
      delete[] buffer;
}
   d6632:	4620      	mov	r0, r4
   d6634:	bd10      	pop	{r4, pc}

000d6636 <_GLOBAL__sub_I__ZN4MQTTC2EPctPFvS0_PhjE>:
   d6636:	f001 bf85 	b.w	d8544 <HAL_Pin_Map>

000d663a <_GLOBAL__sub_I_MinimumSerial.cpp>:
   d663a:	f001 bf83 	b.w	d8544 <HAL_Pin_Map>

000d663e <_GLOBAL__sub_I__ZN7istream3getEv>:
   d663e:	f001 bf81 	b.w	d8544 <HAL_Pin_Map>

000d6642 <_ZN9FatVolume9cacheSyncEv>:
  FatCache m_fatCache;
  cache_t* cacheFetchFat(uint32_t blockNumber, uint8_t options) {
    return m_fatCache.read(blockNumber,
                           options | FatCache::CACHE_STATUS_MIRROR_FAT);
  }
  bool cacheSync() {
   d6642:	b510      	push	{r4, lr}
   d6644:	4604      	mov	r4, r0
    return m_cache.sync() && m_fatCache.sync() && syncBlocks();
   d6646:	3024      	adds	r0, #36	; 0x24
   d6648:	f000 ff9c 	bl	d7584 <_ZN8FatCache4syncEv>
   d664c:	b128      	cbz	r0, d665a <_ZN9FatVolume9cacheSyncEv+0x18>
   d664e:	f504 700c 	add.w	r0, r4, #560	; 0x230
  }
   d6652:	e8bd 4010 	ldmia.w	sp!, {r4, lr}
  cache_t* cacheFetchFat(uint32_t blockNumber, uint8_t options) {
    return m_fatCache.read(blockNumber,
                           options | FatCache::CACHE_STATUS_MIRROR_FAT);
  }
  bool cacheSync() {
    return m_cache.sync() && m_fatCache.sync() && syncBlocks();
   d6656:	f000 bf95 	b.w	d7584 <_ZN8FatCache4syncEv>
  }
   d665a:	bd10      	pop	{r4, pc}

000d665c <_ZN7FatFile11lfnChecksumEPh>:
 * DEALINGS IN THE SOFTWARE.
 */
#include "FatFile.h"
//------------------------------------------------------------------------------
//
uint8_t FatFile::lfnChecksum(uint8_t* name) {
   d665c:	1e41      	subs	r1, r0, #1
   d665e:	f100 020a 	add.w	r2, r0, #10
  uint8_t sum = 0;
   d6662:	2000      	movs	r0, #0
  for (uint8_t i = 0; i < 11; i++) {
    sum = (((sum & 1) << 7) | ((sum & 0xfe) >> 1)) + name[i];
   d6664:	0843      	lsrs	r3, r0, #1
   d6666:	ea43 10c0 	orr.w	r0, r3, r0, lsl #7
   d666a:	f811 3f01 	ldrb.w	r3, [r1, #1]!
   d666e:	fa53 f080 	uxtab	r0, r3, r0
#include "FatFile.h"
//------------------------------------------------------------------------------
//
uint8_t FatFile::lfnChecksum(uint8_t* name) {
  uint8_t sum = 0;
  for (uint8_t i = 0; i < 11; i++) {
   d6672:	428a      	cmp	r2, r1
    sum = (((sum & 1) << 7) | ((sum & 0xfe) >> 1)) + name[i];
   d6674:	b2c0      	uxtb	r0, r0
#include "FatFile.h"
//------------------------------------------------------------------------------
//
uint8_t FatFile::lfnChecksum(uint8_t* name) {
  uint8_t sum = 0;
  for (uint8_t i = 0; i < 11; i++) {
   d6676:	d1f5      	bne.n	d6664 <_ZN7FatFile11lfnChecksumEPh+0x8>
    sum = (((sum & 1) << 7) | ((sum & 0xfe) >> 1)) + name[i];
  }
  return sum;
}
   d6678:	4770      	bx	lr

000d667a <_ZN7FatFile11openClusterEPS_>:
fail:
  name[0] = 0;
  return false;
}
//------------------------------------------------------------------------------
bool FatFile::openCluster(FatFile* file) {
   d667a:	b538      	push	{r3, r4, r5, lr}
  if (file->m_dirCluster == 0) {
   d667c:	68cb      	ldr	r3, [r1, #12]
fail:
  name[0] = 0;
  return false;
}
//------------------------------------------------------------------------------
bool FatFile::openCluster(FatFile* file) {
   d667e:	4604      	mov	r4, r0
   d6680:	460d      	mov	r5, r1
  if (file->m_dirCluster == 0) {
   d6682:	b923      	cbnz	r3, d668e <_ZN7FatFile11openClusterEPS_+0x14>
    return openRoot(file->m_vol);
   d6684:	6889      	ldr	r1, [r1, #8]
  m_attr = FILE_ATTR_SUBDIR;
  m_flags = F_READ;
  m_vol = file->m_vol;
  m_firstCluster = file->m_dirCluster;
  return true;
}
   d6686:	e8bd 4038 	ldmia.w	sp!, {r3, r4, r5, lr}
  return false;
}
//------------------------------------------------------------------------------
bool FatFile::openCluster(FatFile* file) {
  if (file->m_dirCluster == 0) {
    return openRoot(file->m_vol);
   d668a:	f000 bc08 	b.w	d6e9e <_ZN7FatFile8openRootEP9FatVolume>
  }
  memset(this, 0, sizeof(FatFile));
   d668e:	2224      	movs	r2, #36	; 0x24
   d6690:	2100      	movs	r1, #0
   d6692:	f004 fea7 	bl	db3e4 <memset>
  m_attr = FILE_ATTR_SUBDIR;
   d6696:	2310      	movs	r3, #16
  m_flags = F_READ;
   d6698:	2001      	movs	r0, #1
bool FatFile::openCluster(FatFile* file) {
  if (file->m_dirCluster == 0) {
    return openRoot(file->m_vol);
  }
  memset(this, 0, sizeof(FatFile));
  m_attr = FILE_ATTR_SUBDIR;
   d669a:	7023      	strb	r3, [r4, #0]
  m_flags = F_READ;
   d669c:	70a0      	strb	r0, [r4, #2]
  m_vol = file->m_vol;
   d669e:	68ab      	ldr	r3, [r5, #8]
   d66a0:	60a3      	str	r3, [r4, #8]
  m_firstCluster = file->m_dirCluster;
   d66a2:	68eb      	ldr	r3, [r5, #12]
   d66a4:	6223      	str	r3, [r4, #32]
  return true;
}
   d66a6:	bd38      	pop	{r3, r4, r5, pc}

000d66a8 <_ZN7FatFile13parsePathNameEPKcP7fname_tPS1_>:
//------------------------------------------------------------------------------
bool FatFile::parsePathName(const char* path,
                            fname_t* fname, const char** ptr) {
   d66a8:	e92d 47f0 	stmdb	sp!, {r4, r5, r6, r7, r8, r9, sl, lr}
  int len = 0;
  int si;
  int dot;

  // Skip leading spaces.
  while (*path == ' ') {
   d66ac:	7803      	ldrb	r3, [r0, #0]
   d66ae:	2b20      	cmp	r3, #32
   d66b0:	f100 0401 	add.w	r4, r0, #1
   d66b4:	d101      	bne.n	d66ba <_ZN7FatFile13parsePathNameEPKcP7fname_tPS1_+0x12>
   d66b6:	4620      	mov	r0, r4
   d66b8:	e7f8      	b.n	d66ac <_ZN7FatFile13parsePathNameEPKcP7fname_tPS1_+0x4>
  name[n - 1] = 0;
  return true;
}
//------------------------------------------------------------------------------
inline bool lfnLegalChar(char c) {
  if (c == '/' || c == '\\' || c == '"' || c == '*' ||
   d66ba:	4f70      	ldr	r7, [pc, #448]	; (d687c <_ZN7FatFile13parsePathNameEPKcP7fname_tPS1_+0x1d4>)

  // Skip leading spaces.
  while (*path == ' ') {
    path++;
  }
  fname->lfn = path;
   d66bc:	6088      	str	r0, [r1, #8]
   d66be:	4605      	mov	r5, r0
   d66c0:	1a2c      	subs	r4, r5, r0

  for (len = 0; ; len++) {
    c = path[len];
   d66c2:	462e      	mov	r6, r5
   d66c4:	f815 3b01 	ldrb.w	r3, [r5], #1
    if (c == 0 || isDirSeparator(c)) {
   d66c8:	b30b      	cbz	r3, d670e <_ZN7FatFile13parsePathNameEPKcP7fname_tPS1_+0x66>
   d66ca:	2b2f      	cmp	r3, #47	; 0x2f
   d66cc:	d101      	bne.n	d66d2 <_ZN7FatFile13parsePathNameEPKcP7fname_tPS1_+0x2a>
   d66ce:	1903      	adds	r3, r0, r4
   d66d0:	e017      	b.n	d6702 <_ZN7FatFile13parsePathNameEPKcP7fname_tPS1_+0x5a>
  name[n - 1] = 0;
  return true;
}
//------------------------------------------------------------------------------
inline bool lfnLegalChar(char c) {
  if (c == '/' || c == '\\' || c == '"' || c == '*' ||
   d66d2:	2b5c      	cmp	r3, #92	; 0x5c
   d66d4:	d102      	bne.n	d66dc <_ZN7FatFile13parsePathNameEPKcP7fname_tPS1_+0x34>
    c = path[len];
    if (c == 0 || isDirSeparator(c)) {
      break;
    }
    if (!lfnLegalChar(c)) {
      return false;
   d66d6:	2000      	movs	r0, #0
   d66d8:	e8bd 87f0 	ldmia.w	sp!, {r4, r5, r6, r7, r8, r9, sl, pc}
  name[n - 1] = 0;
  return true;
}
//------------------------------------------------------------------------------
inline bool lfnLegalChar(char c) {
  if (c == '/' || c == '\\' || c == '"' || c == '*' ||
   d66dc:	f1a3 0422 	sub.w	r4, r3, #34	; 0x22
   d66e0:	b2e4      	uxtb	r4, r4
   d66e2:	2c1d      	cmp	r4, #29
   d66e4:	d803      	bhi.n	d66ee <_ZN7FatFile13parsePathNameEPKcP7fname_tPS1_+0x46>
   d66e6:	fa27 f404 	lsr.w	r4, r7, r4
   d66ea:	07e4      	lsls	r4, r4, #31
   d66ec:	d4f3      	bmi.n	d66d6 <_ZN7FatFile13parsePathNameEPKcP7fname_tPS1_+0x2e>
      c == ':' || c == '<' || c == '>' || c == '?' || c == '|') {
   d66ee:	f003 04bf 	and.w	r4, r3, #191	; 0xbf
   d66f2:	2c3c      	cmp	r4, #60	; 0x3c
   d66f4:	d0ef      	beq.n	d66d6 <_ZN7FatFile13parsePathNameEPKcP7fname_tPS1_+0x2e>
  for (len = 0; ; len++) {
    c = path[len];
    if (c == 0 || isDirSeparator(c)) {
      break;
    }
    if (!lfnLegalChar(c)) {
   d66f6:	3b20      	subs	r3, #32
   d66f8:	2b5e      	cmp	r3, #94	; 0x5e
   d66fa:	d9e1      	bls.n	d66c0 <_ZN7FatFile13parsePathNameEPKcP7fname_tPS1_+0x18>
   d66fc:	e7eb      	b.n	d66d6 <_ZN7FatFile13parsePathNameEPKcP7fname_tPS1_+0x2e>
      return false;
    }
  }
  // Advance to next path component.
  for (end = len; path[end] ==  ' ' || isDirSeparator(path[end]); end++) {}
   d66fe:	2d2f      	cmp	r5, #47	; 0x2f
   d6700:	d105      	bne.n	d670e <_ZN7FatFile13parsePathNameEPKcP7fname_tPS1_+0x66>
   d6702:	461e      	mov	r6, r3
   d6704:	f813 5b01 	ldrb.w	r5, [r3], #1
   d6708:	2d20      	cmp	r5, #32
   d670a:	d1f8      	bne.n	d66fe <_ZN7FatFile13parsePathNameEPKcP7fname_tPS1_+0x56>
   d670c:	e7f9      	b.n	d6702 <_ZN7FatFile13parsePathNameEPKcP7fname_tPS1_+0x5a>
  *ptr = &path[end];
   d670e:	6016      	str	r6, [r2, #0]
   d6710:	1903      	adds	r3, r0, r4

  // Back over spaces and dots.
  while (len) {
   d6712:	4298      	cmp	r0, r3
   d6714:	ebc0 0803 	rsb	r8, r0, r3
   d6718:	d009      	beq.n	d672e <_ZN7FatFile13parsePathNameEPKcP7fname_tPS1_+0x86>
    c = path[len - 1];
   d671a:	f813 2d01 	ldrb.w	r2, [r3, #-1]!
    if (c != '.' && c != ' ') {
   d671e:	2a2e      	cmp	r2, #46	; 0x2e
   d6720:	d0f7      	beq.n	d6712 <_ZN7FatFile13parsePathNameEPKcP7fname_tPS1_+0x6a>
   d6722:	2a20      	cmp	r2, #32
   d6724:	d0f5      	beq.n	d6712 <_ZN7FatFile13parsePathNameEPKcP7fname_tPS1_+0x6a>
      break;
    }
    len--;
  }
  // Max length of LFN is 255.
  if (len > 255) {
   d6726:	f1b8 0fff 	cmp.w	r8, #255	; 0xff
   d672a:	dcd4      	bgt.n	d66d6 <_ZN7FatFile13parsePathNameEPKcP7fname_tPS1_+0x2e>
   d672c:	e001      	b.n	d6732 <_ZN7FatFile13parsePathNameEPKcP7fname_tPS1_+0x8a>
   d672e:	f04f 0800 	mov.w	r8, #0
    return false;
  }
  fname->len = len;
   d6732:	f8c1 8004 	str.w	r8, [r1, #4]
   d6736:	f101 030c 	add.w	r3, r1, #12
   d673a:	f101 0217 	add.w	r2, r1, #23
  // Blank file short name.
  for (uint8_t k = 0; k < 11; k++) {
    fname->sfn[k] = ' ';
   d673e:	2420      	movs	r4, #32
   d6740:	f803 4f01 	strb.w	r4, [r3, #1]!
  if (len > 255) {
    return false;
  }
  fname->len = len;
  // Blank file short name.
  for (uint8_t k = 0; k < 11; k++) {
   d6744:	4293      	cmp	r3, r2
   d6746:	d1fb      	bne.n	d6740 <_ZN7FatFile13parsePathNameEPKcP7fname_tPS1_+0x98>
   d6748:	4603      	mov	r3, r0
   d674a:	1a1a      	subs	r2, r3, r0
    fname->sfn[k] = ' ';
  }
  // skip leading spaces and dots.
  for (si = 0; path[si] == '.' || path[si] == ' '; si++) {}
   d674c:	f813 4b01 	ldrb.w	r4, [r3], #1
   d6750:	2c2e      	cmp	r4, #46	; 0x2e
   d6752:	d0fa      	beq.n	d674a <_ZN7FatFile13parsePathNameEPKcP7fname_tPS1_+0xa2>
   d6754:	2c20      	cmp	r4, #32
   d6756:	d0f8      	beq.n	d674a <_ZN7FatFile13parsePathNameEPKcP7fname_tPS1_+0xa2>
  // Not 8.3 if leading dot or space.
  is83 = !si;
   d6758:	fab2 f482 	clz	r4, r2
   d675c:	0964      	lsrs	r4, r4, #5

  // find last dot.
  for (dot = len - 1; dot >= 0 && path[dot] != '.'; dot--) {}
   d675e:	f108 36ff 	add.w	r6, r8, #4294967295
   d6762:	1c73      	adds	r3, r6, #1
   d6764:	d107      	bne.n	d6776 <_ZN7FatFile13parsePathNameEPKcP7fname_tPS1_+0xce>
   d6766:	2700      	movs	r7, #0
   d6768:	f04f 0e07 	mov.w	lr, #7
   d676c:	463d      	mov	r5, r7
   d676e:	46ba      	mov	sl, r7
   d6770:	f04f 0908 	mov.w	r9, #8
   d6774:	e009      	b.n	d678a <_ZN7FatFile13parsePathNameEPKcP7fname_tPS1_+0xe2>
   d6776:	5d83      	ldrb	r3, [r0, r6]
   d6778:	2b2e      	cmp	r3, #46	; 0x2e
   d677a:	d0f4      	beq.n	d6766 <_ZN7FatFile13parsePathNameEPKcP7fname_tPS1_+0xbe>
   d677c:	3e01      	subs	r6, #1
   d677e:	e7f0      	b.n	d6762 <_ZN7FatFile13parsePathNameEPKcP7fname_tPS1_+0xba>
  for (; si < len; si++) {
    c = path[si];
   d6780:	5c83      	ldrb	r3, [r0, r2]
    if (c == ' ' || (c == '.' && dot != si)) {
   d6782:	2b20      	cmp	r3, #32
   d6784:	d104      	bne.n	d6790 <_ZN7FatFile13parsePathNameEPKcP7fname_tPS1_+0xe8>
      is83 = false;
   d6786:	2400      	movs	r4, #0
  // Not 8.3 if leading dot or space.
  is83 = !si;

  // find last dot.
  for (dot = len - 1; dot >= 0 && path[dot] != '.'; dot--) {}
  for (; si < len; si++) {
   d6788:	3201      	adds	r2, #1
   d678a:	4542      	cmp	r2, r8
   d678c:	dbf8      	blt.n	d6780 <_ZN7FatFile13parsePathNameEPKcP7fname_tPS1_+0xd8>
   d678e:	e04b      	b.n	d6828 <_ZN7FatFile13parsePathNameEPKcP7fname_tPS1_+0x180>
    c = path[si];
    if (c == ' ' || (c == '.' && dot != si)) {
   d6790:	2b2e      	cmp	r3, #46	; 0x2e
   d6792:	d102      	bne.n	d679a <_ZN7FatFile13parsePathNameEPKcP7fname_tPS1_+0xf2>
   d6794:	42b2      	cmp	r2, r6
   d6796:	d1f6      	bne.n	d6786 <_ZN7FatFile13parsePathNameEPKcP7fname_tPS1_+0xde>
   d6798:	e003      	b.n	d67a2 <_ZN7FatFile13parsePathNameEPKcP7fname_tPS1_+0xfa>
  /** Check for a legal 8.3 character.
   * \param[in] c Character to be checked.
   * \return true for a legal 8.3 character else false.
   */
  static bool legal83Char(uint8_t c) {
    if (c == '"' || c == '|') {
   d679a:	2b22      	cmp	r3, #34	; 0x22
   d679c:	d017      	beq.n	d67ce <_ZN7FatFile13parsePathNameEPKcP7fname_tPS1_+0x126>
   d679e:	2b7c      	cmp	r3, #124	; 0x7c
   d67a0:	d015      	beq.n	d67ce <_ZN7FatFile13parsePathNameEPKcP7fname_tPS1_+0x126>
      return false;
    }
    // *+,./
    if (0X2A <= c && c <= 0X2F && c != 0X2D) {
   d67a2:	f1a3 0c2a 	sub.w	ip, r3, #42	; 0x2a
   d67a6:	f1bc 0f05 	cmp.w	ip, #5
   d67aa:	d801      	bhi.n	d67b0 <_ZN7FatFile13parsePathNameEPKcP7fname_tPS1_+0x108>
   d67ac:	2b2d      	cmp	r3, #45	; 0x2d
   d67ae:	d10e      	bne.n	d67ce <_ZN7FatFile13parsePathNameEPKcP7fname_tPS1_+0x126>
      return false;
    }
    // :;<=>?
    if (0X3A <= c && c <= 0X3F) {
   d67b0:	f1a3 0c3a 	sub.w	ip, r3, #58	; 0x3a
   d67b4:	f1bc 0f05 	cmp.w	ip, #5
   d67b8:	d909      	bls.n	d67ce <_ZN7FatFile13parsePathNameEPKcP7fname_tPS1_+0x126>
      return false;
    }
    // [\]
    if (0X5B <= c && c <= 0X5D) {
   d67ba:	f1a3 0c5b 	sub.w	ip, r3, #91	; 0x5b
   d67be:	f1bc 0f02 	cmp.w	ip, #2
   d67c2:	d904      	bls.n	d67ce <_ZN7FatFile13parsePathNameEPKcP7fname_tPS1_+0x126>
      is83 = false;
      continue;
    }
    if (!legal83Char(c) && si != dot) {
   d67c4:	f1a3 0c21 	sub.w	ip, r3, #33	; 0x21
   d67c8:	f1bc 0f5d 	cmp.w	ip, #93	; 0x5d
   d67cc:	d902      	bls.n	d67d4 <_ZN7FatFile13parsePathNameEPKcP7fname_tPS1_+0x12c>
   d67ce:	42b2      	cmp	r2, r6
   d67d0:	d10e      	bne.n	d67f0 <_ZN7FatFile13parsePathNameEPKcP7fname_tPS1_+0x148>
   d67d2:	e049      	b.n	d6868 <_ZN7FatFile13parsePathNameEPKcP7fname_tPS1_+0x1c0>
      is83 = false;
      c = '_';
    }
    if (si == dot || i > in) {
   d67d4:	42b2      	cmp	r2, r6
   d67d6:	d047      	beq.n	d6868 <_ZN7FatFile13parsePathNameEPKcP7fname_tPS1_+0x1c0>
   d67d8:	4575      	cmp	r5, lr
   d67da:	d821      	bhi.n	d6820 <_ZN7FatFile13parsePathNameEPKcP7fname_tPS1_+0x178>
      si = dot;
      in = 10;  // Max index for full 8.3 name.
      i = 8;    // Place for extension.
      bit = DIR_NT_LC_EXT;  // bit for extension.
    } else {
      if ('a' <= c && c <= 'z') {
   d67dc:	f1a3 0c61 	sub.w	ip, r3, #97	; 0x61
   d67e0:	f1bc 0f19 	cmp.w	ip, #25
   d67e4:	d808      	bhi.n	d67f8 <_ZN7FatFile13parsePathNameEPKcP7fname_tPS1_+0x150>
        c += 'A' - 'a';
   d67e6:	3b20      	subs	r3, #32
   d67e8:	b2db      	uxtb	r3, r3
        lc |= bit;
   d67ea:	ea49 0707 	orr.w	r7, r9, r7
   d67ee:	e00a      	b.n	d6806 <_ZN7FatFile13parsePathNameEPKcP7fname_tPS1_+0x15e>
    }
    if (!legal83Char(c) && si != dot) {
      is83 = false;
      c = '_';
    }
    if (si == dot || i > in) {
   d67f0:	4575      	cmp	r5, lr
   d67f2:	d815      	bhi.n	d6820 <_ZN7FatFile13parsePathNameEPKcP7fname_tPS1_+0x178>
    if (c == ' ' || (c == '.' && dot != si)) {
      is83 = false;
      continue;
    }
    if (!legal83Char(c) && si != dot) {
      is83 = false;
   d67f4:	2400      	movs	r4, #0
      c = '_';
   d67f6:	235f      	movs	r3, #95	; 0x5f
      bit = DIR_NT_LC_EXT;  // bit for extension.
    } else {
      if ('a' <= c && c <= 'z') {
        c += 'A' - 'a';
        lc |= bit;
      } else if ('A' <= c && c <= 'Z') {
   d67f8:	f1a3 0c41 	sub.w	ip, r3, #65	; 0x41
   d67fc:	f1bc 0f19 	cmp.w	ip, #25
        uc |= bit;
   d6800:	bf98      	it	ls
   d6802:	ea49 0a0a 	orrls.w	sl, r9, sl
      }
      fname->sfn[i++] = c;
   d6806:	f105 0c01 	add.w	ip, r5, #1
   d680a:	fa5f fc8c 	uxtb.w	ip, ip
   d680e:	440d      	add	r5, r1
      if (i < 7) {
   d6810:	f1bc 0f06 	cmp.w	ip, #6
        c += 'A' - 'a';
        lc |= bit;
      } else if ('A' <= c && c <= 'Z') {
        uc |= bit;
      }
      fname->sfn[i++] = c;
   d6814:	736b      	strb	r3, [r5, #13]
      if (i < 7) {
   d6816:	d801      	bhi.n	d681c <_ZN7FatFile13parsePathNameEPKcP7fname_tPS1_+0x174>
        fname->seqPos = i;
   d6818:	f881 c00c 	strb.w	ip, [r1, #12]
   d681c:	4665      	mov	r5, ip
   d681e:	e7b3      	b.n	d6788 <_ZN7FatFile13parsePathNameEPKcP7fname_tPS1_+0xe0>
    if (!legal83Char(c) && si != dot) {
      is83 = false;
      c = '_';
    }
    if (si == dot || i > in) {
      if (in == 10) {
   d6820:	f1be 0f0a 	cmp.w	lr, #10
   d6824:	d117      	bne.n	d6856 <_ZN7FatFile13parsePathNameEPKcP7fname_tPS1_+0x1ae>
        // Done - extension longer than three characters.
        is83 = false;
        break;
      }
      if (si != dot) {
        is83 = false;
   d6826:	2400      	movs	r4, #0
      if (i < 7) {
        fname->seqPos = i;
      }
    }
  }
  if (fname->sfn[0] == ' ') {
   d6828:	7b4b      	ldrb	r3, [r1, #13]
   d682a:	2b20      	cmp	r3, #32
   d682c:	f43f af53 	beq.w	d66d6 <_ZN7FatFile13parsePathNameEPKcP7fname_tPS1_+0x2e>
    return false;
  }

  if (is83) {
   d6830:	b13c      	cbz	r4, d6842 <_ZN7FatFile13parsePathNameEPKcP7fname_tPS1_+0x19a>
    fname->flags = lc & uc ? FNAME_FLAG_MIXED_CASE : lc;
   d6832:	ea1a 0f07 	tst.w	sl, r7
   d6836:	bf18      	it	ne
   d6838:	2702      	movne	r7, #2
   d683a:	700f      	strb	r7, [r1, #0]
  } else {
    fname->flags = FNAME_FLAG_LOST_CHARS;
    fname->sfn[fname->seqPos] = '~';
    fname->sfn[fname->seqPos + 1] = '1';
  }
  return true;
   d683c:	2001      	movs	r0, #1
   d683e:	e8bd 87f0 	ldmia.w	sp!, {r4, r5, r6, r7, r8, r9, sl, pc}

  if (is83) {
    fname->flags = lc & uc ? FNAME_FLAG_MIXED_CASE : lc;
  } else {
    fname->flags = FNAME_FLAG_LOST_CHARS;
    fname->sfn[fname->seqPos] = '~';
   d6842:	7b0b      	ldrb	r3, [r1, #12]
  }

  if (is83) {
    fname->flags = lc & uc ? FNAME_FLAG_MIXED_CASE : lc;
  } else {
    fname->flags = FNAME_FLAG_LOST_CHARS;
   d6844:	2001      	movs	r0, #1
   d6846:	7008      	strb	r0, [r1, #0]
    fname->sfn[fname->seqPos] = '~';
   d6848:	4419      	add	r1, r3
   d684a:	237e      	movs	r3, #126	; 0x7e
   d684c:	734b      	strb	r3, [r1, #13]
    fname->sfn[fname->seqPos + 1] = '1';
   d684e:	2331      	movs	r3, #49	; 0x31
   d6850:	738b      	strb	r3, [r1, #14]
   d6852:	e8bd 87f0 	ldmia.w	sp!, {r4, r5, r6, r7, r8, r9, sl, pc}
      }
      if (si != dot) {
        is83 = false;
      }
      // Break if no dot and base-name is longer than eight characters.
      if (si > dot) {
   d6856:	42b2      	cmp	r2, r6
   d6858:	dce5      	bgt.n	d6826 <_ZN7FatFile13parsePathNameEPKcP7fname_tPS1_+0x17e>
   d685a:	4632      	mov	r2, r6
        break;
      }
      si = dot;
      in = 10;  // Max index for full 8.3 name.
   d685c:	f04f 0e0a 	mov.w	lr, #10
      i = 8;    // Place for extension.
   d6860:	2508      	movs	r5, #8
      bit = DIR_NT_LC_EXT;  // bit for extension.
   d6862:	f04f 0910 	mov.w	r9, #16
   d6866:	e78e      	b.n	d6786 <_ZN7FatFile13parsePathNameEPKcP7fname_tPS1_+0xde>
    if (!legal83Char(c) && si != dot) {
      is83 = false;
      c = '_';
    }
    if (si == dot || i > in) {
      if (in == 10) {
   d6868:	f1be 0f0a 	cmp.w	lr, #10
   d686c:	d0db      	beq.n	d6826 <_ZN7FatFile13parsePathNameEPKcP7fname_tPS1_+0x17e>
   d686e:	4632      	mov	r2, r6
      // Break if no dot and base-name is longer than eight characters.
      if (si > dot) {
        break;
      }
      si = dot;
      in = 10;  // Max index for full 8.3 name.
   d6870:	f04f 0e0a 	mov.w	lr, #10
      i = 8;    // Place for extension.
   d6874:	2508      	movs	r5, #8
      bit = DIR_NT_LC_EXT;  // bit for extension.
   d6876:	f04f 0910 	mov.w	r9, #16
   d687a:	e785      	b.n	d6788 <_ZN7FatFile13parsePathNameEPKcP7fname_tPS1_+0xe0>
   d687c:	31000101 	.word	0x31000101

000d6880 <_ZN7FatFile6removeEv>:

fail:
  return 0;
}
//------------------------------------------------------------------------------
bool FatFile::remove() {
   d6880:	b5f0      	push	{r4, r5, r6, r7, lr}
   d6882:	b08b      	sub	sp, #44	; 0x2c
 * \brief Basic file class.
 */
class FatFile {
 public:
  /** Create an instance. */
  FatFile() : m_attr(FILE_ATTR_CLOSED), m_error(0) {}
   d6884:	2300      	movs	r3, #0
   d6886:	f88d 3004 	strb.w	r3, [sp, #4]
   d688a:	f88d 3005 	strb.w	r3, [sp, #5]
  FatFile dirFile;
  dir_t* dir;
  ldir_t* ldir;

  // Cant' remove not open for write.
  if (!isFile() || !(m_flags & F_WRITE)) {
   d688e:	7803      	ldrb	r3, [r0, #0]
   d6890:	0719      	lsls	r1, r3, #28

fail:
  return 0;
}
//------------------------------------------------------------------------------
bool FatFile::remove() {
   d6892:	4604      	mov	r4, r0
  FatFile dirFile;
  dir_t* dir;
  ldir_t* ldir;

  // Cant' remove not open for write.
  if (!isFile() || !(m_flags & F_WRITE)) {
   d6894:	d508      	bpl.n	d68a8 <_ZN7FatFile6removeEv+0x28>
   d6896:	7883      	ldrb	r3, [r0, #2]
   d6898:	079a      	lsls	r2, r3, #30
   d689a:	d505      	bpl.n	d68a8 <_ZN7FatFile6removeEv+0x28>
    DBG_FAIL_MACRO;
    goto fail;
  }
  // Free any clusters.
  if (m_firstCluster && !m_vol->freeChain(m_firstCluster)) {
   d689c:	6a01      	ldr	r1, [r0, #32]
   d689e:	b129      	cbz	r1, d68ac <_ZN7FatFile6removeEv+0x2c>
   d68a0:	68a0      	ldr	r0, [r4, #8]
   d68a2:	f000 ff60 	bl	d7766 <_ZN9FatVolume9freeChainEm>
   d68a6:	b908      	cbnz	r0, d68ac <_ZN7FatFile6removeEv+0x2c>
  }
  // Fall into fail.
  DBG_FAIL_MACRO;

fail:
  return false;
   d68a8:	2000      	movs	r0, #0
   d68aa:	e049      	b.n	d6940 <_ZN7FatFile6removeEv+0xc0>
  if (m_firstCluster && !m_vol->freeChain(m_firstCluster)) {
    DBG_FAIL_MACRO;
    goto fail;
  }
  // Cache directory entry.
  dir = cacheDirEntry(FatCache::CACHE_FOR_WRITE);
   d68ac:	2101      	movs	r1, #1
   d68ae:	4620      	mov	r0, r4
   d68b0:	f000 fabc 	bl	d6e2c <_ZN7FatFile13cacheDirEntryEh>
  if (!dir) {
   d68b4:	4605      	mov	r5, r0
   d68b6:	2800      	cmp	r0, #0
   d68b8:	d0f6      	beq.n	d68a8 <_ZN7FatFile6removeEv+0x28>
    DBG_FAIL_MACRO;
    goto fail;
  }
  chksum = lfnChecksum(dir->name);
   d68ba:	f7ff fecf 	bl	d665c <_ZN7FatFile11lfnChecksumEPh>

  // Mark entry deleted.
  dir->name[0] = DIR_NAME_DELETED;
   d68be:	26e5      	movs	r6, #229	; 0xe5
   d68c0:	702e      	strb	r6, [r5, #0]

  // Set this file closed.
  m_attr = FILE_ATTR_CLOSED;
   d68c2:	2300      	movs	r3, #0
  dir = cacheDirEntry(FatCache::CACHE_FOR_WRITE);
  if (!dir) {
    DBG_FAIL_MACRO;
    goto fail;
  }
  chksum = lfnChecksum(dir->name);
   d68c4:	4607      	mov	r7, r0

  // Mark entry deleted.
  dir->name[0] = DIR_NAME_DELETED;

  // Set this file closed.
  m_attr = FILE_ATTR_CLOSED;
   d68c6:	7023      	strb	r3, [r4, #0]

  // Write entry to device.
  if (!m_vol->cacheSync()) {
   d68c8:	68a0      	ldr	r0, [r4, #8]
   d68ca:	f7ff feba 	bl	d6642 <_ZN9FatVolume9cacheSyncEv>
   d68ce:	2800      	cmp	r0, #0
   d68d0:	d0ea      	beq.n	d68a8 <_ZN7FatFile6removeEv+0x28>
    DBG_FAIL_MACRO;
    goto fail;
  }
  if (!isLFN()) {
   d68d2:	78e3      	ldrb	r3, [r4, #3]
   d68d4:	2b00      	cmp	r3, #0
   d68d6:	d033      	beq.n	d6940 <_ZN7FatFile6removeEv+0xc0>
    // Done, no LFN entries.
    return true;
  }
  if (!dirFile.openCluster(this)) {
   d68d8:	4621      	mov	r1, r4
   d68da:	a801      	add	r0, sp, #4
   d68dc:	f7ff fecd 	bl	d667a <_ZN7FatFile11openClusterEPS_>
   d68e0:	2800      	cmp	r0, #0
   d68e2:	d0e1      	beq.n	d68a8 <_ZN7FatFile6removeEv+0x28>
   d68e4:	2501      	movs	r5, #1
    DBG_FAIL_MACRO;
    goto fail;
  }
  for (ord = 1; ord <= m_lfnOrd; ord++) {
   d68e6:	78e3      	ldrb	r3, [r4, #3]
   d68e8:	42ab      	cmp	r3, r5
   d68ea:	d3dd      	bcc.n	d68a8 <_ZN7FatFile6removeEv+0x28>
    if (!dirFile.seekSet(32UL*(m_dirIndex - ord))) {
   d68ec:	88a1      	ldrh	r1, [r4, #4]
   d68ee:	1b49      	subs	r1, r1, r5
   d68f0:	0149      	lsls	r1, r1, #5
   d68f2:	a801      	add	r0, sp, #4
   d68f4:	f000 fbce 	bl	d7094 <_ZN7FatFile7seekSetEm>
   d68f8:	2800      	cmp	r0, #0
   d68fa:	d0d5      	beq.n	d68a8 <_ZN7FatFile6removeEv+0x28>
      DBG_FAIL_MACRO;
      goto fail;
    }
    ldir = reinterpret_cast<ldir_t*>(dirFile.readDirCache());
   d68fc:	2100      	movs	r1, #0
   d68fe:	a801      	add	r0, sp, #4
   d6900:	f000 fbab 	bl	d705a <_ZN7FatFile12readDirCacheEb>
    if (!ldir) {
   d6904:	2800      	cmp	r0, #0
   d6906:	d0cf      	beq.n	d68a8 <_ZN7FatFile6removeEv+0x28>
      DBG_FAIL_MACRO;
      goto fail;
    }
    if (ldir->attr != DIR_ATT_LONG_NAME ||
   d6908:	7ac3      	ldrb	r3, [r0, #11]
   d690a:	2b0f      	cmp	r3, #15
   d690c:	d1cc      	bne.n	d68a8 <_ZN7FatFile6removeEv+0x28>
        ord != (ldir->ord & 0X1F) ||
   d690e:	7802      	ldrb	r2, [r0, #0]
    ldir = reinterpret_cast<ldir_t*>(dirFile.readDirCache());
    if (!ldir) {
      DBG_FAIL_MACRO;
      goto fail;
    }
    if (ldir->attr != DIR_ATT_LONG_NAME ||
   d6910:	f002 031f 	and.w	r3, r2, #31
   d6914:	429d      	cmp	r5, r3
   d6916:	d1c7      	bne.n	d68a8 <_ZN7FatFile6removeEv+0x28>
        ord != (ldir->ord & 0X1F) ||
   d6918:	7b43      	ldrb	r3, [r0, #13]
   d691a:	42bb      	cmp	r3, r7
   d691c:	d1c4      	bne.n	d68a8 <_ZN7FatFile6removeEv+0x28>
        chksum != ldir->chksum) {
      DBG_FAIL_MACRO;
      goto fail;
    }
    last = ldir->ord & LDIR_ORD_LAST_LONG_ENTRY;
    ldir->ord = DIR_NAME_DELETED;
   d691e:	7006      	strb	r6, [r0, #0]
    m_vol->cacheDirty();
   d6920:	68a1      	ldr	r1, [r4, #8]
  cache_t* block() {
    return &m_block;
  }
  /** Set current block dirty. */
  void dirty() {
    m_status |= CACHE_STATUS_DIRTY;
   d6922:	f891 3024 	ldrb.w	r3, [r1, #36]	; 0x24
   d6926:	f043 0301 	orr.w	r3, r3, #1
   d692a:	f881 3024 	strb.w	r3, [r1, #36]	; 0x24
    if (last) {
   d692e:	0653      	lsls	r3, r2, #25
   d6930:	d503      	bpl.n	d693a <_ZN7FatFile6removeEv+0xba>
      if (!m_vol->cacheSync()) {
   d6932:	68a0      	ldr	r0, [r4, #8]
   d6934:	f7ff fe85 	bl	d6642 <_ZN9FatVolume9cacheSyncEv>
   d6938:	e002      	b.n	d6940 <_ZN7FatFile6removeEv+0xc0>
  }
  if (!dirFile.openCluster(this)) {
    DBG_FAIL_MACRO;
    goto fail;
  }
  for (ord = 1; ord <= m_lfnOrd; ord++) {
   d693a:	3501      	adds	r5, #1
   d693c:	b2ed      	uxtb	r5, r5
   d693e:	e7d2      	b.n	d68e6 <_ZN7FatFile6removeEv+0x66>
  // Fall into fail.
  DBG_FAIL_MACRO;

fail:
  return false;
}
   d6940:	b00b      	add	sp, #44	; 0x2c
   d6942:	bdf0      	pop	{r4, r5, r6, r7, pc}

000d6944 <_ZN7FatFile12lfnUniqueSfnEP7fname_t>:
//------------------------------------------------------------------------------
bool FatFile::lfnUniqueSfn(fname_t* fname) {
   d6944:	e92d 43f8 	stmdb	sp!, {r3, r4, r5, r6, r7, r8, r9, lr}
  const uint8_t FIRST_HASH_SEQ = 2;  // min value is 2
  uint8_t pos = fname->seqPos;;
   d6948:	f891 900c 	ldrb.w	r9, [r1, #12]

fail:
  return false;
}
//------------------------------------------------------------------------------
bool FatFile::lfnUniqueSfn(fname_t* fname) {
   d694c:	4606      	mov	r6, r0
   d694e:	460d      	mov	r5, r1
  const uint8_t FIRST_HASH_SEQ = 2;  // min value is 2
  uint8_t pos = fname->seqPos;;
   d6950:	2402      	movs	r4, #2
        uint8_t h = hex & 0XF;
        fname->sfn[i] = h < 10 ? h + '0' : h + 'A' - 10;
        hex >>= 4;
      }
    }
    fname->sfn[pos] = '~';
   d6952:	277e      	movs	r7, #126	; 0x7e
        goto fail;
      }
      if (dir->name[0] == DIR_NAME_FREE) {
        goto done;
      }
      if (DIR_IS_FILE_OR_SUBDIR(dir) && !memcmp(fname->sfn, dir->name, 11)) {
   d6954:	f101 080d 	add.w	r8, r1, #13
  for (uint8_t seq = 2; seq < 100; seq++) {
    if (seq < FIRST_HASH_SEQ) {
      fname->sfn[pos + 1] = '0' + seq;
    } else {
      DBG_PRINT_IF(seq > FIRST_HASH_SEQ);
      hex = Bernstein(seq + fname->len, fname->lfn, fname->len);
   d6958:	6869      	ldr	r1, [r5, #4]
   d695a:	68aa      	ldr	r2, [r5, #8]
   d695c:	1863      	adds	r3, r4, r1
   d695e:	b29b      	uxth	r3, r3
   d6960:	4411      	add	r1, r2
}
//------------------------------------------------------------------------------
// Daniel Bernstein University of Illinois at Chicago.
// Original had + instead of ^
static uint16_t Bernstein(uint16_t hash, const char *str, size_t len) {
  for (size_t i = 0; i < len; i++) {
   d6962:	4291      	cmp	r1, r2
   d6964:	d006      	beq.n	d6974 <_ZN7FatFile12lfnUniqueSfnEP7fname_t+0x30>
    // hash = hash * 33 ^ str[i];
    hash = ((hash << 5) + hash) ^ str[i];
   d6966:	f812 0b01 	ldrb.w	r0, [r2], #1
   d696a:	eb03 1343 	add.w	r3, r3, r3, lsl #5
   d696e:	4043      	eors	r3, r0
   d6970:	b29b      	uxth	r3, r3
   d6972:	e7f6      	b.n	d6962 <_ZN7FatFile12lfnUniqueSfnEP7fname_t+0x1e>
   d6974:	f1b9 0f03 	cmp.w	r9, #3
   d6978:	bf28      	it	cs
   d697a:	f04f 0903 	movcs.w	r9, #3
      hex = Bernstein(seq + fname->len, fname->lfn, fname->len);
      if (pos > 3) {
        // Make space in name for ~HHHH.
        pos = 3;
      }
      for (uint8_t i = pos + 4 ; i > pos; i--) {
   d697e:	f109 0204 	add.w	r2, r9, #4
   d6982:	b2d2      	uxtb	r2, r2
        uint8_t h = hex & 0XF;
   d6984:	f003 010f 	and.w	r1, r3, #15
        fname->sfn[i] = h < 10 ? h + '0' : h + 'A' - 10;
   d6988:	18a8      	adds	r0, r5, r2
      hex = Bernstein(seq + fname->len, fname->lfn, fname->len);
      if (pos > 3) {
        // Make space in name for ~HHHH.
        pos = 3;
      }
      for (uint8_t i = pos + 4 ; i > pos; i--) {
   d698a:	3a01      	subs	r2, #1
        uint8_t h = hex & 0XF;
        fname->sfn[i] = h < 10 ? h + '0' : h + 'A' - 10;
   d698c:	2909      	cmp	r1, #9
      hex = Bernstein(seq + fname->len, fname->lfn, fname->len);
      if (pos > 3) {
        // Make space in name for ~HHHH.
        pos = 3;
      }
      for (uint8_t i = pos + 4 ; i > pos; i--) {
   d698e:	b2d2      	uxtb	r2, r2
        uint8_t h = hex & 0XF;
        fname->sfn[i] = h < 10 ? h + '0' : h + 'A' - 10;
   d6990:	bf94      	ite	ls
   d6992:	3130      	addls	r1, #48	; 0x30
   d6994:	3137      	addhi	r1, #55	; 0x37
      hex = Bernstein(seq + fname->len, fname->lfn, fname->len);
      if (pos > 3) {
        // Make space in name for ~HHHH.
        pos = 3;
      }
      for (uint8_t i = pos + 4 ; i > pos; i--) {
   d6996:	4591      	cmp	r9, r2
        uint8_t h = hex & 0XF;
        fname->sfn[i] = h < 10 ? h + '0' : h + 'A' - 10;
   d6998:	7341      	strb	r1, [r0, #13]
        hex >>= 4;
   d699a:	ea4f 1313 	mov.w	r3, r3, lsr #4
      hex = Bernstein(seq + fname->len, fname->lfn, fname->len);
      if (pos > 3) {
        // Make space in name for ~HHHH.
        pos = 3;
      }
      for (uint8_t i = pos + 4 ; i > pos; i--) {
   d699e:	d3f1      	bcc.n	d6984 <_ZN7FatFile12lfnUniqueSfnEP7fname_t+0x40>
        uint8_t h = hex & 0XF;
        fname->sfn[i] = h < 10 ? h + '0' : h + 'A' - 10;
        hex >>= 4;
      }
    }
    fname->sfn[pos] = '~';
   d69a0:	eb05 0309 	add.w	r3, r5, r9
   * the value false is returned for failure.
   */
  static bool remove(FatFile* dirFile, const char* path);
  /** Set the file's current position to zero. */
  void rewind() {
    seekSet(0);
   d69a4:	2100      	movs	r1, #0
   d69a6:	735f      	strb	r7, [r3, #13]
   d69a8:	4630      	mov	r0, r6
   d69aa:	f000 fb73 	bl	d7094 <_ZN7FatFile7seekSetEm>
    rewind();
    while (1) {
      dir = readDirCache(true);
   d69ae:	2101      	movs	r1, #1
   d69b0:	4630      	mov	r0, r6
   d69b2:	f000 fb52 	bl	d705a <_ZN7FatFile12readDirCacheEb>
      if (!dir) {
   d69b6:	4601      	mov	r1, r0
   d69b8:	b928      	cbnz	r0, d69c6 <_ZN7FatFile12lfnUniqueSfnEP7fname_t+0x82>
        if (!getError()) {
   d69ba:	7870      	ldrb	r0, [r6, #1]
   d69bc:	fab0 f080 	clz	r0, r0
   d69c0:	0940      	lsrs	r0, r0, #5
   d69c2:	e8bd 83f8 	ldmia.w	sp!, {r3, r4, r5, r6, r7, r8, r9, pc}
          goto done;
        }
        DBG_FAIL_MACRO;
        goto fail;
      }
      if (dir->name[0] == DIR_NAME_FREE) {
   d69c6:	7803      	ldrb	r3, [r0, #0]
   d69c8:	b14b      	cbz	r3, d69de <_ZN7FatFile12lfnUniqueSfnEP7fname_t+0x9a>
        goto done;
      }
      if (DIR_IS_FILE_OR_SUBDIR(dir) && !memcmp(fname->sfn, dir->name, 11)) {
   d69ca:	7ac3      	ldrb	r3, [r0, #11]
   d69cc:	071b      	lsls	r3, r3, #28
   d69ce:	d4ee      	bmi.n	d69ae <_ZN7FatFile12lfnUniqueSfnEP7fname_t+0x6a>
   d69d0:	220b      	movs	r2, #11
   d69d2:	4640      	mov	r0, r8
   d69d4:	f004 fcec 	bl	db3b0 <memcmp>
   d69d8:	2800      	cmp	r0, #0
   d69da:	d1e8      	bne.n	d69ae <_ZN7FatFile12lfnUniqueSfnEP7fname_t+0x6a>
   d69dc:	e002      	b.n	d69e4 <_ZN7FatFile12lfnUniqueSfnEP7fname_t+0xa0>

fail:
  return false;

done:
  return true;
   d69de:	2001      	movs	r0, #1
   d69e0:	e8bd 83f8 	ldmia.w	sp!, {r3, r4, r5, r6, r7, r8, r9, pc}
   d69e4:	3401      	adds	r4, #1
   d69e6:	b2a4      	uxth	r4, r4
  uint16_t hex;

  DBG_HALT_IF(!(fname->flags & FNAME_FLAG_LOST_CHARS));
  DBG_HALT_IF(fname->sfn[pos] != '~' && fname->sfn[pos + 1] != '1');

  for (uint8_t seq = 2; seq < 100; seq++) {
   d69e8:	2c64      	cmp	r4, #100	; 0x64
   d69ea:	d1b5      	bne.n	d6958 <_ZN7FatFile12lfnUniqueSfnEP7fname_t+0x14>
fail:
  return false;

done:
  return true;
}
   d69ec:	e8bd 83f8 	ldmia.w	sp!, {r3, r4, r5, r6, r7, r8, r9, pc}

000d69f0 <_ZN7FatFile4openEPS_P7fname_ti>:
    fname->sfn[fname->seqPos + 1] = '1';
  }
  return true;
}
//------------------------------------------------------------------------------
bool FatFile::open(FatFile* dirFile, fname_t* fname, oflag_t oflag) {
   d69f0:	e92d 4ff0 	stmdb	sp!, {r4, r5, r6, r7, r8, r9, sl, fp, lr}
   d69f4:	469b      	mov	fp, r3
  uint16_t curIndex;
  dir_t* dir;
  ldir_t* ldir;
  size_t len = fname->len;

  if (!dirFile->isDir() || isOpen()) {
   d69f6:	780b      	ldrb	r3, [r1, #0]
    fname->sfn[fname->seqPos + 1] = '1';
  }
  return true;
}
//------------------------------------------------------------------------------
bool FatFile::open(FatFile* dirFile, fname_t* fname, oflag_t oflag) {
   d69f8:	b089      	sub	sp, #36	; 0x24
  uint16_t curIndex;
  dir_t* dir;
  ldir_t* ldir;
  size_t len = fname->len;

  if (!dirFile->isDir() || isOpen()) {
   d69fa:	f013 0f70 	tst.w	r3, #112	; 0x70
    fname->sfn[fname->seqPos + 1] = '1';
  }
  return true;
}
//------------------------------------------------------------------------------
bool FatFile::open(FatFile* dirFile, fname_t* fname, oflag_t oflag) {
   d69fe:	9005      	str	r0, [sp, #20]
   d6a00:	460e      	mov	r6, r1
   d6a02:	4691      	mov	r9, r2
  uint16_t curIndex;
  dir_t* dir;
  ldir_t* ldir;
  size_t len = fname->len;

  if (!dirFile->isDir() || isOpen()) {
   d6a04:	d101      	bne.n	d6a0a <_ZN7FatFile4openEPS_P7fname_ti+0x1a>
    goto fail;
  }
  return true;

fail:
  return false;
   d6a06:	2000      	movs	r0, #0
   d6a08:	e1a0      	b.n	d6d4c <_ZN7FatFile4openEPS_P7fname_ti+0x35c>
  uint16_t curIndex;
  dir_t* dir;
  ldir_t* ldir;
  size_t len = fname->len;

  if (!dirFile->isDir() || isOpen()) {
   d6a0a:	9b05      	ldr	r3, [sp, #20]
   d6a0c:	781b      	ldrb	r3, [r3, #0]
   d6a0e:	2b00      	cmp	r3, #0
   d6a10:	d1f9      	bne.n	d6a06 <_ZN7FatFile4openEPS_P7fname_ti+0x16>
  uint8_t chksum = 0;
  uint16_t freeIndex = 0;
  uint16_t curIndex;
  dir_t* dir;
  ldir_t* ldir;
  size_t len = fname->len;
   d6a12:	6853      	ldr	r3, [r2, #4]
   d6a14:	9302      	str	r3, [sp, #8]
  if (!dirFile->isDir() || isOpen()) {
    DBG_FAIL_MACRO;
    goto fail;
  }
  // Number of directory entries needed.
  freeNeed = fname->flags & FNAME_FLAG_NEED_LFN ? 1 + (len + 12)/13 : 1;
   d6a16:	7813      	ldrb	r3, [r2, #0]
   d6a18:	079b      	lsls	r3, r3, #30
   d6a1a:	f000 818d 	beq.w	d6d38 <_ZN7FatFile4openEPS_P7fname_ti+0x348>
   d6a1e:	9b02      	ldr	r3, [sp, #8]
   d6a20:	270d      	movs	r7, #13
   d6a22:	330c      	adds	r3, #12
   d6a24:	fbb3 f7f7 	udiv	r7, r3, r7
   d6a28:	3701      	adds	r7, #1
   d6a2a:	b2ff      	uxtb	r7, r7
   d6a2c:	2100      	movs	r1, #0
   d6a2e:	4630      	mov	r0, r6
   d6a30:	f000 fb30 	bl	d7094 <_ZN7FatFile7seekSetEm>
  uint8_t lfnOrd = 0;
  uint8_t freeNeed;
  uint8_t freeFound = 0;
  uint8_t ord = 0;
  uint8_t chksum = 0;
  uint16_t freeIndex = 0;
   d6a34:	f04f 0800 	mov.w	r8, #0
          goto found;
        }
        DBG_FAIL_MACRO;
        goto fail;
      }
      if (!memcmp(dir->name, fname->sfn, sizeof(fname->sfn))) {
   d6a38:	f109 020d 	add.w	r2, r9, #13
  bool fnameFound = false;
  uint8_t lfnOrd = 0;
  uint8_t freeNeed;
  uint8_t freeFound = 0;
  uint8_t ord = 0;
  uint8_t chksum = 0;
   d6a3c:	f8cd 800c 	str.w	r8, [sp, #12]
bool FatFile::open(FatFile* dirFile, fname_t* fname, oflag_t oflag) {
  bool fnameFound = false;
  uint8_t lfnOrd = 0;
  uint8_t freeNeed;
  uint8_t freeFound = 0;
  uint8_t ord = 0;
   d6a40:	4643      	mov	r3, r8
//------------------------------------------------------------------------------
bool FatFile::open(FatFile* dirFile, fname_t* fname, oflag_t oflag) {
  bool fnameFound = false;
  uint8_t lfnOrd = 0;
  uint8_t freeNeed;
  uint8_t freeFound = 0;
   d6a42:	4644      	mov	r4, r8
  return true;
}
//------------------------------------------------------------------------------
bool FatFile::open(FatFile* dirFile, fname_t* fname, oflag_t oflag) {
  bool fnameFound = false;
  uint8_t lfnOrd = 0;
   d6a44:	4645      	mov	r5, r8
  }
  return true;
}
//------------------------------------------------------------------------------
bool FatFile::open(FatFile* dirFile, fname_t* fname, oflag_t oflag) {
  bool fnameFound = false;
   d6a46:	f8cd 8010 	str.w	r8, [sp, #16]
          goto found;
        }
        DBG_FAIL_MACRO;
        goto fail;
      }
      if (!memcmp(dir->name, fname->sfn, sizeof(fname->sfn))) {
   d6a4a:	9206      	str	r2, [sp, #24]
  // Number of directory entries needed.
  freeNeed = fname->flags & FNAME_FLAG_NEED_LFN ? 1 + (len + 12)/13 : 1;

  dirFile->rewind();
  while (1) {
    curIndex = dirFile->m_curPosition/32;
   d6a4c:	6972      	ldr	r2, [r6, #20]
   d6a4e:	9307      	str	r3, [sp, #28]
    dir = dirFile->readDirCache(true);
   d6a50:	2101      	movs	r1, #1
   d6a52:	4630      	mov	r0, r6
  // Number of directory entries needed.
  freeNeed = fname->flags & FNAME_FLAG_NEED_LFN ? 1 + (len + 12)/13 : 1;

  dirFile->rewind();
  while (1) {
    curIndex = dirFile->m_curPosition/32;
   d6a54:	f3c2 1a4f 	ubfx	sl, r2, #5, #16
    dir = dirFile->readDirCache(true);
   d6a58:	f000 faff 	bl	d705a <_ZN7FatFile12readDirCacheEb>
    if (!dir) {
   d6a5c:	9b07      	ldr	r3, [sp, #28]
   d6a5e:	b920      	cbnz	r0, d6a6a <_ZN7FatFile4openEPS_P7fname_ti+0x7a>
      if (dirFile->getError()) {
   d6a60:	7873      	ldrb	r3, [r6, #1]
   d6a62:	2b00      	cmp	r3, #0
   d6a64:	f000 8090 	beq.w	d6b88 <_ZN7FatFile4openEPS_P7fname_ti+0x198>
   d6a68:	e7cd      	b.n	d6a06 <_ZN7FatFile4openEPS_P7fname_ti+0x16>
        goto fail;
      }
      // At EOF
      goto create;
    }
    if (dir->name[0] == DIR_NAME_DELETED || dir->name[0] == DIR_NAME_FREE) {
   d6a6a:	7802      	ldrb	r2, [r0, #0]
   d6a6c:	2ae5      	cmp	r2, #229	; 0xe5
   d6a6e:	d000      	beq.n	d6a72 <_ZN7FatFile4openEPS_P7fname_ti+0x82>
   d6a70:	b942      	cbnz	r2, d6a84 <_ZN7FatFile4openEPS_P7fname_ti+0x94>
  // Number of directory entries needed.
  freeNeed = fname->flags & FNAME_FLAG_NEED_LFN ? 1 + (len + 12)/13 : 1;

  dirFile->rewind();
  while (1) {
    curIndex = dirFile->m_curPosition/32;
   d6a72:	2c00      	cmp	r4, #0
   d6a74:	bf08      	it	eq
   d6a76:	46d0      	moveq	r8, sl
    }
    if (dir->name[0] == DIR_NAME_DELETED || dir->name[0] == DIR_NAME_FREE) {
      if (freeFound == 0) {
        freeIndex = curIndex;
      }
      if (freeFound < freeNeed) {
   d6a78:	42bc      	cmp	r4, r7
        freeFound++;
   d6a7a:	bf3c      	itt	cc
   d6a7c:	3401      	addcc	r4, #1
   d6a7e:	b2e4      	uxtbcc	r4, r4
      }
      if (dir->name[0] == DIR_NAME_FREE) {
   d6a80:	b922      	cbnz	r2, d6a8c <_ZN7FatFile4openEPS_P7fname_ti+0x9c>
   d6a82:	e081      	b.n	d6b88 <_ZN7FatFile4openEPS_P7fname_ti+0x198>
        goto create;
      }
    } else {
      if (freeFound < freeNeed) {
        freeFound = 0;
   d6a84:	42bc      	cmp	r4, r7
   d6a86:	bf38      	it	cc
   d6a88:	2400      	movcc	r4, #0
   d6a8a:	e003      	b.n	d6a94 <_ZN7FatFile4openEPS_P7fname_ti+0xa4>
      }
    }
    // skip empty slot or '.' or '..'
    if (dir->name[0] == DIR_NAME_DELETED || dir->name[0] == '.') {
   d6a8c:	2ae5      	cmp	r2, #229	; 0xe5
   d6a8e:	d101      	bne.n	d6a94 <_ZN7FatFile4openEPS_P7fname_ti+0xa4>
          goto found;
        }
        fnameFound = true;
      }
    } else {
      lfnOrd = 0;
   d6a90:	2500      	movs	r5, #0
   d6a92:	e7db      	b.n	d6a4c <_ZN7FatFile4openEPS_P7fname_ti+0x5c>
      if (freeFound < freeNeed) {
        freeFound = 0;
      }
    }
    // skip empty slot or '.' or '..'
    if (dir->name[0] == DIR_NAME_DELETED || dir->name[0] == '.') {
   d6a94:	2a2e      	cmp	r2, #46	; 0x2e
   d6a96:	d0fb      	beq.n	d6a90 <_ZN7FatFile4openEPS_P7fname_ti+0xa0>
   d6a98:	7ac1      	ldrb	r1, [r0, #11]
      lfnOrd = 0;
    } else if (DIR_IS_LONG_NAME(dir)) {
   d6a9a:	290f      	cmp	r1, #15
   d6a9c:	d152      	bne.n	d6b44 <_ZN7FatFile4openEPS_P7fname_ti+0x154>
      ldir_t *ldir = reinterpret_cast<ldir_t*>(dir);
      if (!lfnOrd) {
   d6a9e:	b93d      	cbnz	r5, d6ab0 <_ZN7FatFile4openEPS_P7fname_ti+0xc0>
        if ((ldir->ord & LDIR_ORD_LAST_LONG_ENTRY) == 0) {
   d6aa0:	0651      	lsls	r1, r2, #25
   d6aa2:	d5d3      	bpl.n	d6a4c <_ZN7FatFile4openEPS_P7fname_ti+0x5c>
          continue;
        }
        lfnOrd = ord = ldir->ord & 0X1F;
        chksum = ldir->chksum;
   d6aa4:	7b43      	ldrb	r3, [r0, #13]
   d6aa6:	9303      	str	r3, [sp, #12]
      ldir_t *ldir = reinterpret_cast<ldir_t*>(dir);
      if (!lfnOrd) {
        if ((ldir->ord & LDIR_ORD_LAST_LONG_ENTRY) == 0) {
          continue;
        }
        lfnOrd = ord = ldir->ord & 0X1F;
   d6aa8:	f002 051f 	and.w	r5, r2, #31
   d6aac:	462b      	mov	r3, r5
   d6aae:	e007      	b.n	d6ac0 <_ZN7FatFile4openEPS_P7fname_ti+0xd0>
        chksum = ldir->chksum;
      } else if (ldir->ord != --ord || chksum != ldir->chksum) {
   d6ab0:	3b01      	subs	r3, #1
   d6ab2:	b2db      	uxtb	r3, r3
   d6ab4:	429a      	cmp	r2, r3
   d6ab6:	d1eb      	bne.n	d6a90 <_ZN7FatFile4openEPS_P7fname_ti+0xa0>
   d6ab8:	7b42      	ldrb	r2, [r0, #13]
   d6aba:	9903      	ldr	r1, [sp, #12]
   d6abc:	4291      	cmp	r1, r2
   d6abe:	d1e7      	bne.n	d6a90 <_ZN7FatFile4openEPS_P7fname_ti+0xa0>
        lfnOrd = 0;
        continue;
      }
      size_t k = 13*(ord - 1);
   d6ac0:	1e5a      	subs	r2, r3, #1
   d6ac2:	f04f 0c0d 	mov.w	ip, #13
   d6ac6:	fb0c fc02 	mul.w	ip, ip, r2
      if (k >= len) {
   d6aca:	9a02      	ldr	r2, [sp, #8]
   d6acc:	4562      	cmp	r2, ip
   d6ace:	d9df      	bls.n	d6a90 <_ZN7FatFile4openEPS_P7fname_ti+0xa0>
   d6ad0:	f04f 0e00 	mov.w	lr, #0
 * \param[in] ldir Pointer to long file name directory entry.
 * \param[in] i Index of character.
 * \return The 16-bit character.
 */
static uint16_t lfnGetChar(ldir_t *ldir, uint8_t i) {
  if (i < LDIR_NAME1_DIM) {
   d6ad4:	f1be 0f04 	cmp.w	lr, #4
   d6ad8:	fa5f f28e 	uxtb.w	r2, lr
   d6adc:	d804      	bhi.n	d6ae8 <_ZN7FatFile4openEPS_P7fname_ti+0xf8>
    return ldir->name1[i];
   d6ade:	eb00 024e 	add.w	r2, r0, lr, lsl #1
   d6ae2:	f8b2 2001 	ldrh.w	r2, [r2, #1]
   d6ae6:	e00c      	b.n	d6b02 <_ZN7FatFile4openEPS_P7fname_ti+0x112>
  } else if (i < (LDIR_NAME1_DIM + LDIR_NAME2_DIM)) {
   d6ae8:	2a0a      	cmp	r2, #10
    return ldir->name2[i - LDIR_NAME1_DIM];
   d6aea:	bf95      	itete	ls
   d6aec:	f10e 32ff 	addls.w	r2, lr, #4294967295
  } else if (i < (LDIR_NAME1_DIM + LDIR_NAME2_DIM + LDIR_NAME2_DIM)) {
    return ldir->name3[i - LDIR_NAME1_DIM - LDIR_NAME2_DIM];
   d6af0:	f10e 0201 	addhi.w	r2, lr, #1
 */
static uint16_t lfnGetChar(ldir_t *ldir, uint8_t i) {
  if (i < LDIR_NAME1_DIM) {
    return ldir->name1[i];
  } else if (i < (LDIR_NAME1_DIM + LDIR_NAME2_DIM)) {
    return ldir->name2[i - LDIR_NAME1_DIM];
   d6af4:	eb00 0242 	addls.w	r2, r0, r2, lsl #1
  } else if (i < (LDIR_NAME1_DIM + LDIR_NAME2_DIM + LDIR_NAME2_DIM)) {
    return ldir->name3[i - LDIR_NAME1_DIM - LDIR_NAME2_DIM];
   d6af8:	eb00 0242 	addhi.w	r2, r0, r2, lsl #1
 */
static uint16_t lfnGetChar(ldir_t *ldir, uint8_t i) {
  if (i < LDIR_NAME1_DIM) {
    return ldir->name1[i];
  } else if (i < (LDIR_NAME1_DIM + LDIR_NAME2_DIM)) {
    return ldir->name2[i - LDIR_NAME1_DIM];
   d6afc:	bf94      	ite	ls
   d6afe:	88d2      	ldrhls	r2, [r2, #6]
  } else if (i < (LDIR_NAME1_DIM + LDIR_NAME2_DIM + LDIR_NAME2_DIM)) {
    return ldir->name3[i - LDIR_NAME1_DIM - LDIR_NAME2_DIM];
   d6b00:	8892      	ldrhhi	r2, [r2, #4]
        lfnOrd = 0;
        continue;
      }
      for (uint8_t i = 0; i < 13; i++) {
        uint16_t u = lfnGetChar(ldir, i);
        if (k == len) {
   d6b02:	9902      	ldr	r1, [sp, #8]
   d6b04:	4561      	cmp	r1, ip
   d6b06:	d103      	bne.n	d6b10 <_ZN7FatFile4openEPS_P7fname_ti+0x120>
          if (u != 0) {
            // Not found.
            lfnOrd = 0;
   d6b08:	2a00      	cmp	r2, #0
   d6b0a:	bf18      	it	ne
   d6b0c:	2500      	movne	r5, #0
   d6b0e:	e79d      	b.n	d6a4c <_ZN7FatFile4openEPS_P7fname_ti+0x5c>
          }
          break;
        }
        if (u > 255 || lfnToLower(u) != lfnToLower(fname->lfn[k++])) {
   d6b10:	2aff      	cmp	r2, #255	; 0xff
   d6b12:	d8bd      	bhi.n	d6a90 <_ZN7FatFile4openEPS_P7fname_ti+0xa0>
   d6b14:	b2d2      	uxtb	r2, r2
}
#if USE_LONG_FILE_NAMES
//------------------------------------------------------------------------------
// Saves about 90 bytes of flash on 328 over tolower().
inline char lfnToLower(char c) {
  return 'A' <= c && c <= 'Z' ? c + 'a' - 'A' : c;
   d6b16:	f1a2 0141 	sub.w	r1, r2, #65	; 0x41
   d6b1a:	2919      	cmp	r1, #25
            // Not found.
            lfnOrd = 0;
          }
          break;
        }
        if (u > 255 || lfnToLower(u) != lfnToLower(fname->lfn[k++])) {
   d6b1c:	f8d9 1008 	ldr.w	r1, [r9, #8]
   d6b20:	f811 100c 	ldrb.w	r1, [r1, ip]
}
#if USE_LONG_FILE_NAMES
//------------------------------------------------------------------------------
// Saves about 90 bytes of flash on 328 over tolower().
inline char lfnToLower(char c) {
  return 'A' <= c && c <= 'Z' ? c + 'a' - 'A' : c;
   d6b24:	bf98      	it	ls
   d6b26:	3220      	addls	r2, #32
            // Not found.
            lfnOrd = 0;
          }
          break;
        }
        if (u > 255 || lfnToLower(u) != lfnToLower(fname->lfn[k++])) {
   d6b28:	f10c 0a01 	add.w	sl, ip, #1
}
#if USE_LONG_FILE_NAMES
//------------------------------------------------------------------------------
// Saves about 90 bytes of flash on 328 over tolower().
inline char lfnToLower(char c) {
  return 'A' <= c && c <= 'Z' ? c + 'a' - 'A' : c;
   d6b2c:	f1a1 0c41 	sub.w	ip, r1, #65	; 0x41
   d6b30:	bf98      	it	ls
   d6b32:	b2d2      	uxtbls	r2, r2
   d6b34:	f1bc 0f19 	cmp.w	ip, #25
   d6b38:	bf9c      	itt	ls
   d6b3a:	3120      	addls	r1, #32
   d6b3c:	b2c9      	uxtbls	r1, r1
            // Not found.
            lfnOrd = 0;
          }
          break;
        }
        if (u > 255 || lfnToLower(u) != lfnToLower(fname->lfn[k++])) {
   d6b3e:	4291      	cmp	r1, r2
   d6b40:	d1a6      	bne.n	d6a90 <_ZN7FatFile4openEPS_P7fname_ti+0xa0>
   d6b42:	e0fb      	b.n	d6d3c <_ZN7FatFile4openEPS_P7fname_ti+0x34c>
          // Not found.
          lfnOrd = 0;
          break;
        }
      }
    } else if (DIR_IS_FILE_OR_SUBDIR(dir)) {
   d6b44:	0709      	lsls	r1, r1, #28
   d6b46:	d4a3      	bmi.n	d6a90 <_ZN7FatFile4openEPS_P7fname_ti+0xa0>
      if (lfnOrd) {
   d6b48:	b14d      	cbz	r5, d6b5e <_ZN7FatFile4openEPS_P7fname_ti+0x16e>
        if (1 == ord && lfnChecksum(dir->name) == chksum) {
   d6b4a:	2b01      	cmp	r3, #1
   d6b4c:	f47f af5b 	bne.w	d6a06 <_ZN7FatFile4openEPS_P7fname_ti+0x16>
   d6b50:	f7ff fd84 	bl	d665c <_ZN7FatFile11lfnChecksumEPh>
   d6b54:	9b03      	ldr	r3, [sp, #12]
   d6b56:	4283      	cmp	r3, r0
   d6b58:	f47f af55 	bne.w	d6a06 <_ZN7FatFile4openEPS_P7fname_ti+0x16>
   d6b5c:	e00f      	b.n	d6b7e <_ZN7FatFile4openEPS_P7fname_ti+0x18e>
          goto found;
        }
        DBG_FAIL_MACRO;
        goto fail;
      }
      if (!memcmp(dir->name, fname->sfn, sizeof(fname->sfn))) {
   d6b5e:	220b      	movs	r2, #11
   d6b60:	9906      	ldr	r1, [sp, #24]
   d6b62:	9307      	str	r3, [sp, #28]
   d6b64:	f004 fc24 	bl	db3b0 <memcmp>
   d6b68:	9b07      	ldr	r3, [sp, #28]
   d6b6a:	2800      	cmp	r0, #0
   d6b6c:	f47f af6e 	bne.w	d6a4c <_ZN7FatFile4openEPS_P7fname_ti+0x5c>
        if (!(fname->flags & FNAME_FLAG_LOST_CHARS)) {
   d6b70:	f899 2000 	ldrb.w	r2, [r9]
   d6b74:	07d2      	lsls	r2, r2, #31
   d6b76:	d502      	bpl.n	d6b7e <_ZN7FatFile4openEPS_P7fname_ti+0x18e>
          goto found;
        }
        fnameFound = true;
   d6b78:	2201      	movs	r2, #1
   d6b7a:	9204      	str	r2, [sp, #16]
   d6b7c:	e766      	b.n	d6a4c <_ZN7FatFile4openEPS_P7fname_ti+0x5c>
    }
  }

found:
  // Don't open if create only.
  if (oflag & O_EXCL) {
   d6b7e:	f41b 6f00 	tst.w	fp, #2048	; 0x800
   d6b82:	f000 80d1 	beq.w	d6d28 <_ZN7FatFile4openEPS_P7fname_ti+0x338>
   d6b86:	e73e      	b.n	d6a06 <_ZN7FatFile4openEPS_P7fname_ti+0x16>
  }
  goto open;

create:
  // don't create unless O_CREAT and write mode.
  if (!(oflag & O_CREAT) || !isWriteMode(oflag)) {
   d6b88:	f41b 7f00 	tst.w	fp, #512	; 0x200
   d6b8c:	f43f af3b 	beq.w	d6a06 <_ZN7FatFile4openEPS_P7fname_ti+0x16>
   d6b90:	f00b 0303 	and.w	r3, fp, #3
   d6b94:	3b01      	subs	r3, #1
   d6b96:	2b01      	cmp	r3, #1
   d6b98:	f63f af35 	bhi.w	d6a06 <_ZN7FatFile4openEPS_P7fname_ti+0x16>
    DBG_FAIL_MACRO;
    goto fail;
  }
  // If at EOF start in next cluster.
  if (freeFound == 0) {
   d6b9c:	2c00      	cmp	r4, #0
   d6b9e:	bf08      	it	eq
   d6ba0:	46d0      	moveq	r8, sl
    freeIndex = curIndex;
  }

  while (freeFound < freeNeed) {
   d6ba2:	42bc      	cmp	r4, r7
   d6ba4:	d302      	bcc.n	d6bac <_ZN7FatFile4openEPS_P7fname_ti+0x1bc>
    if (dirFile->m_vol->blocksPerCluster() > 1) {
      break;
    }
    freeFound += 16;
  }
  if (fnameFound) {
   d6ba6:	9b04      	ldr	r3, [sp, #16]
   d6ba8:	b9cb      	cbnz	r3, d6bde <_ZN7FatFile4openEPS_P7fname_ti+0x1ee>
   d6baa:	e01f      	b.n	d6bec <_ZN7FatFile4openEPS_P7fname_ti+0x1fc>
  if (freeFound == 0) {
    freeIndex = curIndex;
  }

  while (freeFound < freeNeed) {
    dir = dirFile->readDirCache();
   d6bac:	2100      	movs	r1, #0
   d6bae:	4630      	mov	r0, r6
   d6bb0:	f000 fa53 	bl	d705a <_ZN7FatFile12readDirCacheEb>
    if (!dir) {
   d6bb4:	b910      	cbnz	r0, d6bbc <_ZN7FatFile4openEPS_P7fname_ti+0x1cc>
      if (dirFile->getError()) {
   d6bb6:	7873      	ldrb	r3, [r6, #1]
   d6bb8:	b15b      	cbz	r3, d6bd2 <_ZN7FatFile4openEPS_P7fname_ti+0x1e2>
   d6bba:	e724      	b.n	d6a06 <_ZN7FatFile4openEPS_P7fname_ti+0x16>
        goto fail;
      }
      // EOF if no error.
      break;
    }
    freeFound++;
   d6bbc:	3401      	adds	r4, #1
   d6bbe:	b2e4      	uxtb	r4, r4
  // If at EOF start in next cluster.
  if (freeFound == 0) {
    freeIndex = curIndex;
  }

  while (freeFound < freeNeed) {
   d6bc0:	e7ef      	b.n	d6ba2 <_ZN7FatFile4openEPS_P7fname_ti+0x1b2>
   d6bc2:	68b3      	ldr	r3, [r6, #8]
    if (!dirFile->addDirCluster()) {
      DBG_FAIL_MACRO;
      goto fail;
    }
    // Done if more than one block per cluster.  Max freeNeed is 21.
    if (dirFile->m_vol->blocksPerCluster() > 1) {
   d6bc4:	791b      	ldrb	r3, [r3, #4]
   d6bc6:	2b01      	cmp	r3, #1
   d6bc8:	d8ed      	bhi.n	d6ba6 <_ZN7FatFile4openEPS_P7fname_ti+0x1b6>
      break;
    }
    freeFound += 16;
   d6bca:	3410      	adds	r4, #16
   d6bcc:	b2e4      	uxtb	r4, r4
      // EOF if no error.
      break;
    }
    freeFound++;
  }
  while (freeFound < freeNeed) {
   d6bce:	42a7      	cmp	r7, r4
   d6bd0:	d9e9      	bls.n	d6ba6 <_ZN7FatFile4openEPS_P7fname_ti+0x1b6>
    // Will fail if FAT16 root.
    if (!dirFile->addDirCluster()) {
   d6bd2:	4630      	mov	r0, r6
   d6bd4:	f000 f8ea 	bl	d6dac <_ZN7FatFile13addDirClusterEv>
   d6bd8:	2800      	cmp	r0, #0
   d6bda:	d1f2      	bne.n	d6bc2 <_ZN7FatFile4openEPS_P7fname_ti+0x1d2>
   d6bdc:	e713      	b.n	d6a06 <_ZN7FatFile4openEPS_P7fname_ti+0x16>
      break;
    }
    freeFound += 16;
  }
  if (fnameFound) {
    if (!dirFile->lfnUniqueSfn(fname)) {
   d6bde:	4649      	mov	r1, r9
   d6be0:	4630      	mov	r0, r6
   d6be2:	f7ff feaf 	bl	d6944 <_ZN7FatFile12lfnUniqueSfnEP7fname_t>
   d6be6:	2800      	cmp	r0, #0
   d6be8:	f43f af0d 	beq.w	d6a06 <_ZN7FatFile4openEPS_P7fname_ti+0x16>
      goto fail;
    }
  }
  if (!dirFile->seekSet(32UL*freeIndex)) {
   d6bec:	ea4f 1148 	mov.w	r1, r8, lsl #5
   d6bf0:	4630      	mov	r0, r6
   d6bf2:	f000 fa4f 	bl	d7094 <_ZN7FatFile7seekSetEm>
   d6bf6:	2800      	cmp	r0, #0
   d6bf8:	f43f af05 	beq.w	d6a06 <_ZN7FatFile4openEPS_P7fname_ti+0x16>
    DBG_FAIL_MACRO;
    goto fail;
  }
  lfnOrd = freeNeed - 1;
   d6bfc:	1e7d      	subs	r5, r7, #1
   d6bfe:	b2ed      	uxtb	r5, r5
  for (uint8_t ord = lfnOrd ; ord ; ord--) {
   d6c00:	462c      	mov	r4, r5
    ldir = reinterpret_cast<ldir_t*>(dirFile->readDirCache());
   d6c02:	f04f 0a00 	mov.w	sl, #0
      DBG_FAIL_MACRO;
      goto fail;
    }
    dirFile->m_vol->cacheDirty();
    ldir->ord = ord == lfnOrd ? LDIR_ORD_LAST_LONG_ENTRY | ord : ord;
    ldir->attr = DIR_ATT_LONG_NAME;
   d6c06:	f04f 080f 	mov.w	r8, #15
   d6c0a:	e041      	b.n	d6c90 <_ZN7FatFile4openEPS_P7fname_ti+0x2a0>
    DBG_FAIL_MACRO;
    goto fail;
  }
  lfnOrd = freeNeed - 1;
  for (uint8_t ord = lfnOrd ; ord ; ord--) {
    ldir = reinterpret_cast<ldir_t*>(dirFile->readDirCache());
   d6c0c:	2100      	movs	r1, #0
   d6c0e:	4630      	mov	r0, r6
   d6c10:	f000 fa23 	bl	d705a <_ZN7FatFile12readDirCacheEb>
    if (!ldir) {
   d6c14:	4607      	mov	r7, r0
   d6c16:	2800      	cmp	r0, #0
   d6c18:	f43f aef5 	beq.w	d6a06 <_ZN7FatFile4openEPS_P7fname_ti+0x16>
      DBG_FAIL_MACRO;
      goto fail;
    }
    dirFile->m_vol->cacheDirty();
   d6c1c:	68b2      	ldr	r2, [r6, #8]
   d6c1e:	f892 3024 	ldrb.w	r3, [r2, #36]	; 0x24
    ldir->ord = ord == lfnOrd ? LDIR_ORD_LAST_LONG_ENTRY | ord : ord;
   d6c22:	42ac      	cmp	r4, r5
   d6c24:	f043 0301 	orr.w	r3, r3, #1
   d6c28:	f882 3024 	strb.w	r3, [r2, #36]	; 0x24
   d6c2c:	bf0c      	ite	eq
   d6c2e:	f044 0240 	orreq.w	r2, r4, #64	; 0x40
   d6c32:	4622      	movne	r2, r4
   d6c34:	7002      	strb	r2, [r0, #0]
    ldir->attr = DIR_ATT_LONG_NAME;
   d6c36:	f880 800b 	strb.w	r8, [r0, #11]
    ldir->type = 0;
   d6c3a:	f880 a00c 	strb.w	sl, [r0, #12]
    ldir->chksum = lfnChecksum(fname->sfn);
   d6c3e:	f109 000d 	add.w	r0, r9, #13
    if (!ldir) {
      DBG_FAIL_MACRO;
      goto fail;
    }
    dirFile->m_vol->cacheDirty();
    ldir->ord = ord == lfnOrd ? LDIR_ORD_LAST_LONG_ENTRY | ord : ord;
   d6c42:	9203      	str	r2, [sp, #12]
    ldir->attr = DIR_ATT_LONG_NAME;
    ldir->type = 0;
    ldir->chksum = lfnChecksum(fname->sfn);
   d6c44:	f7ff fd0a 	bl	d665c <_ZN7FatFile11lfnChecksumEPh>
    ldir->name3[i - LDIR_NAME1_DIM - LDIR_NAME2_DIM] = c;
  }
}
//------------------------------------------------------------------------------
static void lfnPutName(ldir_t *ldir, const char* name, size_t n) {
  size_t k = 13*((ldir->ord & 0X1F) - 1);
   d6c48:	9a03      	ldr	r2, [sp, #12]
    }
    dirFile->m_vol->cacheDirty();
    ldir->ord = ord == lfnOrd ? LDIR_ORD_LAST_LONG_ENTRY | ord : ord;
    ldir->attr = DIR_ATT_LONG_NAME;
    ldir->type = 0;
    ldir->chksum = lfnChecksum(fname->sfn);
   d6c4a:	7378      	strb	r0, [r7, #13]
    ldir->mustBeZero = 0;
   d6c4c:	f887 a01a 	strb.w	sl, [r7, #26]
   d6c50:	f887 a01b 	strb.w	sl, [r7, #27]
    ldir->name3[i - LDIR_NAME1_DIM - LDIR_NAME2_DIM] = c;
  }
}
//------------------------------------------------------------------------------
static void lfnPutName(ldir_t *ldir, const char* name, size_t n) {
  size_t k = 13*((ldir->ord & 0X1F) - 1);
   d6c54:	f002 021f 	and.w	r2, r2, #31
   d6c58:	230d      	movs	r3, #13
   d6c5a:	3a01      	subs	r2, #1
    ldir->ord = ord == lfnOrd ? LDIR_ORD_LAST_LONG_ENTRY | ord : ord;
    ldir->attr = DIR_ATT_LONG_NAME;
    ldir->type = 0;
    ldir->chksum = lfnChecksum(fname->sfn);
    ldir->mustBeZero = 0;
    lfnPutName(ldir, fname->lfn, len);
   d6c5c:	f8d9 e008 	ldr.w	lr, [r9, #8]
    ldir->name3[i - LDIR_NAME1_DIM - LDIR_NAME2_DIM] = c;
  }
}
//------------------------------------------------------------------------------
static void lfnPutName(ldir_t *ldir, const char* name, size_t n) {
  size_t k = 13*((ldir->ord & 0X1F) - 1);
   d6c60:	435a      	muls	r2, r3
   d6c62:	2300      	movs	r3, #0
  for (uint8_t i = 0; i < 13; i++, k++) {
    uint16_t c = k < n ? name[k] : k == n ? 0 : 0XFFFF;
   d6c64:	9902      	ldr	r1, [sp, #8]
   d6c66:	4291      	cmp	r1, r2
   d6c68:	d915      	bls.n	d6c96 <_ZN7FatFile4openEPS_P7fname_ti+0x2a6>
   d6c6a:	f81e 1002 	ldrb.w	r1, [lr, r2]
 * \param[in] ldir Pointer to long file name directory entry.
 * \param[in] i Index of character.
 * \param[in] c  The 16-bit character.
 */
static void lfnPutChar(ldir_t *ldir, uint8_t i, uint16_t c) {
  if (i < LDIR_NAME1_DIM) {
   d6c6e:	2b04      	cmp	r3, #4
   d6c70:	fa5f fc83 	uxtb.w	ip, r3
   d6c74:	f103 0001 	add.w	r0, r3, #1
   d6c78:	d813      	bhi.n	d6ca2 <_ZN7FatFile4openEPS_P7fname_ti+0x2b2>
    ldir->name1[i] = c;
   d6c7a:	eb07 0343 	add.w	r3, r7, r3, lsl #1
   d6c7e:	f8a3 1001 	strh.w	r1, [r3, #1]
  }
}
//------------------------------------------------------------------------------
static void lfnPutName(ldir_t *ldir, const char* name, size_t n) {
  size_t k = 13*((ldir->ord & 0X1F) - 1);
  for (uint8_t i = 0; i < 13; i++, k++) {
   d6c82:	280d      	cmp	r0, #13
   d6c84:	f102 0201 	add.w	r2, r2, #1
   d6c88:	4603      	mov	r3, r0
   d6c8a:	d1eb      	bne.n	d6c64 <_ZN7FatFile4openEPS_P7fname_ti+0x274>
  if (!dirFile->seekSet(32UL*freeIndex)) {
    DBG_FAIL_MACRO;
    goto fail;
  }
  lfnOrd = freeNeed - 1;
  for (uint8_t ord = lfnOrd ; ord ; ord--) {
   d6c8c:	3c01      	subs	r4, #1
   d6c8e:	b2e4      	uxtb	r4, r4
   d6c90:	2c00      	cmp	r4, #0
   d6c92:	d1bb      	bne.n	d6c0c <_ZN7FatFile4openEPS_P7fname_ti+0x21c>
   d6c94:	e00e      	b.n	d6cb4 <_ZN7FatFile4openEPS_P7fname_ti+0x2c4>
}
//------------------------------------------------------------------------------
static void lfnPutName(ldir_t *ldir, const char* name, size_t n) {
  size_t k = 13*((ldir->ord & 0X1F) - 1);
  for (uint8_t i = 0; i < 13; i++, k++) {
    uint16_t c = k < n ? name[k] : k == n ? 0 : 0XFFFF;
   d6c96:	bf14      	ite	ne
   d6c98:	f04f 31ff 	movne.w	r1, #4294967295
   d6c9c:	2100      	moveq	r1, #0
   d6c9e:	b289      	uxth	r1, r1
   d6ca0:	e7e5      	b.n	d6c6e <_ZN7FatFile4openEPS_P7fname_ti+0x27e>
 * \param[in] c  The 16-bit character.
 */
static void lfnPutChar(ldir_t *ldir, uint8_t i, uint16_t c) {
  if (i < LDIR_NAME1_DIM) {
    ldir->name1[i] = c;
  } else if (i < (LDIR_NAME1_DIM + LDIR_NAME2_DIM)) {
   d6ca2:	f1bc 0f0a 	cmp.w	ip, #10
    ldir->name2[i - LDIR_NAME1_DIM] = c;
   d6ca6:	bf94      	ite	ls
   d6ca8:	eb07 0343 	addls.w	r3, r7, r3, lsl #1
  } else if (i < (LDIR_NAME1_DIM + LDIR_NAME2_DIM + LDIR_NAME2_DIM)) {
    ldir->name3[i - LDIR_NAME1_DIM - LDIR_NAME2_DIM] = c;
   d6cac:	eb07 0340 	addhi.w	r3, r7, r0, lsl #1
   d6cb0:	8099      	strh	r1, [r3, #4]
   d6cb2:	e7e6      	b.n	d6c82 <_ZN7FatFile4openEPS_P7fname_ti+0x292>
    ldir->type = 0;
    ldir->chksum = lfnChecksum(fname->sfn);
    ldir->mustBeZero = 0;
    lfnPutName(ldir, fname->lfn, len);
  }
  curIndex = dirFile->m_curPosition/32;
   d6cb4:	6973      	ldr	r3, [r6, #20]
  dir = dirFile->readDirCache();
   d6cb6:	4621      	mov	r1, r4
   d6cb8:	4630      	mov	r0, r6
    ldir->type = 0;
    ldir->chksum = lfnChecksum(fname->sfn);
    ldir->mustBeZero = 0;
    lfnPutName(ldir, fname->lfn, len);
  }
  curIndex = dirFile->m_curPosition/32;
   d6cba:	f3c3 1a4f 	ubfx	sl, r3, #5, #16
  dir = dirFile->readDirCache();
   d6cbe:	f000 f9cc 	bl	d705a <_ZN7FatFile12readDirCacheEb>
  if (!dir) {
   d6cc2:	4607      	mov	r7, r0
   d6cc4:	2800      	cmp	r0, #0
   d6cc6:	f43f ae9e 	beq.w	d6a06 <_ZN7FatFile4openEPS_P7fname_ti+0x16>
    DBG_FAIL_MACRO;
    goto fail;
  }
  // initialize as empty file
  memset(dir, 0, sizeof(dir_t));
   d6cca:	2220      	movs	r2, #32
   d6ccc:	4621      	mov	r1, r4
   d6cce:	f004 fb89 	bl	db3e4 <memset>
  memcpy(dir->name, fname->sfn, 11);
   d6cd2:	464b      	mov	r3, r9
   d6cd4:	f853 2f0d 	ldr.w	r2, [r3, #13]!
   d6cd8:	603a      	str	r2, [r7, #0]
   d6cda:	685a      	ldr	r2, [r3, #4]
   d6cdc:	607a      	str	r2, [r7, #4]
   d6cde:	891a      	ldrh	r2, [r3, #8]
   d6ce0:	813a      	strh	r2, [r7, #8]
   d6ce2:	7a9b      	ldrb	r3, [r3, #10]
   d6ce4:	72bb      	strb	r3, [r7, #10]

  // Set base-name and extension lower case bits.
  dir->reservedNT =  (DIR_NT_LC_BASE | DIR_NT_LC_EXT) & fname->flags;
   d6ce6:	f899 3000 	ldrb.w	r3, [r9]
   d6cea:	f003 0318 	and.w	r3, r3, #24
   d6cee:	733b      	strb	r3, [r7, #12]

  // set timestamps
  if (m_dateTime) {
   d6cf0:	4b18      	ldr	r3, [pc, #96]	; (d6d54 <_ZN7FatFile4openEPS_P7fname_ti+0x364>)
   d6cf2:	681b      	ldr	r3, [r3, #0]
   d6cf4:	b12b      	cbz	r3, d6d02 <_ZN7FatFile4openEPS_P7fname_ti+0x312>
    // call user date/time function
    m_dateTime(&dir->creationDate, &dir->creationTime);
   d6cf6:	f107 010e 	add.w	r1, r7, #14
   d6cfa:	f107 0010 	add.w	r0, r7, #16
   d6cfe:	4798      	blx	r3
   d6d00:	e006      	b.n	d6d10 <_ZN7FatFile4openEPS_P7fname_ti+0x320>
  } else {
    // use default date/time
    dir->creationDate = FAT_DEFAULT_DATE;
   d6d02:	2321      	movs	r3, #33	; 0x21
   d6d04:	743b      	strb	r3, [r7, #16]
   d6d06:	2328      	movs	r3, #40	; 0x28
   d6d08:	747b      	strb	r3, [r7, #17]
    dir->creationTime = FAT_DEFAULT_TIME;
   d6d0a:	2308      	movs	r3, #8
   d6d0c:	73bc      	strb	r4, [r7, #14]
   d6d0e:	73fb      	strb	r3, [r7, #15]
  }
  dir->lastAccessDate = dir->creationDate;
   d6d10:	8a3b      	ldrh	r3, [r7, #16]
   d6d12:	827b      	strh	r3, [r7, #18]
  dir->lastWriteDate = dir->creationDate;
   d6d14:	833b      	strh	r3, [r7, #24]
  dir->lastWriteTime = dir->creationTime;
   d6d16:	89fb      	ldrh	r3, [r7, #14]
   d6d18:	82fb      	strh	r3, [r7, #22]

  // Force write of entry to device.
  dirFile->m_vol->cacheDirty();
   d6d1a:	68b2      	ldr	r2, [r6, #8]
   d6d1c:	f892 3024 	ldrb.w	r3, [r2, #36]	; 0x24
   d6d20:	f043 0301 	orr.w	r3, r3, #1
   d6d24:	f882 3024 	strb.w	r3, [r2, #36]	; 0x24

open:
  // open entry in cache.
  if (!openCachedEntry(dirFile, curIndex, oflag, lfnOrd)) {
   d6d28:	9500      	str	r5, [sp, #0]
   d6d2a:	465b      	mov	r3, fp
   d6d2c:	4652      	mov	r2, sl
   d6d2e:	4631      	mov	r1, r6
   d6d30:	9805      	ldr	r0, [sp, #20]
   d6d32:	f000 f9f8 	bl	d7126 <_ZN7FatFile15openCachedEntryEPS_tih>
   d6d36:	e009      	b.n	d6d4c <_ZN7FatFile4openEPS_P7fname_ti+0x35c>
  if (!dirFile->isDir() || isOpen()) {
    DBG_FAIL_MACRO;
    goto fail;
  }
  // Number of directory entries needed.
  freeNeed = fname->flags & FNAME_FLAG_NEED_LFN ? 1 + (len + 12)/13 : 1;
   d6d38:	2701      	movs	r7, #1
   d6d3a:	e677      	b.n	d6a2c <_ZN7FatFile4openEPS_P7fname_ti+0x3c>
   d6d3c:	f10e 0e01 	add.w	lr, lr, #1
      if (k >= len) {
        // Not found.
        lfnOrd = 0;
        continue;
      }
      for (uint8_t i = 0; i < 13; i++) {
   d6d40:	f1be 0f0d 	cmp.w	lr, #13
   d6d44:	f43f ae82 	beq.w	d6a4c <_ZN7FatFile4openEPS_P7fname_ti+0x5c>
            // Not found.
            lfnOrd = 0;
          }
          break;
        }
        if (u > 255 || lfnToLower(u) != lfnToLower(fname->lfn[k++])) {
   d6d48:	46d4      	mov	ip, sl
   d6d4a:	e6c3      	b.n	d6ad4 <_ZN7FatFile4openEPS_P7fname_ti+0xe4>
  }
  return true;

fail:
  return false;
}
   d6d4c:	b009      	add	sp, #36	; 0x24
   d6d4e:	e8bd 8ff0 	ldmia.w	sp!, {r4, r5, r6, r7, r8, r9, sl, fp, pc}
   d6d52:	bf00      	nop
   d6d54:	2003e020 	.word	0x2003e020

000d6d58 <_GLOBAL__sub_I__ZN7FatFile11lfnChecksumEPh>:
   d6d58:	f001 bbf4 	b.w	d8544 <HAL_Pin_Map>

000d6d5c <_GLOBAL__sub_I__ZN11StdioStream6fcloseEv>:
   d6d5c:	f001 bbf2 	b.w	d8544 <HAL_Pin_Map>

000d6d60 <_GLOBAL__sub_I__ZN7ostream7do_fillEj>:
   d6d60:	f001 bbf0 	b.w	d8544 <HAL_Pin_Map>

000d6d64 <_ZN7FatFile6getSFNEPc>:
 * DEALINGS IN THE SOFTWARE.
 */
#include "FatFile.h"
#include "FatFileSystem.h"
//------------------------------------------------------------------------------
bool FatFile::getSFN(char* name) {
   d6d64:	b510      	push	{r4, lr}
   d6d66:	460c      	mov	r4, r1
   d6d68:	7801      	ldrb	r1, [r0, #0]
  dir_t* dir;
  if (!isOpen()) {
   d6d6a:	b909      	cbnz	r1, d6d70 <_ZN7FatFile6getSFNEPc+0xc>
  // format name
  dirName(dir, name);
  return true;

fail:
  return false;
   d6d6c:	2000      	movs	r0, #0
   d6d6e:	bd10      	pop	{r4, pc}
  dir_t* dir;
  if (!isOpen()) {
    DBG_FAIL_MACRO;
    goto fail;
  }
  if (isRoot()) {
   d6d70:	f011 0160 	ands.w	r1, r1, #96	; 0x60
   d6d74:	d004      	beq.n	d6d80 <_ZN7FatFile6getSFNEPc+0x1c>
    name[0] = '/';
   d6d76:	232f      	movs	r3, #47	; 0x2f
   d6d78:	7023      	strb	r3, [r4, #0]
    name[1] = '\0';
   d6d7a:	2300      	movs	r3, #0
   d6d7c:	7063      	strb	r3, [r4, #1]
   d6d7e:	e006      	b.n	d6d8e <_ZN7FatFile6getSFNEPc+0x2a>
    return true;
  }
  // cache entry
  dir = cacheDirEntry(FatCache::CACHE_FOR_READ);
   d6d80:	f000 f854 	bl	d6e2c <_ZN7FatFile13cacheDirEntryEh>
  if (!dir) {
   d6d84:	2800      	cmp	r0, #0
   d6d86:	d0f1      	beq.n	d6d6c <_ZN7FatFile6getSFNEPc+0x8>
    DBG_FAIL_MACRO;
    goto fail;
  }
  // format name
  dirName(dir, name);
   d6d88:	4621      	mov	r1, r4
   d6d8a:	f000 f85e 	bl	d6e4a <_ZN7FatFile7dirNameEPK14directoryEntryPc>
  return true;
   d6d8e:	2001      	movs	r0, #1

fail:
  return false;
}
   d6d90:	bd10      	pop	{r4, pc}

000d6d92 <_GLOBAL__sub_I__ZN7FatFile6getSFNEPc>:
   d6d92:	f001 bbd7 	b.w	d8544 <HAL_Pin_Map>

000d6d96 <_ZN7FatFile10addClusterEv>:
// Callback function for date/time.
void (*FatFile::m_dateTime)(uint16_t* date, uint16_t* time) = 0;
//------------------------------------------------------------------------------
// Add a cluster to a file.
bool FatFile::addCluster() {
  m_flags |= F_FILE_DIR_DIRTY;
   d6d96:	7883      	ldrb	r3, [r0, #2]
  return m_vol->allocateCluster(m_curCluster, &m_curCluster);
   d6d98:	6901      	ldr	r1, [r0, #16]
// Callback function for date/time.
void (*FatFile::m_dateTime)(uint16_t* date, uint16_t* time) = 0;
//------------------------------------------------------------------------------
// Add a cluster to a file.
bool FatFile::addCluster() {
  m_flags |= F_FILE_DIR_DIRTY;
   d6d9a:	f043 0304 	orr.w	r3, r3, #4
   d6d9e:	7083      	strb	r3, [r0, #2]
  return m_vol->allocateCluster(m_curCluster, &m_curCluster);
   d6da0:	f100 0210 	add.w	r2, r0, #16
   d6da4:	6880      	ldr	r0, [r0, #8]
   d6da6:	f000 bca3 	b.w	d76f0 <_ZN9FatVolume15allocateClusterEmPm>
	...

000d6dac <_ZN7FatFile13addDirClusterEv>:
}
//------------------------------------------------------------------------------
// Add a cluster to a directory file and zero the cluster.
// Return with first block of cluster in the cache.
bool FatFile::addDirCluster() {
   d6dac:	e92d 41f0 	stmdb	sp!, {r4, r5, r6, r7, r8, lr}
  uint32_t block;
  cache_t* pc;

  if (isRootFixed()) {
   d6db0:	7803      	ldrb	r3, [r0, #0]
   d6db2:	f003 0320 	and.w	r3, r3, #32
  return m_vol->allocateCluster(m_curCluster, &m_curCluster);
}
//------------------------------------------------------------------------------
// Add a cluster to a directory file and zero the cluster.
// Return with first block of cluster in the cache.
bool FatFile::addDirCluster() {
   d6db6:	4604      	mov	r4, r0
  uint32_t block;
  cache_t* pc;

  if (isRootFixed()) {
   d6db8:	f003 05ff 	and.w	r5, r3, #255	; 0xff
   d6dbc:	b10b      	cbz	r3, d6dc2 <_ZN7FatFile13addDirClusterEv+0x16>
  // Set position to EOF to avoid inconsistent curCluster/curPosition.
  m_curPosition += 512UL*m_vol->blocksPerCluster();
  return true;

fail:
  return false;
   d6dbe:	2600      	movs	r6, #0
   d6dc0:	e02e      	b.n	d6e20 <_ZN7FatFile13addDirClusterEv+0x74>
  if (isRootFixed()) {
    DBG_FAIL_MACRO;
    goto fail;
  }
  // max folder size
  if (m_curPosition >= 512UL*4095) {
   d6dc2:	6942      	ldr	r2, [r0, #20]
   d6dc4:	4b18      	ldr	r3, [pc, #96]	; (d6e28 <_ZN7FatFile13addDirClusterEv+0x7c>)
   d6dc6:	429a      	cmp	r2, r3
   d6dc8:	d8f9      	bhi.n	d6dbe <_ZN7FatFile13addDirClusterEv+0x12>
    DBG_FAIL_MACRO;
    goto fail;
  }
  if (!addCluster()) {
   d6dca:	f7ff ffe4 	bl	d6d96 <_ZN7FatFile10addClusterEv>
   d6dce:	4606      	mov	r6, r0
   d6dd0:	2800      	cmp	r0, #0
   d6dd2:	d0f4      	beq.n	d6dbe <_ZN7FatFile13addDirClusterEv+0x12>
    DBG_FAIL_MACRO;
    goto fail;
  }
  block = m_vol->clusterFirstBlock(m_curCluster);
   d6dd4:	6921      	ldr	r1, [r4, #16]
   d6dd6:	68a0      	ldr	r0, [r4, #8]
   d6dd8:	f000 fc1f 	bl	d761a <_ZNK9FatVolume17clusterFirstBlockEm>
   d6ddc:	4607      	mov	r7, r0
  bool cacheSync() {
    return m_cache.sync() && syncBlocks();
  }
#endif  // USE_SEPARATE_FAT_CACHE
  cache_t* cacheFetchData(uint32_t blockNumber, uint8_t options) {
    return m_cache.read(blockNumber, options);
   d6dde:	68a0      	ldr	r0, [r4, #8]
   d6de0:	2205      	movs	r2, #5
   d6de2:	4639      	mov	r1, r7
   d6de4:	3024      	adds	r0, #36	; 0x24
   d6de6:	f000 fbf4 	bl	d75d2 <_ZN8FatCache4readEmh>
  pc = m_vol->cacheFetchData(block, FatCache::CACHE_RESERVE_FOR_WRITE);
  if (!pc) {
   d6dea:	4680      	mov	r8, r0
   d6dec:	2800      	cmp	r0, #0
   d6dee:	d0e6      	beq.n	d6dbe <_ZN7FatFile13addDirClusterEv+0x12>
    DBG_FAIL_MACRO;
    goto fail;
  }
  memset(pc, 0, 512);
   d6df0:	4629      	mov	r1, r5
   d6df2:	f44f 7200 	mov.w	r2, #512	; 0x200
   d6df6:	f004 faf5 	bl	db3e4 <memset>
  // zero rest of clusters
  for (uint8_t i = 1; i < m_vol->blocksPerCluster(); i++) {
   d6dfa:	2501      	movs	r5, #1
   d6dfc:	68a3      	ldr	r3, [r4, #8]
   d6dfe:	791a      	ldrb	r2, [r3, #4]
   d6e00:	42aa      	cmp	r2, r5
   d6e02:	d909      	bls.n	d6e18 <_ZN7FatFile13addDirClusterEv+0x6c>
  }
  bool syncBlocks() {
    return m_blockDev->syncBlocks();
  }
  bool writeBlock(uint32_t block, const uint8_t* src) {
    return m_blockDev->writeBlock(block, src);
   d6e04:	4642      	mov	r2, r8
   d6e06:	19e9      	adds	r1, r5, r7
   d6e08:	6818      	ldr	r0, [r3, #0]
   d6e0a:	f000 ff5f 	bl	d7ccc <_ZN9SdSpiCard10writeBlockEmPKh>
    if (!m_vol->writeBlock(block + i, pc->data)) {
   d6e0e:	2800      	cmp	r0, #0
   d6e10:	d0d5      	beq.n	d6dbe <_ZN7FatFile13addDirClusterEv+0x12>
    DBG_FAIL_MACRO;
    goto fail;
  }
  memset(pc, 0, 512);
  // zero rest of clusters
  for (uint8_t i = 1; i < m_vol->blocksPerCluster(); i++) {
   d6e12:	3501      	adds	r5, #1
   d6e14:	b2ed      	uxtb	r5, r5
   d6e16:	e7f1      	b.n	d6dfc <_ZN7FatFile13addDirClusterEv+0x50>
      DBG_FAIL_MACRO;
      goto fail;
    }
  }
  // Set position to EOF to avoid inconsistent curCluster/curPosition.
  m_curPosition += 512UL*m_vol->blocksPerCluster();
   d6e18:	6963      	ldr	r3, [r4, #20]
   d6e1a:	eb03 2342 	add.w	r3, r3, r2, lsl #9
   d6e1e:	6163      	str	r3, [r4, #20]
  return true;

fail:
  return false;
}
   d6e20:	4630      	mov	r0, r6
   d6e22:	e8bd 81f0 	ldmia.w	sp!, {r4, r5, r6, r7, r8, pc}
   d6e26:	bf00      	nop
   d6e28:	001ffdff 	.word	0x001ffdff

000d6e2c <_ZN7FatFile13cacheDirEntryEh>:
//------------------------------------------------------------------------------
// cache a file's directory entry
// return pointer to cached entry or null for failure
dir_t* FatFile::cacheDirEntry(uint8_t action) {
   d6e2c:	b510      	push	{r4, lr}
   d6e2e:	4604      	mov	r4, r0
  bool cacheSync() {
    return m_cache.sync() && syncBlocks();
  }
#endif  // USE_SEPARATE_FAT_CACHE
  cache_t* cacheFetchData(uint32_t blockNumber, uint8_t options) {
    return m_cache.read(blockNumber, options);
   d6e30:	6880      	ldr	r0, [r0, #8]
   d6e32:	460a      	mov	r2, r1
   d6e34:	3024      	adds	r0, #36	; 0x24
   d6e36:	69a1      	ldr	r1, [r4, #24]
   d6e38:	f000 fbcb 	bl	d75d2 <_ZN8FatCache4readEmh>
  cache_t* pc;
  pc = m_vol->cacheFetchData(m_dirBlock, action);
  if (!pc) {
   d6e3c:	b120      	cbz	r0, d6e48 <_ZN7FatFile13cacheDirEntryEh+0x1c>
    DBG_FAIL_MACRO;
    goto fail;
  }
  return pc->dir + (m_dirIndex & 0XF);
   d6e3e:	88a3      	ldrh	r3, [r4, #4]
   d6e40:	f003 030f 	and.w	r3, r3, #15
   d6e44:	eb00 1043 	add.w	r0, r0, r3, lsl #5

fail:
  return 0;
}
   d6e48:	bd10      	pop	{r4, pc}

000d6e4a <_ZN7FatFile7dirNameEPK14directoryEntryPc>:

fail:
  return false;
}
//------------------------------------------------------------------------------
uint8_t FatFile::dirName(const dir_t* dir, char* name) {
   d6e4a:	b5f0      	push	{r4, r5, r6, r7, lr}
   d6e4c:	2400      	movs	r4, #0
   d6e4e:	1e45      	subs	r5, r0, #1
  uint8_t j = 0;
  uint8_t lcBit = DIR_NT_LC_BASE;
   d6e50:	2608      	movs	r6, #8
fail:
  return false;
}
//------------------------------------------------------------------------------
uint8_t FatFile::dirName(const dir_t* dir, char* name) {
  uint8_t j = 0;
   d6e52:	4623      	mov	r3, r4
      continue;
    }
    if (i == 8) {
      // Position bit for extension.
      lcBit = DIR_NT_LC_EXT;
      name[j++] = '.';
   d6e54:	272e      	movs	r7, #46	; 0x2e
//------------------------------------------------------------------------------
uint8_t FatFile::dirName(const dir_t* dir, char* name) {
  uint8_t j = 0;
  uint8_t lcBit = DIR_NT_LC_BASE;
  for (uint8_t i = 0; i < 11; i++) {
    if (dir->name[i] == ' ') {
   d6e56:	f815 2f01 	ldrb.w	r2, [r5, #1]!
   d6e5a:	2a20      	cmp	r2, #32
   d6e5c:	d018      	beq.n	d6e90 <_ZN7FatFile7dirNameEPK14directoryEntryPc+0x46>
      continue;
    }
    if (i == 8) {
   d6e5e:	2c08      	cmp	r4, #8
      // Position bit for extension.
      lcBit = DIR_NT_LC_EXT;
      name[j++] = '.';
   d6e60:	bf02      	ittt	eq
   d6e62:	54cf      	strbeq	r7, [r1, r3]
   d6e64:	1c5a      	addeq	r2, r3, #1
   d6e66:	b2d3      	uxtbeq	r3, r2
    }
    char c = dir->name[i];
   d6e68:	782a      	ldrb	r2, [r5, #0]
    if ('A' <= c && c <= 'Z' && (lcBit & dir->reservedNT)) {
   d6e6a:	f1a2 0e41 	sub.w	lr, r2, #65	; 0x41
    if (dir->name[i] == ' ') {
      continue;
    }
    if (i == 8) {
      // Position bit for extension.
      lcBit = DIR_NT_LC_EXT;
   d6e6e:	bf08      	it	eq
   d6e70:	2610      	moveq	r6, #16
      name[j++] = '.';
    }
    char c = dir->name[i];
    if ('A' <= c && c <= 'Z' && (lcBit & dir->reservedNT)) {
   d6e72:	f1be 0f19 	cmp.w	lr, #25
   d6e76:	d806      	bhi.n	d6e86 <_ZN7FatFile7dirNameEPK14directoryEntryPc+0x3c>
   d6e78:	f890 e00c 	ldrb.w	lr, [r0, #12]
   d6e7c:	ea16 0f0e 	tst.w	r6, lr
      c += 'a' - 'A';
   d6e80:	bf1c      	itt	ne
   d6e82:	3220      	addne	r2, #32
   d6e84:	b2d2      	uxtbne	r2, r2
    }
    name[j++] = c;
   d6e86:	f103 0e01 	add.w	lr, r3, #1
   d6e8a:	54ca      	strb	r2, [r1, r3]
   d6e8c:	fa5f f38e 	uxtb.w	r3, lr
   d6e90:	3401      	adds	r4, #1
}
//------------------------------------------------------------------------------
uint8_t FatFile::dirName(const dir_t* dir, char* name) {
  uint8_t j = 0;
  uint8_t lcBit = DIR_NT_LC_BASE;
  for (uint8_t i = 0; i < 11; i++) {
   d6e92:	2c0b      	cmp	r4, #11
   d6e94:	d1df      	bne.n	d6e56 <_ZN7FatFile7dirNameEPK14directoryEntryPc+0xc>
    if ('A' <= c && c <= 'Z' && (lcBit & dir->reservedNT)) {
      c += 'a' - 'A';
    }
    name[j++] = c;
  }
  name[j] = 0;
   d6e96:	2200      	movs	r2, #0
   d6e98:	54ca      	strb	r2, [r1, r3]
  return j;
}
   d6e9a:	4618      	mov	r0, r3
   d6e9c:	bdf0      	pop	{r4, r5, r6, r7, pc}

000d6e9e <_ZN7FatFile8openRootEP9FatVolume>:
fail:
  return false;
}
#endif  // DOXYGEN_SHOULD_SKIP_THIS
//------------------------------------------------------------------------------
bool FatFile::openRoot(FatVolume* vol) {
   d6e9e:	b570      	push	{r4, r5, r6, lr}
  // error if file is already open
  if (isOpen()) {
   d6ea0:	7804      	ldrb	r4, [r0, #0]
fail:
  return false;
}
#endif  // DOXYGEN_SHOULD_SKIP_THIS
//------------------------------------------------------------------------------
bool FatFile::openRoot(FatVolume* vol) {
   d6ea2:	4605      	mov	r5, r0
   d6ea4:	460e      	mov	r6, r1
  // error if file is already open
  if (isOpen()) {
   d6ea6:	b984      	cbnz	r4, d6eca <_ZN7FatFile8openRootEP9FatVolume+0x2c>
    DBG_FAIL_MACRO;
    goto fail;
  }
  memset(this, 0, sizeof(FatFile));
   d6ea8:	2224      	movs	r2, #36	; 0x24
   d6eaa:	4621      	mov	r1, r4
   d6eac:	f004 fa9a 	bl	db3e4 <memset>

  m_vol = vol;
   d6eb0:	60ae      	str	r6, [r5, #8]
  switch (vol->fatType()) {
   d6eb2:	79f3      	ldrb	r3, [r6, #7]
   d6eb4:	2b10      	cmp	r3, #16
   d6eb6:	d003      	beq.n	d6ec0 <_ZN7FatFile8openRootEP9FatVolume+0x22>
   d6eb8:	2b20      	cmp	r3, #32
   d6eba:	d106      	bne.n	d6eca <_ZN7FatFile8openRootEP9FatVolume+0x2c>
  case 16:
    m_attr = FILE_ATTR_ROOT_FIXED;
    break;

  case 32:
    m_attr = FILE_ATTR_ROOT32;
   d6ebc:	2340      	movs	r3, #64	; 0x40
   d6ebe:	e000      	b.n	d6ec2 <_ZN7FatFile8openRootEP9FatVolume+0x24>
  switch (vol->fatType()) {
#if FAT12_SUPPORT
  case 12:
#endif  // FAT12_SUPPORT
  case 16:
    m_attr = FILE_ATTR_ROOT_FIXED;
   d6ec0:	2320      	movs	r3, #32
  default:
    DBG_FAIL_MACRO;
    goto fail;
  }
  // read only
  m_flags = F_READ;
   d6ec2:	2001      	movs	r0, #1
  case 16:
    m_attr = FILE_ATTR_ROOT_FIXED;
    break;

  case 32:
    m_attr = FILE_ATTR_ROOT32;
   d6ec4:	702b      	strb	r3, [r5, #0]
  default:
    DBG_FAIL_MACRO;
    goto fail;
  }
  // read only
  m_flags = F_READ;
   d6ec6:	70a8      	strb	r0, [r5, #2]
   d6ec8:	bd70      	pop	{r4, r5, r6, pc}
  return true;

fail:
  return false;
   d6eca:	2000      	movs	r0, #0
   d6ecc:	bd70      	pop	{r4, r5, r6, pc}

000d6ece <_ZN7FatFile4readEPvj>:
    setpos(&pos);
  }
  return c;
}
//------------------------------------------------------------------------------
int FatFile::read(void* buf, size_t nbyte) {
   d6ece:	e92d 4ff7 	stmdb	sp!, {r0, r1, r2, r4, r5, r6, r7, r8, r9, sl, fp, lr}
   d6ed2:	7803      	ldrb	r3, [r0, #0]
   d6ed4:	4604      	mov	r4, r0
   d6ed6:	4689      	mov	r9, r1
   d6ed8:	4615      	mov	r5, r2
  size_t toRead;
  uint32_t block;  // raw device block number
  cache_t* pc;

  // error if not open for read
  if (!isOpen() || !(m_flags & F_READ)) {
   d6eda:	b14b      	cbz	r3, d6ef0 <_ZN7FatFile4readEPvj+0x22>
   d6edc:	7882      	ldrb	r2, [r0, #2]
   d6ede:	07d1      	lsls	r1, r2, #31
   d6ee0:	d506      	bpl.n	d6ef0 <_ZN7FatFile4readEPvj+0x22>
   d6ee2:	e00c      	b.n	d6efe <_ZN7FatFile4readEPvj+0x30>
        if (m_curPosition == 0) {
          // use first cluster in file
          m_curCluster = isRoot32() ? m_vol->rootDirStart() : m_firstCluster;
        } else {
          // get next cluster from FAT
          fg = m_vol->fatGet(m_curCluster, &m_curCluster);
   d6ee4:	465a      	mov	r2, fp
   d6ee6:	6921      	ldr	r1, [r4, #16]
   d6ee8:	f000 fb9d 	bl	d7626 <_ZN9FatVolume6fatGetEmPm>
          if (fg < 0) {
   d6eec:	2800      	cmp	r0, #0
   d6eee:	da3d      	bge.n	d6f6c <_ZN7FatFile4readEPvj+0x9e>
    toRead -= n;
  }
  return nbyte - toRead;

fail:
  m_error |= READ_ERROR;
   d6ef0:	7863      	ldrb	r3, [r4, #1]
   d6ef2:	f043 0302 	orr.w	r3, r3, #2
   d6ef6:	7063      	strb	r3, [r4, #1]
  return -1;
   d6ef8:	f04f 30ff 	mov.w	r0, #4294967295
   d6efc:	e097      	b.n	d702e <_ZN7FatFile4readEPvj+0x160>
  if (!isOpen() || !(m_flags & F_READ)) {
    DBG_FAIL_MACRO;
    goto fail;
  }

  if (isFile()) {
   d6efe:	071a      	lsls	r2, r3, #28
   d6f00:	d503      	bpl.n	d6f0a <_ZN7FatFile4readEPvj+0x3c>
    uint32_t tmp32 = m_fileSize - m_curPosition;
   d6f02:	69e3      	ldr	r3, [r4, #28]
   d6f04:	6962      	ldr	r2, [r4, #20]
   d6f06:	1a9b      	subs	r3, r3, r2
   d6f08:	e007      	b.n	d6f1a <_ZN7FatFile4readEPvj+0x4c>
    if (nbyte >= tmp32) {
      nbyte = tmp32;
    }
  } else if (isRootFixed()) {
   d6f0a:	069a      	lsls	r2, r3, #26
   d6f0c:	d508      	bpl.n	d6f20 <_ZN7FatFile4readEPvj+0x52>
    uint16_t tmp16 = 32*m_vol->m_rootDirEntryCount - (uint16_t)m_curPosition;
   d6f0e:	68a3      	ldr	r3, [r4, #8]
    if (nbyte > tmp16) {
   d6f10:	891a      	ldrh	r2, [r3, #8]
   d6f12:	6963      	ldr	r3, [r4, #20]
   d6f14:	ebc3 1342 	rsb	r3, r3, r2, lsl #5
   d6f18:	b29b      	uxth	r3, r3
   d6f1a:	429d      	cmp	r5, r3
   d6f1c:	bf28      	it	cs
   d6f1e:	461d      	movcs	r5, r3
      nbyte = tmp16;
    }
  }
  toRead = nbyte;
   d6f20:	462e      	mov	r6, r5
  return c;
}
//------------------------------------------------------------------------------
int FatFile::read(void* buf, size_t nbyte) {
  int8_t fg;
  uint8_t blockOfCluster = 0;
   d6f22:	f04f 0800 	mov.w	r8, #0
        if (m_curPosition == 0) {
          // use first cluster in file
          m_curCluster = isRoot32() ? m_vol->rootDirStart() : m_firstCluster;
        } else {
          // get next cluster from FAT
          fg = m_vol->fatGet(m_curCluster, &m_curCluster);
   d6f26:	f104 0b10 	add.w	fp, r4, #16
    if (nbyte > tmp16) {
      nbyte = tmp16;
    }
  }
  toRead = nbyte;
  while (toRead) {
   d6f2a:	2e00      	cmp	r6, #0
   d6f2c:	d035      	beq.n	d6f9a <_ZN7FatFile4readEPvj+0xcc>
   d6f2e:	7822      	ldrb	r2, [r4, #0]
    size_t n;
    offset = m_curPosition & 0X1FF;  // offset in block
   d6f30:	6963      	ldr	r3, [r4, #20]
   d6f32:	68a0      	ldr	r0, [r4, #8]
    if (isRootFixed()) {
   d6f34:	f012 0f20 	tst.w	r2, #32
    }
  }
  toRead = nbyte;
  while (toRead) {
    size_t n;
    offset = m_curPosition & 0X1FF;  // offset in block
   d6f38:	f3c3 0a08 	ubfx	sl, r3, #0, #9
   d6f3c:	ea4f 2153 	mov.w	r1, r3, lsr #9
    if (isRootFixed()) {
   d6f40:	d002      	beq.n	d6f48 <_ZN7FatFile4readEPvj+0x7a>
      block = m_vol->rootDirStart() + (m_curPosition >> 9);
   d6f42:	6a03      	ldr	r3, [r0, #32]
   d6f44:	4419      	add	r1, r3
   d6f46:	e01d      	b.n	d6f84 <_ZN7FatFile4readEPvj+0xb6>
  }
//------------------------------------------------------------------------------
  bool allocateCluster(uint32_t current, uint32_t* next);
  bool allocContiguous(uint32_t count, uint32_t* firstCluster);
  uint8_t blockOfCluster(uint32_t position) const {
    return (position >> 9) & m_clusterBlockMask;
   d6f48:	f890 8005 	ldrb.w	r8, [r0, #5]
   d6f4c:	ea01 0808 	and.w	r8, r1, r8
    } else {
      blockOfCluster = m_vol->blockOfCluster(m_curPosition);
      if (offset == 0 && blockOfCluster == 0) {
   d6f50:	f1ba 0f00 	cmp.w	sl, #0
   d6f54:	d110      	bne.n	d6f78 <_ZN7FatFile4readEPvj+0xaa>
   d6f56:	f1b8 0f00 	cmp.w	r8, #0
   d6f5a:	d10d      	bne.n	d6f78 <_ZN7FatFile4readEPvj+0xaa>
        // start of new cluster
        if (m_curPosition == 0) {
   d6f5c:	2b00      	cmp	r3, #0
   d6f5e:	d1c1      	bne.n	d6ee4 <_ZN7FatFile4readEPvj+0x16>
          // use first cluster in file
          m_curCluster = isRoot32() ? m_vol->rootDirStart() : m_firstCluster;
   d6f60:	0653      	lsls	r3, r2, #25
   d6f62:	bf4c      	ite	mi
   d6f64:	6a03      	ldrmi	r3, [r0, #32]
   d6f66:	6a23      	ldrpl	r3, [r4, #32]
   d6f68:	6123      	str	r3, [r4, #16]
   d6f6a:	e005      	b.n	d6f78 <_ZN7FatFile4readEPvj+0xaa>
          fg = m_vol->fatGet(m_curCluster, &m_curCluster);
          if (fg < 0) {
            DBG_FAIL_MACRO;
            goto fail;
          }
          if (fg == 0) {
   d6f6c:	d104      	bne.n	d6f78 <_ZN7FatFile4readEPvj+0xaa>
            if (isDir()) {
   d6f6e:	7823      	ldrb	r3, [r4, #0]
   d6f70:	f013 0f70 	tst.w	r3, #112	; 0x70
   d6f74:	d111      	bne.n	d6f9a <_ZN7FatFile4readEPvj+0xcc>
   d6f76:	e7bb      	b.n	d6ef0 <_ZN7FatFile4readEPvj+0x22>
            DBG_FAIL_MACRO;
            goto fail;
          }
        }
      }
      block = m_vol->clusterFirstBlock(m_curCluster) + blockOfCluster;
   d6f78:	6921      	ldr	r1, [r4, #16]
   d6f7a:	68a0      	ldr	r0, [r4, #8]
   d6f7c:	f000 fb4d 	bl	d761a <_ZNK9FatVolume17clusterFirstBlockEm>
   d6f80:	eb08 0100 	add.w	r1, r8, r0
   d6f84:	68a0      	ldr	r0, [r4, #8]
    }
    if (offset != 0 || toRead < 512 || block == m_vol->cacheBlockNumber()) {
   d6f86:	f1ba 0f00 	cmp.w	sl, #0
   d6f8a:	d135      	bne.n	d6ff8 <_ZN7FatFile4readEPvj+0x12a>
   d6f8c:	f5b6 7f00 	cmp.w	r6, #512	; 0x200
   d6f90:	d332      	bcc.n	d6ff8 <_ZN7FatFile4readEPvj+0x12a>
   d6f92:	6ac3      	ldr	r3, [r0, #44]	; 0x2c
   d6f94:	4299      	cmp	r1, r3
   d6f96:	d102      	bne.n	d6f9e <_ZN7FatFile4readEPvj+0xd0>
   d6f98:	e02e      	b.n	d6ff8 <_ZN7FatFile4readEPvj+0x12a>
    }
    dst += n;
    m_curPosition += n;
    toRead -= n;
  }
  return nbyte - toRead;
   d6f9a:	1ba8      	subs	r0, r5, r6
   d6f9c:	e047      	b.n	d702e <_ZN7FatFile4readEPvj+0x160>
        goto fail;
      }
      uint8_t* src = pc->data + offset;
      memcpy(dst, src, n);
#if USE_MULTI_BLOCK_IO
    } else if (toRead >= 1024) {
   d6f9e:	f5b6 6f80 	cmp.w	r6, #1024	; 0x400
   d6fa2:	d31b      	bcc.n	d6fdc <_ZN7FatFile4readEPvj+0x10e>
      size_t nb = toRead >> 9;
      if (!isRootFixed()) {
   d6fa4:	7822      	ldrb	r2, [r4, #0]
   d6fa6:	0697      	lsls	r7, r2, #26
      }
      uint8_t* src = pc->data + offset;
      memcpy(dst, src, n);
#if USE_MULTI_BLOCK_IO
    } else if (toRead >= 1024) {
      size_t nb = toRead >> 9;
   d6fa8:	ea4f 2a56 	mov.w	sl, r6, lsr #9
      if (!isRootFixed()) {
   d6fac:	d406      	bmi.n	d6fbc <_ZN7FatFile4readEPvj+0xee>
        uint8_t mb = m_vol->blocksPerCluster() - blockOfCluster;
        if (mb < nb) {
   d6fae:	7902      	ldrb	r2, [r0, #4]
   d6fb0:	ebc8 0202 	rsb	r2, r8, r2
   d6fb4:	b2d2      	uxtb	r2, r2
   d6fb6:	4592      	cmp	sl, r2
   d6fb8:	bf28      	it	cs
   d6fba:	4692      	movcs	sl, r2
          nb = mb;
        }
      }
      n = 512*nb;
      if (m_vol->cacheBlockNumber() <= block
          && block < (m_vol->cacheBlockNumber() + nb)) {
   d6fbc:	4299      	cmp	r1, r3
        uint8_t mb = m_vol->blocksPerCluster() - blockOfCluster;
        if (mb < nb) {
          nb = mb;
        }
      }
      n = 512*nb;
   d6fbe:	ea4f 274a 	mov.w	r7, sl, lsl #9
      if (m_vol->cacheBlockNumber() <= block
          && block < (m_vol->cacheBlockNumber() + nb)) {
   d6fc2:	d207      	bcs.n	d6fd4 <_ZN7FatFile4readEPvj+0x106>
   d6fc4:	68a0      	ldr	r0, [r4, #8]
  bool writeBlock(uint32_t block, const uint8_t* src) {
    return m_blockDev->writeBlock(block, src);
  }
#if USE_MULTI_BLOCK_IO
  bool readBlocks(uint32_t block, uint8_t* dst, size_t nb) {
    return m_blockDev->readBlocks(block, dst, nb);
   d6fc6:	4653      	mov	r3, sl
   d6fc8:	464a      	mov	r2, r9
   d6fca:	6800      	ldr	r0, [r0, #0]
   d6fcc:	f000 fe3c 	bl	d7c48 <_ZN9SdSpiCard10readBlocksEmPhj>
        if (!m_vol->cacheSyncData()) {
          DBG_FAIL_MACRO;
          goto fail;
        }
      }
      if (!m_vol->readBlocks(block, dst, nb)) {
   d6fd0:	b960      	cbnz	r0, d6fec <_ZN7FatFile4readEPvj+0x11e>
   d6fd2:	e78d      	b.n	d6ef0 <_ZN7FatFile4readEPvj+0x22>
          nb = mb;
        }
      }
      n = 512*nb;
      if (m_vol->cacheBlockNumber() <= block
          && block < (m_vol->cacheBlockNumber() + nb)) {
   d6fd4:	4453      	add	r3, sl
   d6fd6:	4299      	cmp	r1, r3
   d6fd8:	d321      	bcc.n	d701e <_ZN7FatFile4readEPvj+0x150>
   d6fda:	e7f3      	b.n	d6fc4 <_ZN7FatFile4readEPvj+0xf6>
  uint32_t m_lastCluster;          // Last cluster number in FAT.
  uint32_t m_rootDirStart;         // Start block for FAT16, cluster for FAT32.
//------------------------------------------------------------------------------
  // block I/O functions.
  bool readBlock(uint32_t block, uint8_t* dst) {
    return m_blockDev->readBlock(block, dst);
   d6fdc:	464a      	mov	r2, r9
   d6fde:	6800      	ldr	r0, [r0, #0]
   d6fe0:	f000 fdea 	bl	d7bb8 <_ZN9SdSpiCard9readBlockEmPh>
      }
#endif  // USE_MULTI_BLOCK_IO
    } else {
      // read single block
      n = 512;
      if (!m_vol->readBlock(block, dst)) {
   d6fe4:	2800      	cmp	r0, #0
   d6fe6:	d083      	beq.n	d6ef0 <_ZN7FatFile4readEPvj+0x22>
        goto fail;
      }
#endif  // USE_MULTI_BLOCK_IO
    } else {
      // read single block
      n = 512;
   d6fe8:	f44f 7700 	mov.w	r7, #512	; 0x200
        DBG_FAIL_MACRO;
        goto fail;
      }
    }
    dst += n;
    m_curPosition += n;
   d6fec:	6963      	ldr	r3, [r4, #20]
   d6fee:	443b      	add	r3, r7
      if (!m_vol->readBlock(block, dst)) {
        DBG_FAIL_MACRO;
        goto fail;
      }
    }
    dst += n;
   d6ff0:	44b9      	add	r9, r7
    m_curPosition += n;
   d6ff2:	6163      	str	r3, [r4, #20]
    toRead -= n;
   d6ff4:	1bf6      	subs	r6, r6, r7
    if (nbyte > tmp16) {
      nbyte = tmp16;
    }
  }
  toRead = nbyte;
  while (toRead) {
   d6ff6:	e798      	b.n	d6f2a <_ZN7FatFile4readEPvj+0x5c>
  bool cacheSync() {
    return m_cache.sync() && syncBlocks();
  }
#endif  // USE_SEPARATE_FAT_CACHE
  cache_t* cacheFetchData(uint32_t blockNumber, uint8_t options) {
    return m_cache.read(blockNumber, options);
   d6ff8:	2200      	movs	r2, #0
   d6ffa:	3024      	adds	r0, #36	; 0x24
   d6ffc:	f000 fae9 	bl	d75d2 <_ZN8FatCache4readEmh>
      if (n > toRead) {
        n = toRead;
      }
      // read block to cache and copy data to caller
      pc = m_vol->cacheFetchData(block, FatCache::CACHE_FOR_READ);
      if (!pc) {
   d7000:	2800      	cmp	r0, #0
   d7002:	f43f af75 	beq.w	d6ef0 <_ZN7FatFile4readEPvj+0x22>
      }
      block = m_vol->clusterFirstBlock(m_curCluster) + blockOfCluster;
    }
    if (offset != 0 || toRead < 512 || block == m_vol->cacheBlockNumber()) {
      // amount to be read from current block
      n = 512 - offset;
   d7006:	f5ca 7700 	rsb	r7, sl, #512	; 0x200
   d700a:	42b7      	cmp	r7, r6
   d700c:	bf28      	it	cs
   d700e:	4637      	movcs	r7, r6
      if (!pc) {
        DBG_FAIL_MACRO;
        goto fail;
      }
      uint8_t* src = pc->data + offset;
      memcpy(dst, src, n);
   d7010:	eb00 010a 	add.w	r1, r0, sl
   d7014:	463a      	mov	r2, r7
   d7016:	4648      	mov	r0, r9
   d7018:	f004 f9d9 	bl	db3ce <memcpy>
   d701c:	e7e6      	b.n	d6fec <_ZN7FatFile4readEPvj+0x11e>
  }
  void cacheInvalidate() {
    m_cache.invalidate();
  }
  bool cacheSyncData() {
    return m_cache.sync();
   d701e:	3024      	adds	r0, #36	; 0x24
   d7020:	9101      	str	r1, [sp, #4]
   d7022:	f000 faaf 	bl	d7584 <_ZN8FatCache4syncEv>
      }
      n = 512*nb;
      if (m_vol->cacheBlockNumber() <= block
          && block < (m_vol->cacheBlockNumber() + nb)) {
        // flush cache if a block is in the cache
        if (!m_vol->cacheSyncData()) {
   d7026:	9901      	ldr	r1, [sp, #4]
   d7028:	2800      	cmp	r0, #0
   d702a:	d1cb      	bne.n	d6fc4 <_ZN7FatFile4readEPvj+0xf6>
   d702c:	e760      	b.n	d6ef0 <_ZN7FatFile4readEPvj+0x22>
  return nbyte - toRead;

fail:
  m_error |= READ_ERROR;
  return -1;
}
   d702e:	b003      	add	sp, #12
   d7030:	e8bd 8ff0 	ldmia.w	sp!, {r4, r5, r6, r7, r8, r9, sl, fp, pc}

000d7034 <_ZN7FatFile4peekEv>:

fail:
  return false;
}
//------------------------------------------------------------------------------
int FatFile::peek() {
   d7034:	b573      	push	{r0, r1, r4, r5, r6, lr}
   * \return For success read returns the next byte in the file as an int.
   * If an error occurs or end of file is reached -1 is returned.
   */
  int read() {
    uint8_t b;
    return read(&b, 1) == 1 ? b : -1;
   d7036:	2201      	movs	r2, #1
   d7038:	f10d 0107 	add.w	r1, sp, #7
   d703c:	4604      	mov	r4, r0
  str[n] = '\0';
  return n;
}
//------------------------------------------------------------------------------
void FatFile::getpos(FatPos_t* pos) {
  pos->position = m_curPosition;
   d703e:	6946      	ldr	r6, [r0, #20]
  pos->cluster = m_curCluster;
   d7040:	6905      	ldr	r5, [r0, #16]
   d7042:	f7ff ff44 	bl	d6ece <_ZN7FatFile4readEPvj>
   d7046:	2801      	cmp	r0, #1
   d7048:	bf05      	ittet	eq
   d704a:	f89d 0007 	ldrbeq.w	r0, [sp, #7]
  m_curCluster = tmp;
  return false;
}
//------------------------------------------------------------------------------
void FatFile::setpos(FatPos_t* pos) {
  m_curPosition = pos->position;
   d704e:	6166      	streq	r6, [r4, #20]
   d7050:	f04f 30ff 	movne.w	r0, #4294967295
  m_curCluster = pos->cluster;
   d7054:	6125      	streq	r5, [r4, #16]
  int c = read();
  if (c >= 0) {
    setpos(&pos);
  }
  return c;
}
   d7056:	b002      	add	sp, #8
   d7058:	bd70      	pop	{r4, r5, r6, pc}

000d705a <_ZN7FatFile12readDirCacheEb>:
  }
}
//------------------------------------------------------------------------------
// Read next directory entry into the cache
// Assumes file is correctly positioned
dir_t* FatFile::readDirCache(bool skipReadOk) {
   d705a:	b537      	push	{r0, r1, r2, r4, r5, lr}
//  uint8_t b;
  uint8_t i = (m_curPosition >> 5) & 0XF;
   d705c:	6943      	ldr	r3, [r0, #20]
   d705e:	f3c3 1543 	ubfx	r5, r3, #5, #4
  }
}
//------------------------------------------------------------------------------
// Read next directory entry into the cache
// Assumes file is correctly positioned
dir_t* FatFile::readDirCache(bool skipReadOk) {
   d7062:	4604      	mov	r4, r0
//  uint8_t b;
  uint8_t i = (m_curPosition >> 5) & 0XF;

  if (i == 0 || !skipReadOk) {
   d7064:	b105      	cbz	r5, d7068 <_ZN7FatFile12readDirCacheEb+0xe>
   d7066:	b969      	cbnz	r1, d7084 <_ZN7FatFile12readDirCacheEb+0x2a>
    int8_t n = read(&n, 1);
   d7068:	2201      	movs	r2, #1
   d706a:	f10d 0107 	add.w	r1, sp, #7
   d706e:	4620      	mov	r0, r4
   d7070:	f7ff ff2d 	bl	d6ece <_ZN7FatFile4readEPvj>
   d7074:	b240      	sxtb	r0, r0
    if  (n != 1) {
   d7076:	2801      	cmp	r0, #1
   d7078:	d001      	beq.n	d707e <_ZN7FatFile12readDirCacheEb+0x24>
  }
  // return pointer to entry
  return m_vol->cacheAddress()->dir + i;

fail:
  return 0;
   d707a:	2000      	movs	r0, #0
   d707c:	e008      	b.n	d7090 <_ZN7FatFile12readDirCacheEb+0x36>
      if (n != 0) {
        DBG_FAIL_MACRO;
      }
      goto fail;
    }
    m_curPosition += 31;
   d707e:	6963      	ldr	r3, [r4, #20]
   d7080:	331f      	adds	r3, #31
   d7082:	e000      	b.n	d7086 <_ZN7FatFile12readDirCacheEb+0x2c>
  } else {
    m_curPosition += 32;
   d7084:	3320      	adds	r3, #32
  }
  // return pointer to entry
  return m_vol->cacheAddress()->dir + i;
   d7086:	68a0      	ldr	r0, [r4, #8]
      }
      goto fail;
    }
    m_curPosition += 31;
  } else {
    m_curPosition += 32;
   d7088:	6163      	str	r3, [r4, #20]
  }
  // return pointer to entry
  return m_vol->cacheAddress()->dir + i;
   d708a:	3030      	adds	r0, #48	; 0x30
   d708c:	eb00 1045 	add.w	r0, r0, r5, lsl #5

fail:
  return 0;
}
   d7090:	b003      	add	sp, #12
   d7092:	bd30      	pop	{r4, r5, pc}

000d7094 <_ZN7FatFile7seekSetEm>:

fail:
  return false;
}
//------------------------------------------------------------------------------
bool FatFile::seekSet(uint32_t pos) {
   d7094:	e92d 41f0 	stmdb	sp!, {r4, r5, r6, r7, r8, lr}
   d7098:	460e      	mov	r6, r1
   d709a:	7801      	ldrb	r1, [r0, #0]
  uint32_t nCur;
  uint32_t nNew;
  uint32_t tmp = m_curCluster;
   d709c:	6907      	ldr	r7, [r0, #16]

fail:
  return false;
}
//------------------------------------------------------------------------------
bool FatFile::seekSet(uint32_t pos) {
   d709e:	4604      	mov	r4, r0
  uint32_t nCur;
  uint32_t nNew;
  uint32_t tmp = m_curCluster;
  // error if file not open
  if (!isOpen()) {
   d70a0:	2900      	cmp	r1, #0
   d70a2:	d039      	beq.n	d7118 <_ZN7FatFile7seekSetEm+0x84>
    DBG_FAIL_MACRO;
    goto fail;
  }
  // Optimize O_APPEND writes.
  if (pos == m_curPosition) {
   d70a4:	6945      	ldr	r5, [r0, #20]
   d70a6:	42b5      	cmp	r5, r6
   d70a8:	d03a      	beq.n	d7120 <_ZN7FatFile7seekSetEm+0x8c>
    return true;
  }
  if (pos == 0) {
   d70aa:	b90e      	cbnz	r6, d70b0 <_ZN7FatFile7seekSetEm+0x1c>
    // set position to start of file
    m_curCluster = 0;
   d70ac:	6106      	str	r6, [r0, #16]
    goto done;
   d70ae:	e031      	b.n	d7114 <_ZN7FatFile7seekSetEm+0x80>
  }
  if (isFile()) {
   d70b0:	070b      	lsls	r3, r1, #28
   d70b2:	d503      	bpl.n	d70bc <_ZN7FatFile7seekSetEm+0x28>
    if (pos > m_fileSize) {
   d70b4:	69c3      	ldr	r3, [r0, #28]
   d70b6:	429e      	cmp	r6, r3
   d70b8:	d82e      	bhi.n	d7118 <_ZN7FatFile7seekSetEm+0x84>
   d70ba:	e007      	b.n	d70cc <_ZN7FatFile7seekSetEm+0x38>
      DBG_FAIL_MACRO;
      goto fail;
    }
  } else if (isRootFixed()) {
   d70bc:	0688      	lsls	r0, r1, #26
   d70be:	d505      	bpl.n	d70cc <_ZN7FatFile7seekSetEm+0x38>
   d70c0:	68a3      	ldr	r3, [r4, #8]
    if (pos <= 32*m_vol->rootDirEntryCount()) {
   d70c2:	891b      	ldrh	r3, [r3, #8]
   d70c4:	ebb6 1f43 	cmp.w	r6, r3, lsl #5
   d70c8:	d826      	bhi.n	d7118 <_ZN7FatFile7seekSetEm+0x84>
   d70ca:	e023      	b.n	d7114 <_ZN7FatFile7seekSetEm+0x80>
    }
    DBG_FAIL_MACRO;
    goto fail;
  }
  // calculate cluster index for cur and new position
  nCur = (m_curPosition - 1) >> (m_vol->clusterSizeShift() + 9);
   d70cc:	f8d4 e008 	ldr.w	lr, [r4, #8]
   d70d0:	f89e 3006 	ldrb.w	r3, [lr, #6]
   d70d4:	1e6a      	subs	r2, r5, #1
   d70d6:	f103 0009 	add.w	r0, r3, #9
  nNew = (pos - 1) >> (m_vol->clusterSizeShift() + 9);
   d70da:	1e73      	subs	r3, r6, #1
    }
    DBG_FAIL_MACRO;
    goto fail;
  }
  // calculate cluster index for cur and new position
  nCur = (m_curPosition - 1) >> (m_vol->clusterSizeShift() + 9);
   d70dc:	40c2      	lsrs	r2, r0
  nNew = (pos - 1) >> (m_vol->clusterSizeShift() + 9);
   d70de:	40c3      	lsrs	r3, r0

  if (nNew < nCur || m_curPosition == 0) {
   d70e0:	429a      	cmp	r2, r3
   d70e2:	d800      	bhi.n	d70e6 <_ZN7FatFile7seekSetEm+0x52>
   d70e4:	b94d      	cbnz	r5, d70fa <_ZN7FatFile7seekSetEm+0x66>
    // must follow chain from first cluster
    m_curCluster = isRoot32() ? m_vol->rootDirStart() : m_firstCluster;
   d70e6:	064a      	lsls	r2, r1, #25
   d70e8:	bf4c      	ite	mi
   d70ea:	f8de 2020 	ldrmi.w	r2, [lr, #32]
   d70ee:	6a22      	ldrpl	r2, [r4, #32]
   d70f0:	6122      	str	r2, [r4, #16]
   d70f2:	461d      	mov	r5, r3
  } else {
    // advance from curPosition
    nNew -= nCur;
  }
  while (nNew--) {
    if (m_vol->fatGet(m_curCluster, &m_curCluster) <= 0) {
   d70f4:	f104 0810 	add.w	r8, r4, #16
   d70f8:	e00a      	b.n	d7110 <_ZN7FatFile7seekSetEm+0x7c>
  if (nNew < nCur || m_curPosition == 0) {
    // must follow chain from first cluster
    m_curCluster = isRoot32() ? m_vol->rootDirStart() : m_firstCluster;
  } else {
    // advance from curPosition
    nNew -= nCur;
   d70fa:	1a9b      	subs	r3, r3, r2
   d70fc:	e7f9      	b.n	d70f2 <_ZN7FatFile7seekSetEm+0x5e>
  }
  while (nNew--) {
    if (m_vol->fatGet(m_curCluster, &m_curCluster) <= 0) {
   d70fe:	4642      	mov	r2, r8
   d7100:	6921      	ldr	r1, [r4, #16]
   d7102:	68a0      	ldr	r0, [r4, #8]
   d7104:	f000 fa8f 	bl	d7626 <_ZN9FatVolume6fatGetEmPm>
   d7108:	2800      	cmp	r0, #0
   d710a:	f105 35ff 	add.w	r5, r5, #4294967295
   d710e:	dd03      	ble.n	d7118 <_ZN7FatFile7seekSetEm+0x84>
    m_curCluster = isRoot32() ? m_vol->rootDirStart() : m_firstCluster;
  } else {
    // advance from curPosition
    nNew -= nCur;
  }
  while (nNew--) {
   d7110:	2d00      	cmp	r5, #0
   d7112:	d1f4      	bne.n	d70fe <_ZN7FatFile7seekSetEm+0x6a>
      goto fail;
    }
  }

done:
  m_curPosition = pos;
   d7114:	6166      	str	r6, [r4, #20]
   d7116:	e003      	b.n	d7120 <_ZN7FatFile7seekSetEm+0x8c>
  return true;

fail:
  m_curCluster = tmp;
   d7118:	6127      	str	r7, [r4, #16]
  return false;
   d711a:	2000      	movs	r0, #0
   d711c:	e8bd 81f0 	ldmia.w	sp!, {r4, r5, r6, r7, r8, pc}
    DBG_FAIL_MACRO;
    goto fail;
  }
  // Optimize O_APPEND writes.
  if (pos == m_curPosition) {
    return true;
   d7120:	2001      	movs	r0, #1
  return true;

fail:
  m_curCluster = tmp;
  return false;
}
   d7122:	e8bd 81f0 	ldmia.w	sp!, {r4, r5, r6, r7, r8, pc}

000d7126 <_ZN7FatFile15openCachedEntryEPS_tih>:
}
//------------------------------------------------------------------------------
// open a cached directory entry.

bool FatFile::openCachedEntry(FatFile* dirFile, uint16_t dirIndex,
                              oflag_t oflag, uint8_t lfnOrd) {
   d7126:	b5f8      	push	{r3, r4, r5, r6, r7, lr}
   d7128:	460f      	mov	r7, r1
   d712a:	4615      	mov	r5, r2
  uint32_t firstCluster;
  memset(this, 0, sizeof(FatFile));
   d712c:	2100      	movs	r1, #0
   d712e:	2224      	movs	r2, #36	; 0x24
}
//------------------------------------------------------------------------------
// open a cached directory entry.

bool FatFile::openCachedEntry(FatFile* dirFile, uint16_t dirIndex,
                              oflag_t oflag, uint8_t lfnOrd) {
   d7130:	4604      	mov	r4, r0
   d7132:	461e      	mov	r6, r3
  uint32_t firstCluster;
  memset(this, 0, sizeof(FatFile));
   d7134:	f004 f956 	bl	db3e4 <memset>
  // location of entry in cache
  m_vol = dirFile->m_vol;
   d7138:	68b8      	ldr	r0, [r7, #8]
   d713a:	60a0      	str	r0, [r4, #8]
  m_dirIndex = dirIndex;
  m_dirCluster = dirFile->m_firstCluster;
  dir_t* dir = &m_vol->cacheAddress()->dir[0XF & dirIndex];
   d713c:	f005 020f 	and.w	r2, r5, #15
                              oflag_t oflag, uint8_t lfnOrd) {
  uint32_t firstCluster;
  memset(this, 0, sizeof(FatFile));
  // location of entry in cache
  m_vol = dirFile->m_vol;
  m_dirIndex = dirIndex;
   d7140:	80a5      	strh	r5, [r4, #4]
  m_dirCluster = dirFile->m_firstCluster;
  dir_t* dir = &m_vol->cacheAddress()->dir[0XF & dirIndex];
   d7142:	f100 0130 	add.w	r1, r0, #48	; 0x30
   d7146:	0152      	lsls	r2, r2, #5
  uint32_t firstCluster;
  memset(this, 0, sizeof(FatFile));
  // location of entry in cache
  m_vol = dirFile->m_vol;
  m_dirIndex = dirIndex;
  m_dirCluster = dirFile->m_firstCluster;
   d7148:	6a3b      	ldr	r3, [r7, #32]
   d714a:	60e3      	str	r3, [r4, #12]
  dir_t* dir = &m_vol->cacheAddress()->dir[0XF & dirIndex];
   d714c:	4411      	add	r1, r2

  // Must be file or subdirectory.
  if (!DIR_IS_FILE_OR_SUBDIR(dir)) {
   d714e:	7acb      	ldrb	r3, [r1, #11]
   d7150:	071d      	lsls	r5, r3, #28
   d7152:	d44c      	bmi.n	d71ee <_ZN7FatFile15openCachedEntryEPS_tih+0xc8>
    DBG_FAIL_MACRO;
    goto fail;
  }
  m_attr = dir->attributes & FILE_ATTR_COPY;
   d7154:	1883      	adds	r3, r0, r2
   d7156:	f893 303b 	ldrb.w	r3, [r3, #59]	; 0x3b
   d715a:	f003 0317 	and.w	r3, r3, #23
   d715e:	7023      	strb	r3, [r4, #0]
  if (DIR_IS_FILE(dir)) {
   d7160:	7ac9      	ldrb	r1, [r1, #11]
   d7162:	f011 0f18 	tst.w	r1, #24
    m_attr |= FILE_ATTR_FILE;
   d7166:	bf04      	itt	eq
   d7168:	f043 0308 	orreq.w	r3, r3, #8
   d716c:	7023      	strbeq	r3, [r4, #0]
  }
  m_lfnOrd = lfnOrd;
   d716e:	f89d 3018 	ldrb.w	r3, [sp, #24]
   d7172:	70e3      	strb	r3, [r4, #3]

  switch (oflag & O_ACCMODE) {
   d7174:	f006 0303 	and.w	r3, r6, #3
   d7178:	2b01      	cmp	r3, #1
   d717a:	d009      	beq.n	d7190 <_ZN7FatFile15openCachedEntryEPS_tih+0x6a>
   d717c:	2b02      	cmp	r3, #2
   d717e:	d005      	beq.n	d718c <_ZN7FatFile15openCachedEntryEPS_tih+0x66>
   d7180:	2b00      	cmp	r3, #0
   d7182:	d134      	bne.n	d71ee <_ZN7FatFile15openCachedEntryEPS_tih+0xc8>
    case O_RDONLY:
      if (oflag & O_TRUNC) {
   d7184:	0571      	lsls	r1, r6, #21
   d7186:	d432      	bmi.n	d71ee <_ZN7FatFile15openCachedEntryEPS_tih+0xc8>
        DBG_FAIL_MACRO;
        goto fail;
      }
      m_flags = F_READ;
   d7188:	2301      	movs	r3, #1
   d718a:	e002      	b.n	d7192 <_ZN7FatFile15openCachedEntryEPS_tih+0x6c>
      break;

    case O_RDWR:
      m_flags = F_READ | F_WRITE;
   d718c:	2303      	movs	r3, #3
   d718e:	e000      	b.n	d7192 <_ZN7FatFile15openCachedEntryEPS_tih+0x6c>
      break;

    case O_WRONLY:
      m_flags = F_WRITE;
   d7190:	2302      	movs	r3, #2
   d7192:	70a3      	strb	r3, [r4, #2]
    default:
      DBG_FAIL_MACRO;
      goto fail;
  }

  if (m_flags & F_WRITE) {
   d7194:	78a1      	ldrb	r1, [r4, #2]
   d7196:	078b      	lsls	r3, r1, #30
   d7198:	d503      	bpl.n	d71a2 <_ZN7FatFile15openCachedEntryEPS_tih+0x7c>
    if (isSubDir() || isReadOnly()) {
   d719a:	7823      	ldrb	r3, [r4, #0]
   d719c:	f013 0f11 	tst.w	r3, #17
   d71a0:	d125      	bne.n	d71ee <_ZN7FatFile15openCachedEntryEPS_tih+0xc8>
      DBG_FAIL_MACRO;
      goto fail;
    }
  }

  m_flags |= (oflag & O_APPEND ? F_APPEND : 0) | (oflag & O_SYNC ? F_SYNC : 0);
   d71a2:	b24b      	sxtb	r3, r1
   d71a4:	f416 5f00 	tst.w	r6, #8192	; 0x2000
   d71a8:	f006 0108 	and.w	r1, r6, #8
   d71ac:	bf14      	ite	ne
   d71ae:	f06f 077f 	mvnne.w	r7, #127	; 0x7f
   d71b2:	2700      	moveq	r7, #0
   d71b4:	4319      	orrs	r1, r3
   d71b6:	4339      	orrs	r1, r7
   d71b8:	70a1      	strb	r1, [r4, #2]
   d71ba:	6ac3      	ldr	r3, [r0, #44]	; 0x2c

  m_dirBlock = m_vol->cacheBlockNumber();
   d71bc:	61a3      	str	r3, [r4, #24]

  // copy first cluster number for directory fields
  firstCluster = ((uint32_t)dir->firstClusterHigh << 16)
   d71be:	4402      	add	r2, r0
                 | dir->firstClusterLow;

  if (oflag & O_TRUNC) {
   d71c0:	0575      	lsls	r5, r6, #21

  m_dirBlock = m_vol->cacheBlockNumber();

  // copy first cluster number for directory fields
  firstCluster = ((uint32_t)dir->firstClusterHigh << 16)
                 | dir->firstClusterLow;
   d71c2:	f8b2 1044 	ldrh.w	r1, [r2, #68]	; 0x44
   d71c6:	f8b2 304a 	ldrh.w	r3, [r2, #74]	; 0x4a
   d71ca:	ea43 4101 	orr.w	r1, r3, r1, lsl #16

  if (oflag & O_TRUNC) {
   d71ce:	d504      	bpl.n	d71da <_ZN7FatFile15openCachedEntryEPS_tih+0xb4>
    if (firstCluster && !m_vol->freeChain(firstCluster)) {
   d71d0:	b181      	cbz	r1, d71f4 <_ZN7FatFile15openCachedEntryEPS_tih+0xce>
   d71d2:	f000 fac8 	bl	d7766 <_ZN9FatVolume9freeChainEm>
   d71d6:	b968      	cbnz	r0, d71f4 <_ZN7FatFile15openCachedEntryEPS_tih+0xce>
   d71d8:	e009      	b.n	d71ee <_ZN7FatFile15openCachedEntryEPS_tih+0xc8>
      goto fail;
    }
    // need to update directory entry
    m_flags |= F_FILE_DIR_DIRTY;
  } else {
    m_firstCluster = firstCluster;
   d71da:	6221      	str	r1, [r4, #32]
    m_fileSize = dir->fileSize;
   d71dc:	6cd3      	ldr	r3, [r2, #76]	; 0x4c
   d71de:	61e3      	str	r3, [r4, #28]
  }
  if ((oflag & O_AT_END) && !seekSet(m_fileSize)) {
   d71e0:	0473      	lsls	r3, r6, #17
   d71e2:	d50c      	bpl.n	d71fe <_ZN7FatFile15openCachedEntryEPS_tih+0xd8>
   d71e4:	69e1      	ldr	r1, [r4, #28]
   d71e6:	4620      	mov	r0, r4
   d71e8:	f7ff ff54 	bl	d7094 <_ZN7FatFile7seekSetEm>
   d71ec:	b938      	cbnz	r0, d71fe <_ZN7FatFile15openCachedEntryEPS_tih+0xd8>
    goto fail;
  }
  return true;

fail:
  m_attr = FILE_ATTR_CLOSED;
   d71ee:	2000      	movs	r0, #0
   d71f0:	7020      	strb	r0, [r4, #0]
  return false;
   d71f2:	bdf8      	pop	{r3, r4, r5, r6, r7, pc}
    if (firstCluster && !m_vol->freeChain(firstCluster)) {
      DBG_FAIL_MACRO;
      goto fail;
    }
    // need to update directory entry
    m_flags |= F_FILE_DIR_DIRTY;
   d71f4:	78a3      	ldrb	r3, [r4, #2]
   d71f6:	f043 0304 	orr.w	r3, r3, #4
   d71fa:	70a3      	strb	r3, [r4, #2]
   d71fc:	e7f0      	b.n	d71e0 <_ZN7FatFile15openCachedEntryEPS_tih+0xba>
  }
  if ((oflag & O_AT_END) && !seekSet(m_fileSize)) {
    DBG_FAIL_MACRO;
    goto fail;
  }
  return true;
   d71fe:	2001      	movs	r0, #1

fail:
  m_attr = FILE_ATTR_CLOSED;
  return false;
}
   d7200:	bdf8      	pop	{r3, r4, r5, r6, r7, pc}

000d7202 <_ZN7FatFile8openNextEPS_i>:
  *this = *cwd();
  rewind();
  return true;
}
//------------------------------------------------------------------------------
bool FatFile::openNext(FatFile* dirFile, oflag_t oflag) {
   d7202:	e92d 43f7 	stmdb	sp!, {r0, r1, r2, r4, r5, r6, r7, r8, r9, lr}
  ldir_t* ldir;
  uint8_t lfnOrd = 0;
  uint16_t index;

  // Check for not open and valid directory..
  if (isOpen() || !dirFile->isDir() || (dirFile->curPosition() & 0X1F)) {
   d7206:	7803      	ldrb	r3, [r0, #0]
  *this = *cwd();
  rewind();
  return true;
}
//------------------------------------------------------------------------------
bool FatFile::openNext(FatFile* dirFile, oflag_t oflag) {
   d7208:	4606      	mov	r6, r0
   d720a:	460d      	mov	r5, r1
   d720c:	4617      	mov	r7, r2
  ldir_t* ldir;
  uint8_t lfnOrd = 0;
  uint16_t index;

  // Check for not open and valid directory..
  if (isOpen() || !dirFile->isDir() || (dirFile->curPosition() & 0X1F)) {
   d720e:	bb53      	cbnz	r3, d7266 <_ZN7FatFile8openNextEPS_i+0x64>
   d7210:	780b      	ldrb	r3, [r1, #0]
   d7212:	f013 0f70 	tst.w	r3, #112	; 0x70
   d7216:	d026      	beq.n	d7266 <_ZN7FatFile8openNextEPS_i+0x64>
   d7218:	694c      	ldr	r4, [r1, #20]
   d721a:	f014 041f 	ands.w	r4, r4, #31
   d721e:	d122      	bne.n	d7266 <_ZN7FatFile8openNextEPS_i+0x64>
   d7220:	46a0      	mov	r8, r4
    goto fail;
  }
  while (1) {
    // read entry into cache
    index = dirFile->curPosition()/32;
    dir_t* dir = dirFile->readDirCache();
   d7222:	2100      	movs	r1, #0
   d7224:	4628      	mov	r0, r5
   d7226:	f8d5 9014 	ldr.w	r9, [r5, #20]
   d722a:	f7ff ff16 	bl	d705a <_ZN7FatFile12readDirCacheEb>
    if (!dir) {
   d722e:	b1d0      	cbz	r0, d7266 <_ZN7FatFile8openNextEPS_i+0x64>
        DBG_FAIL_MACRO;
      }
      goto fail;
    }
    // done if last entry
    if (dir->name[0] == DIR_NAME_FREE) {
   d7230:	7803      	ldrb	r3, [r0, #0]
   d7232:	b1c3      	cbz	r3, d7266 <_ZN7FatFile8openNextEPS_i+0x64>
      goto fail;
    }
    // skip empty slot or '.' or '..'
    if (dir->name[0] == '.' || dir->name[0] == DIR_NAME_DELETED) {
   d7234:	2b2e      	cmp	r3, #46	; 0x2e
   d7236:	d101      	bne.n	d723c <_ZN7FatFile8openNextEPS_i+0x3a>
      if (ldir->ord & LDIR_ORD_LAST_LONG_ENTRY) {
        lfnOrd = ldir->ord & 0X1F;
        chksum = ldir->chksum;
      }
    } else {
      lfnOrd = 0;
   d7238:	2400      	movs	r4, #0
   d723a:	e7f2      	b.n	d7222 <_ZN7FatFile8openNextEPS_i+0x20>
    // done if last entry
    if (dir->name[0] == DIR_NAME_FREE) {
      goto fail;
    }
    // skip empty slot or '.' or '..'
    if (dir->name[0] == '.' || dir->name[0] == DIR_NAME_DELETED) {
   d723c:	2be5      	cmp	r3, #229	; 0xe5
   d723e:	d0fb      	beq.n	d7238 <_ZN7FatFile8openNextEPS_i+0x36>
   d7240:	7ac1      	ldrb	r1, [r0, #11]
      lfnOrd = 0;
    } else if (DIR_IS_FILE_OR_SUBDIR(dir)) {
   d7242:	f011 0f08 	tst.w	r1, #8
   d7246:	d105      	bne.n	d7254 <_ZN7FatFile8openNextEPS_i+0x52>
      if (lfnOrd && chksum != lfnChecksum(dir->name)) {
   d7248:	b17c      	cbz	r4, d726a <_ZN7FatFile8openNextEPS_i+0x68>
   d724a:	f7ff fa07 	bl	d665c <_ZN7FatFile11lfnChecksumEPh>
   d724e:	4580      	cmp	r8, r0
   d7250:	d109      	bne.n	d7266 <_ZN7FatFile8openNextEPS_i+0x64>
   d7252:	e00a      	b.n	d726a <_ZN7FatFile8openNextEPS_i+0x68>
      if (!openCachedEntry(dirFile, index, oflag, lfnOrd)) {
        DBG_FAIL_MACRO;
        goto fail;
      }
      return true;
    } else if (DIR_IS_LONG_NAME(dir)) {
   d7254:	290f      	cmp	r1, #15
   d7256:	d1ef      	bne.n	d7238 <_ZN7FatFile8openNextEPS_i+0x36>
      ldir = reinterpret_cast<ldir_t*>(dir);
      if (ldir->ord & LDIR_ORD_LAST_LONG_ENTRY) {
   d7258:	0659      	lsls	r1, r3, #25
   d725a:	d5e2      	bpl.n	d7222 <_ZN7FatFile8openNextEPS_i+0x20>
        lfnOrd = ldir->ord & 0X1F;
   d725c:	f003 041f 	and.w	r4, r3, #31
        chksum = ldir->chksum;
   d7260:	f890 800d 	ldrb.w	r8, [r0, #13]
   d7264:	e7dd      	b.n	d7222 <_ZN7FatFile8openNextEPS_i+0x20>
      lfnOrd = 0;
    }
  }

fail:
  return false;
   d7266:	2000      	movs	r0, #0
   d7268:	e007      	b.n	d727a <_ZN7FatFile8openNextEPS_i+0x78>
    } else if (DIR_IS_FILE_OR_SUBDIR(dir)) {
      if (lfnOrd && chksum != lfnChecksum(dir->name)) {
        DBG_FAIL_MACRO;
        goto fail;
      }
      if (!openCachedEntry(dirFile, index, oflag, lfnOrd)) {
   d726a:	9400      	str	r4, [sp, #0]
   d726c:	463b      	mov	r3, r7
   d726e:	f3c9 124f 	ubfx	r2, r9, #5, #16
   d7272:	4629      	mov	r1, r5
   d7274:	4630      	mov	r0, r6
   d7276:	f7ff ff56 	bl	d7126 <_ZN7FatFile15openCachedEntryEPS_tih>
    }
  }

fail:
  return false;
}
   d727a:	b003      	add	sp, #12
   d727c:	e8bd 83f0 	ldmia.w	sp!, {r4, r5, r6, r7, r8, r9, pc}

000d7280 <_ZN7FatFile4syncEv>:
void FatFile::setpos(FatPos_t* pos) {
  m_curPosition = pos->position;
  m_curCluster = pos->cluster;
}
//------------------------------------------------------------------------------
bool FatFile::sync() {
   d7280:	b538      	push	{r3, r4, r5, lr}
  if (!isOpen()) {
   d7282:	7803      	ldrb	r3, [r0, #0]
void FatFile::setpos(FatPos_t* pos) {
  m_curPosition = pos->position;
  m_curCluster = pos->cluster;
}
//------------------------------------------------------------------------------
bool FatFile::sync() {
   d7284:	4604      	mov	r4, r0
  if (!isOpen()) {
   d7286:	b90b      	cbnz	r3, d728c <_ZN7FatFile4syncEv+0xc>
    return true;
   d7288:	2001      	movs	r0, #1
   d728a:	bd38      	pop	{r3, r4, r5, pc}
  }
  if (m_flags & F_FILE_DIR_DIRTY) {
   d728c:	7883      	ldrb	r3, [r0, #2]
   d728e:	075a      	lsls	r2, r3, #29
   d7290:	d523      	bpl.n	d72da <_ZN7FatFile4syncEv+0x5a>
    dir_t* dir = cacheDirEntry(FatCache::CACHE_FOR_WRITE);
   d7292:	2101      	movs	r1, #1
   d7294:	f7ff fdca 	bl	d6e2c <_ZN7FatFile13cacheDirEntryEh>
    // check for deleted by another open file object
    if (!dir || dir->name[0] == DIR_NAME_DELETED) {
   d7298:	4605      	mov	r5, r0
   d729a:	b928      	cbnz	r0, d72a8 <_ZN7FatFile4syncEv+0x28>
    return true;
  }
  DBG_FAIL_MACRO;

fail:
  m_error |= WRITE_ERROR;
   d729c:	7863      	ldrb	r3, [r4, #1]
   d729e:	f043 0301 	orr.w	r3, r3, #1
   d72a2:	7063      	strb	r3, [r4, #1]
  return false;
   d72a4:	2000      	movs	r0, #0
   d72a6:	bd38      	pop	{r3, r4, r5, pc}
    return true;
  }
  if (m_flags & F_FILE_DIR_DIRTY) {
    dir_t* dir = cacheDirEntry(FatCache::CACHE_FOR_WRITE);
    // check for deleted by another open file object
    if (!dir || dir->name[0] == DIR_NAME_DELETED) {
   d72a8:	7803      	ldrb	r3, [r0, #0]
   d72aa:	2be5      	cmp	r3, #229	; 0xe5
   d72ac:	d0f6      	beq.n	d729c <_ZN7FatFile4syncEv+0x1c>
      DBG_FAIL_MACRO;
      goto fail;
    }
    // do not set filesize for dir files
    if (isFile()) {
   d72ae:	7823      	ldrb	r3, [r4, #0]
   d72b0:	071b      	lsls	r3, r3, #28
      dir->fileSize = m_fileSize;
   d72b2:	bf44      	itt	mi
   d72b4:	69e3      	ldrmi	r3, [r4, #28]
   d72b6:	61c3      	strmi	r3, [r0, #28]
    }

    // update first cluster fields
    dir->firstClusterLow = m_firstCluster & 0XFFFF;
   d72b8:	8c23      	ldrh	r3, [r4, #32]
   d72ba:	8343      	strh	r3, [r0, #26]
    dir->firstClusterHigh = m_firstCluster >> 16;
   d72bc:	8c63      	ldrh	r3, [r4, #34]	; 0x22
   d72be:	8283      	strh	r3, [r0, #20]

    // set modify time if user supplied a callback date/time function
    if (m_dateTime) {
   d72c0:	4b09      	ldr	r3, [pc, #36]	; (d72e8 <_ZN7FatFile4syncEv+0x68>)
   d72c2:	681b      	ldr	r3, [r3, #0]
   d72c4:	b12b      	cbz	r3, d72d2 <_ZN7FatFile4syncEv+0x52>
      m_dateTime(&dir->lastWriteDate, &dir->lastWriteTime);
   d72c6:	f100 0116 	add.w	r1, r0, #22
   d72ca:	3018      	adds	r0, #24
   d72cc:	4798      	blx	r3
      dir->lastAccessDate = dir->lastWriteDate;
   d72ce:	8b2b      	ldrh	r3, [r5, #24]
   d72d0:	826b      	strh	r3, [r5, #18]
    }
    // clear directory dirty
    m_flags &= ~F_FILE_DIR_DIRTY;
   d72d2:	78a3      	ldrb	r3, [r4, #2]
   d72d4:	f023 0304 	bic.w	r3, r3, #4
   d72d8:	70a3      	strb	r3, [r4, #2]
  }
  if (m_vol->cacheSync()) {
   d72da:	68a0      	ldr	r0, [r4, #8]
   d72dc:	f7ff f9b1 	bl	d6642 <_ZN9FatVolume9cacheSyncEv>
   d72e0:	2800      	cmp	r0, #0
   d72e2:	d0db      	beq.n	d729c <_ZN7FatFile4syncEv+0x1c>
   d72e4:	e7d0      	b.n	d7288 <_ZN7FatFile4syncEv+0x8>
   d72e6:	bf00      	nop
   d72e8:	2003e020 	.word	0x2003e020

000d72ec <_ZN7FatFile5closeEv>:

fail:
  return 0;
}
//------------------------------------------------------------------------------
bool FatFile::close() {
   d72ec:	b510      	push	{r4, lr}
   d72ee:	4604      	mov	r4, r0
  bool rtn = sync();
   d72f0:	f7ff ffc6 	bl	d7280 <_ZN7FatFile4syncEv>
  m_attr = FILE_ATTR_CLOSED;
   d72f4:	2300      	movs	r3, #0
   d72f6:	7023      	strb	r3, [r4, #0]
  return rtn;
}
   d72f8:	bd10      	pop	{r4, pc}

000d72fa <_ZN7FatFile4openEPS_PKci>:
//------------------------------------------------------------------------------
bool FatFile::open(FatFileSystem* fs, const char* path, oflag_t oflag) {
  return open(fs->vwd(), path, oflag);
}
//------------------------------------------------------------------------------
bool FatFile::open(FatFile* dirFile, const char* path, oflag_t oflag) {
   d72fa:	b5f0      	push	{r4, r5, r6, r7, lr}
   d72fc:	b093      	sub	sp, #76	; 0x4c
   d72fe:	461f      	mov	r7, r3
 * \brief Basic file class.
 */
class FatFile {
 public:
  /** Create an instance. */
  FatFile() : m_attr(FILE_ATTR_CLOSED), m_error(0) {}
   d7300:	2300      	movs	r3, #0
   d7302:	f88d 3024 	strb.w	r3, [sp, #36]	; 0x24
   d7306:	f88d 3025 	strb.w	r3, [sp, #37]	; 0x25
  FatFile tmpDir;
  fname_t fname;

  // error if already open
  if (isOpen() || !dirFile->isDir()) {
   d730a:	7803      	ldrb	r3, [r0, #0]
//------------------------------------------------------------------------------
bool FatFile::open(FatFileSystem* fs, const char* path, oflag_t oflag) {
  return open(fs->vwd(), path, oflag);
}
//------------------------------------------------------------------------------
bool FatFile::open(FatFile* dirFile, const char* path, oflag_t oflag) {
   d730c:	9201      	str	r2, [sp, #4]
   d730e:	4606      	mov	r6, r0
   d7310:	460c      	mov	r4, r1
  FatFile tmpDir;
  fname_t fname;

  // error if already open
  if (isOpen() || !dirFile->isDir()) {
   d7312:	b10b      	cbz	r3, d7318 <_ZN7FatFile4openEPS_PKci+0x1e>
    close();
  }
  return open(dirFile, &fname, oflag);

fail:
  return false;
   d7314:	2000      	movs	r0, #0
   d7316:	e03d      	b.n	d7394 <_ZN7FatFile4openEPS_PKci+0x9a>
bool FatFile::open(FatFile* dirFile, const char* path, oflag_t oflag) {
  FatFile tmpDir;
  fname_t fname;

  // error if already open
  if (isOpen() || !dirFile->isDir()) {
   d7318:	780b      	ldrb	r3, [r1, #0]
   d731a:	f013 0f70 	tst.w	r3, #112	; 0x70
   d731e:	d0f9      	beq.n	d7314 <_ZN7FatFile4openEPS_PKci+0x1a>
    DBG_FAIL_MACRO;
    goto fail;
  }
  if (isDirSeparator(*path)) {
   d7320:	7813      	ldrb	r3, [r2, #0]
   d7322:	2b2f      	cmp	r3, #47	; 0x2f
   d7324:	d112      	bne.n	d734c <_ZN7FatFile4openEPS_PKci+0x52>
    while (isDirSeparator(*path)) {
   d7326:	9b01      	ldr	r3, [sp, #4]
   d7328:	781a      	ldrb	r2, [r3, #0]
   d732a:	2a2f      	cmp	r2, #47	; 0x2f
   d732c:	d102      	bne.n	d7334 <_ZN7FatFile4openEPS_PKci+0x3a>
      path++;
   d732e:	3301      	adds	r3, #1
   d7330:	9301      	str	r3, [sp, #4]
  if (isOpen() || !dirFile->isDir()) {
    DBG_FAIL_MACRO;
    goto fail;
  }
  if (isDirSeparator(*path)) {
    while (isDirSeparator(*path)) {
   d7332:	e7f8      	b.n	d7326 <_ZN7FatFile4openEPS_PKci+0x2c>
      path++;
    }
    if (*path == 0) {
      return openRoot(dirFile->m_vol);
   d7334:	68a1      	ldr	r1, [r4, #8]
  }
  if (isDirSeparator(*path)) {
    while (isDirSeparator(*path)) {
      path++;
    }
    if (*path == 0) {
   d7336:	b91a      	cbnz	r2, d7340 <_ZN7FatFile4openEPS_PKci+0x46>
      return openRoot(dirFile->m_vol);
   d7338:	4630      	mov	r0, r6
   d733a:	f7ff fdb0 	bl	d6e9e <_ZN7FatFile8openRootEP9FatVolume>
   d733e:	e029      	b.n	d7394 <_ZN7FatFile4openEPS_PKci+0x9a>
    }
    if (!tmpDir.openRoot(dirFile->m_vol)) {
   d7340:	a809      	add	r0, sp, #36	; 0x24
   d7342:	f7ff fdac 	bl	d6e9e <_ZN7FatFile8openRootEP9FatVolume>
   d7346:	2800      	cmp	r0, #0
   d7348:	d0e4      	beq.n	d7314 <_ZN7FatFile4openEPS_PKci+0x1a>
      DBG_FAIL_MACRO;
      goto fail;
    }
    dirFile = &tmpDir;
   d734a:	ac09      	add	r4, sp, #36	; 0x24
  }
  while (1) {
    if (!parsePathName(path, &fname, &path)) {
   d734c:	aa01      	add	r2, sp, #4
   d734e:	a903      	add	r1, sp, #12
   d7350:	9801      	ldr	r0, [sp, #4]
   d7352:	f7ff f9a9 	bl	d66a8 <_ZN7FatFile13parsePathNameEPKcP7fname_tPS1_>
   d7356:	2800      	cmp	r0, #0
   d7358:	d0dc      	beq.n	d7314 <_ZN7FatFile4openEPS_PKci+0x1a>
      DBG_FAIL_MACRO;
      goto fail;
    }
    if (*path == 0) {
   d735a:	9b01      	ldr	r3, [sp, #4]
   d735c:	781b      	ldrb	r3, [r3, #0]
   d735e:	b19b      	cbz	r3, d7388 <_ZN7FatFile4openEPS_PKci+0x8e>
      break;
    }
    if (!open(dirFile, &fname, O_RDONLY)) {
   d7360:	2300      	movs	r3, #0
   d7362:	aa03      	add	r2, sp, #12
   d7364:	4621      	mov	r1, r4
   d7366:	4630      	mov	r0, r6
   d7368:	f7ff fb42 	bl	d69f0 <_ZN7FatFile4openEPS_P7fname_ti>
   d736c:	2800      	cmp	r0, #0
   d736e:	d0d1      	beq.n	d7314 <_ZN7FatFile4openEPS_PKci+0x1a>
      DBG_FAIL_MACRO;
      goto fail;
    }
    tmpDir = *this;
   d7370:	4635      	mov	r5, r6
   d7372:	cd0f      	ldmia	r5!, {r0, r1, r2, r3}
   d7374:	ac09      	add	r4, sp, #36	; 0x24
   d7376:	c40f      	stmia	r4!, {r0, r1, r2, r3}
   d7378:	cd0f      	ldmia	r5!, {r0, r1, r2, r3}
   d737a:	c40f      	stmia	r4!, {r0, r1, r2, r3}
   d737c:	682b      	ldr	r3, [r5, #0]
   d737e:	6023      	str	r3, [r4, #0]
    dirFile = &tmpDir;
    close();
   d7380:	4630      	mov	r0, r6
   d7382:	f7ff ffb3 	bl	d72ec <_ZN7FatFile5closeEv>
   d7386:	e7e0      	b.n	d734a <_ZN7FatFile4openEPS_PKci+0x50>
  }
  return open(dirFile, &fname, oflag);
   d7388:	463b      	mov	r3, r7
   d738a:	aa03      	add	r2, sp, #12
   d738c:	4621      	mov	r1, r4
   d738e:	4630      	mov	r0, r6
   d7390:	f7ff fb2e 	bl	d69f0 <_ZN7FatFile4openEPS_P7fname_ti>

fail:
  return false;
}
   d7394:	b013      	add	sp, #76	; 0x4c
   d7396:	bdf0      	pop	{r4, r5, r6, r7, pc}

000d7398 <_ZN7FatFile6removeEPS_PKc>:

fail:
  return 0;
}
//------------------------------------------------------------------------------
bool FatFile::remove(FatFile* dirFile, const char* path) {
   d7398:	b500      	push	{lr}
   d739a:	b08b      	sub	sp, #44	; 0x2c
   d739c:	2300      	movs	r3, #0
   d739e:	f88d 3004 	strb.w	r3, [sp, #4]
   d73a2:	f88d 3005 	strb.w	r3, [sp, #5]
  FatFile file;
  if (!file.open(dirFile, path, O_WRONLY)) {
   d73a6:	460a      	mov	r2, r1
   d73a8:	2301      	movs	r3, #1
   d73aa:	4601      	mov	r1, r0
   d73ac:	a801      	add	r0, sp, #4
   d73ae:	f7ff ffa4 	bl	d72fa <_ZN7FatFile4openEPS_PKci>
   d73b2:	b110      	cbz	r0, d73ba <_ZN7FatFile6removeEPS_PKc+0x22>
    DBG_FAIL_MACRO;
    goto fail;
  }
  return file.remove();
   d73b4:	a801      	add	r0, sp, #4
   d73b6:	f7ff fa63 	bl	d6880 <_ZN7FatFile6removeEv>

fail:
  return false;
}
   d73ba:	b00b      	add	sp, #44	; 0x2c
   d73bc:	f85d fb04 	ldr.w	pc, [sp], #4

000d73c0 <_ZN7FatFile5writeEPKvj>:

fail:
  return false;
}
//------------------------------------------------------------------------------
int FatFile::write(const void* buf, size_t nbyte) {
   d73c0:	e92d 47f0 	stmdb	sp!, {r4, r5, r6, r7, r8, r9, sl, lr}
  uint8_t cacheOption;
  // number of bytes left to write  -  must be before goto statements
  size_t nToWrite = nbyte;
  size_t n;
  // error if not a normal file or is read-only
  if (!isFile() || !(m_flags & F_WRITE)) {
   d73c4:	7803      	ldrb	r3, [r0, #0]

fail:
  return false;
}
//------------------------------------------------------------------------------
int FatFile::write(const void* buf, size_t nbyte) {
   d73c6:	4689      	mov	r9, r1
  uint8_t cacheOption;
  // number of bytes left to write  -  must be before goto statements
  size_t nToWrite = nbyte;
  size_t n;
  // error if not a normal file or is read-only
  if (!isFile() || !(m_flags & F_WRITE)) {
   d73c8:	0719      	lsls	r1, r3, #28

fail:
  return false;
}
//------------------------------------------------------------------------------
int FatFile::write(const void* buf, size_t nbyte) {
   d73ca:	4604      	mov	r4, r0
   d73cc:	4690      	mov	r8, r2
  uint8_t cacheOption;
  // number of bytes left to write  -  must be before goto statements
  size_t nToWrite = nbyte;
  size_t n;
  // error if not a normal file or is read-only
  if (!isFile() || !(m_flags & F_WRITE)) {
   d73ce:	d508      	bpl.n	d73e2 <_ZN7FatFile5writeEPKvj+0x22>
   d73d0:	7883      	ldrb	r3, [r0, #2]
   d73d2:	079a      	lsls	r2, r3, #30
   d73d4:	d505      	bpl.n	d73e2 <_ZN7FatFile5writeEPKvj+0x22>
    DBG_FAIL_MACRO;
    goto fail;
  }
  // seek to end of file if append flag
  if ((m_flags & F_APPEND)) {
   d73d6:	071b      	lsls	r3, r3, #28
   d73d8:	d50b      	bpl.n	d73f2 <_ZN7FatFile5writeEPKvj+0x32>
    if (!seekSet(m_fileSize)) {
   d73da:	69e1      	ldr	r1, [r4, #28]
   d73dc:	f7ff fe5a 	bl	d7094 <_ZN7FatFile7seekSetEm>
   d73e0:	b938      	cbnz	r0, d73f2 <_ZN7FatFile5writeEPKvj+0x32>
  }
  return nbyte;

fail:
  // return for write error
  m_error |= WRITE_ERROR;
   d73e2:	7863      	ldrb	r3, [r4, #1]
   d73e4:	f043 0301 	orr.w	r3, r3, #1
   d73e8:	7063      	strb	r3, [r4, #1]
  return -1;
   d73ea:	f04f 30ff 	mov.w	r0, #4294967295
   d73ee:	e8bd 87f0 	ldmia.w	sp!, {r4, r5, r6, r7, r8, r9, sl, pc}
      DBG_FAIL_MACRO;
      goto fail;
    }
  }
  // Don't exceed max fileSize.
  if (nbyte > (0XFFFFFFFF - m_curPosition)) {
   d73f2:	6963      	ldr	r3, [r4, #20]
   d73f4:	43db      	mvns	r3, r3
   d73f6:	4598      	cmp	r8, r3
   d73f8:	d8f3      	bhi.n	d73e2 <_ZN7FatFile5writeEPKvj+0x22>
   d73fa:	4646      	mov	r6, r8
    m_vol = vol;
    invalidate();
  }
  /** Invalidate current cache block. */
  void invalidate() {
    m_status = 0;
   d73fc:	f04f 0a00 	mov.w	sl, #0
   d7400:	6963      	ldr	r3, [r4, #20]
    DBG_FAIL_MACRO;
    goto fail;
  }
  while (nToWrite) {
   d7402:	2e00      	cmp	r6, #0
   d7404:	f000 8081 	beq.w	d750a <_ZN7FatFile5writeEPKvj+0x14a>
    uint8_t blockOfCluster = m_vol->blockOfCluster(m_curPosition);
   d7408:	68a0      	ldr	r0, [r4, #8]
  }
//------------------------------------------------------------------------------
  bool allocateCluster(uint32_t current, uint32_t* next);
  bool allocContiguous(uint32_t count, uint32_t* firstCluster);
  uint8_t blockOfCluster(uint32_t position) const {
    return (position >> 9) & m_clusterBlockMask;
   d740a:	7942      	ldrb	r2, [r0, #5]
    uint16_t blockOffset = m_curPosition & 0X1FF;
    if (blockOfCluster == 0 && blockOffset == 0) {
   d740c:	ea12 2553 	ands.w	r5, r2, r3, lsr #9
    DBG_FAIL_MACRO;
    goto fail;
  }
  while (nToWrite) {
    uint8_t blockOfCluster = m_vol->blockOfCluster(m_curPosition);
    uint16_t blockOffset = m_curPosition & 0X1FF;
   d7410:	f3c3 0708 	ubfx	r7, r3, #0, #9
    if (blockOfCluster == 0 && blockOffset == 0) {
   d7414:	d11c      	bne.n	d7450 <_ZN7FatFile5writeEPKvj+0x90>
   d7416:	b9df      	cbnz	r7, d7450 <_ZN7FatFile5writeEPKvj+0x90>
      // start of new cluster
      if (m_curCluster != 0) {
   d7418:	6921      	ldr	r1, [r4, #16]
   d741a:	b171      	cbz	r1, d743a <_ZN7FatFile5writeEPKvj+0x7a>
        int8_t fg = m_vol->fatGet(m_curCluster, &m_curCluster);
   d741c:	f104 0210 	add.w	r2, r4, #16
   d7420:	f000 f901 	bl	d7626 <_ZN9FatVolume6fatGetEmPm>
        if (fg < 0) {
   d7424:	2800      	cmp	r0, #0
   d7426:	dbdc      	blt.n	d73e2 <_ZN7FatFile5writeEPKvj+0x22>
          DBG_FAIL_MACRO;
          goto fail;
        }
        if (fg == 0) {
   d7428:	f040 808e 	bne.w	d7548 <_ZN7FatFile5writeEPKvj+0x188>
          // add cluster if at end of chain
          if (!addCluster()) {
   d742c:	4620      	mov	r0, r4
   d742e:	f7ff fcb2 	bl	d6d96 <_ZN7FatFile10addClusterEv>
   d7432:	2800      	cmp	r0, #0
   d7434:	f040 8088 	bne.w	d7548 <_ZN7FatFile5writeEPKvj+0x188>
   d7438:	e7d3      	b.n	d73e2 <_ZN7FatFile5writeEPKvj+0x22>
            DBG_FAIL_MACRO;
            goto fail;
          }
        }
      } else {
        if (m_firstCluster == 0) {
   d743a:	6a23      	ldr	r3, [r4, #32]
   d743c:	b93b      	cbnz	r3, d744e <_ZN7FatFile5writeEPKvj+0x8e>
          // allocate first cluster of file
          if (!addCluster()) {
   d743e:	4620      	mov	r0, r4
   d7440:	f7ff fca9 	bl	d6d96 <_ZN7FatFile10addClusterEv>
   d7444:	2800      	cmp	r0, #0
   d7446:	d0cc      	beq.n	d73e2 <_ZN7FatFile5writeEPKvj+0x22>
            DBG_FAIL_MACRO;
            goto fail;
          }
          m_firstCluster = m_curCluster;
   d7448:	6923      	ldr	r3, [r4, #16]
   d744a:	6223      	str	r3, [r4, #32]
   d744c:	e000      	b.n	d7450 <_ZN7FatFile5writeEPKvj+0x90>
        } else {
          m_curCluster = m_firstCluster;
   d744e:	6123      	str	r3, [r4, #16]
        }
      }
    }
    // block for data write
    uint32_t block = m_vol->clusterFirstBlock(m_curCluster) + blockOfCluster;
   d7450:	6921      	ldr	r1, [r4, #16]
   d7452:	68a0      	ldr	r0, [r4, #8]
   d7454:	f000 f8e1 	bl	d761a <_ZNK9FatVolume17clusterFirstBlockEm>
   d7458:	1829      	adds	r1, r5, r0

    if (blockOffset != 0 || nToWrite < 512) {
   d745a:	b917      	cbnz	r7, d7462 <_ZN7FatFile5writeEPKvj+0xa2>
   d745c:	f5b6 7f00 	cmp.w	r6, #512	; 0x200
   d7460:	d221      	bcs.n	d74a6 <_ZN7FatFile5writeEPKvj+0xe6>
      // partial block - must use cache
      // max space in block
      n = 512 - blockOffset;
   d7462:	f5c7 7500 	rsb	r5, r7, #512	; 0x200
   d7466:	42b5      	cmp	r5, r6
   d7468:	bf28      	it	cs
   d746a:	4635      	movcs	r5, r6
      // lesser of space and amount to write
      if (n > nToWrite) {
        n = nToWrite;
      }

      if (blockOffset == 0 && m_curPosition >= m_fileSize) {
   d746c:	b937      	cbnz	r7, d747c <_ZN7FatFile5writeEPKvj+0xbc>
   d746e:	6963      	ldr	r3, [r4, #20]
   d7470:	69e2      	ldr	r2, [r4, #28]
        // start of new block don't need to read into cache
        cacheOption = FatCache::CACHE_RESERVE_FOR_WRITE;
   d7472:	4293      	cmp	r3, r2
   d7474:	bf34      	ite	cc
   d7476:	2201      	movcc	r2, #1
   d7478:	2205      	movcs	r2, #5
   d747a:	e000      	b.n	d747e <_ZN7FatFile5writeEPKvj+0xbe>
      } else {
        // rewrite part of block
        cacheOption = FatCache::CACHE_FOR_WRITE;
   d747c:	2201      	movs	r2, #1
  bool cacheSync() {
    return m_cache.sync() && syncBlocks();
  }
#endif  // USE_SEPARATE_FAT_CACHE
  cache_t* cacheFetchData(uint32_t blockNumber, uint8_t options) {
    return m_cache.read(blockNumber, options);
   d747e:	68a0      	ldr	r0, [r4, #8]
   d7480:	3024      	adds	r0, #36	; 0x24
   d7482:	f000 f8a6 	bl	d75d2 <_ZN8FatCache4readEmh>
      }
      pc = m_vol->cacheFetchData(block, cacheOption);
      if (!pc) {
   d7486:	2800      	cmp	r0, #0
   d7488:	d0ab      	beq.n	d73e2 <_ZN7FatFile5writeEPKvj+0x22>
        DBG_FAIL_MACRO;
        goto fail;
      }
      uint8_t* dst = pc->data + blockOffset;
      memcpy(dst, src, n);
   d748a:	4438      	add	r0, r7
   d748c:	462a      	mov	r2, r5
   d748e:	4649      	mov	r1, r9
      if (512 == (n + blockOffset)) {
   d7490:	442f      	add	r7, r5
      if (!pc) {
        DBG_FAIL_MACRO;
        goto fail;
      }
      uint8_t* dst = pc->data + blockOffset;
      memcpy(dst, src, n);
   d7492:	f003 ff9c 	bl	db3ce <memcpy>
      if (512 == (n + blockOffset)) {
   d7496:	f5b7 7f00 	cmp.w	r7, #512	; 0x200
   d749a:	d130      	bne.n	d74fe <_ZN7FatFile5writeEPKvj+0x13e>
  }
  void cacheInvalidate() {
    m_cache.invalidate();
  }
  bool cacheSyncData() {
    return m_cache.sync();
   d749c:	68a0      	ldr	r0, [r4, #8]
   d749e:	3024      	adds	r0, #36	; 0x24
   d74a0:	f000 f870 	bl	d7584 <_ZN8FatCache4syncEv>
   d74a4:	e017      	b.n	d74d6 <_ZN7FatFile5writeEPKvj+0x116>
          DBG_FAIL_MACRO;
          goto fail;
        }
      }
#if USE_MULTI_BLOCK_IO
    } else if (nToWrite >= 1024) {
   d74a6:	f5b6 6f80 	cmp.w	r6, #1024	; 0x400
   d74aa:	68a0      	ldr	r0, [r4, #8]
   d74ac:	d315      	bcc.n	d74da <_ZN7FatFile5writeEPKvj+0x11a>
      // use multiple block write command
      uint8_t maxBlocks = m_vol->blocksPerCluster() - blockOfCluster;
      size_t nb = nToWrite >> 9;
      if (nb > maxBlocks) {
   d74ae:	7902      	ldrb	r2, [r0, #4]
   d74b0:	1b52      	subs	r2, r2, r5
      }
#if USE_MULTI_BLOCK_IO
    } else if (nToWrite >= 1024) {
      // use multiple block write command
      uint8_t maxBlocks = m_vol->blocksPerCluster() - blockOfCluster;
      size_t nb = nToWrite >> 9;
   d74b2:	0a73      	lsrs	r3, r6, #9
      if (nb > maxBlocks) {
   d74b4:	b2d2      	uxtb	r2, r2
   d74b6:	4293      	cmp	r3, r2
   d74b8:	bf28      	it	cs
   d74ba:	4613      	movcs	r3, r2
   d74bc:	6ac2      	ldr	r2, [r0, #44]	; 0x2c
        nb = maxBlocks;
      }
      n = 512*nb;
      if (m_vol->cacheBlockNumber() <= block
          && block < (m_vol->cacheBlockNumber() + nb)) {
   d74be:	4291      	cmp	r1, r2
      uint8_t maxBlocks = m_vol->blocksPerCluster() - blockOfCluster;
      size_t nb = nToWrite >> 9;
      if (nb > maxBlocks) {
        nb = maxBlocks;
      }
      n = 512*nb;
   d74c0:	ea4f 2543 	mov.w	r5, r3, lsl #9
      if (m_vol->cacheBlockNumber() <= block
          && block < (m_vol->cacheBlockNumber() + nb)) {
   d74c4:	d302      	bcc.n	d74cc <_ZN7FatFile5writeEPKvj+0x10c>
   d74c6:	441a      	add	r2, r3
   d74c8:	4291      	cmp	r1, r2
   d74ca:	d337      	bcc.n	d753c <_ZN7FatFile5writeEPKvj+0x17c>
   d74cc:	68a7      	ldr	r7, [r4, #8]
#if USE_MULTI_BLOCK_IO
  bool readBlocks(uint32_t block, uint8_t* dst, size_t nb) {
    return m_blockDev->readBlocks(block, dst, nb);
  }
  bool writeBlocks(uint32_t block, const uint8_t* src, size_t nb) {
    return m_blockDev->writeBlocks(block, src, nb);
   d74ce:	464a      	mov	r2, r9
   d74d0:	6838      	ldr	r0, [r7, #0]
   d74d2:	f000 fc6d 	bl	d7db0 <_ZN9SdSpiCard11writeBlocksEmPKhj>
        // invalidate cache if block is in cache
        m_vol->cacheInvalidate();
      }
      if (!m_vol->writeBlocks(block, src, nb)) {
   d74d6:	b990      	cbnz	r0, d74fe <_ZN7FatFile5writeEPKvj+0x13e>
   d74d8:	e783      	b.n	d73e2 <_ZN7FatFile5writeEPKvj+0x22>
      }
#endif  // USE_MULTI_BLOCK_IO
    } else {
      // use single block write command
      n = 512;
      if (m_vol->cacheBlockNumber() == block) {
   d74da:	6ac3      	ldr	r3, [r0, #44]	; 0x2c
   d74dc:	4299      	cmp	r1, r3
    invalidate();
  }
  /** Invalidate current cache block. */
  void invalidate() {
    m_status = 0;
    m_lbn = 0XFFFFFFFF;
   d74de:	bf02      	ittt	eq
   d74e0:	f04f 33ff 	moveq.w	r3, #4294967295
    m_vol = vol;
    invalidate();
  }
  /** Invalidate current cache block. */
  void invalidate() {
    m_status = 0;
   d74e4:	f880 a024 	strbeq.w	sl, [r0, #36]	; 0x24
    m_lbn = 0XFFFFFFFF;
   d74e8:	62c3      	streq	r3, [r0, #44]	; 0x2c
   d74ea:	68a3      	ldr	r3, [r4, #8]
  }
  bool syncBlocks() {
    return m_blockDev->syncBlocks();
  }
  bool writeBlock(uint32_t block, const uint8_t* src) {
    return m_blockDev->writeBlock(block, src);
   d74ec:	464a      	mov	r2, r9
   d74ee:	6818      	ldr	r0, [r3, #0]
   d74f0:	f000 fbec 	bl	d7ccc <_ZN9SdSpiCard10writeBlockEmPKh>
        m_vol->cacheInvalidate();
      }
      if (!m_vol->writeBlock(block, src)) {
   d74f4:	2800      	cmp	r0, #0
   d74f6:	f43f af74 	beq.w	d73e2 <_ZN7FatFile5writeEPKvj+0x22>
        goto fail;
      }
#endif  // USE_MULTI_BLOCK_IO
    } else {
      // use single block write command
      n = 512;
   d74fa:	f44f 7500 	mov.w	r5, #512	; 0x200
      if (!m_vol->writeBlock(block, src)) {
        DBG_FAIL_MACRO;
        goto fail;
      }
    }
    m_curPosition += n;
   d74fe:	6963      	ldr	r3, [r4, #20]
   d7500:	442b      	add	r3, r5
   d7502:	6163      	str	r3, [r4, #20]
    src += n;
   d7504:	44a9      	add	r9, r5
    nToWrite -= n;
   d7506:	1b76      	subs	r6, r6, r5
  // Don't exceed max fileSize.
  if (nbyte > (0XFFFFFFFF - m_curPosition)) {
    DBG_FAIL_MACRO;
    goto fail;
  }
  while (nToWrite) {
   d7508:	e77a      	b.n	d7400 <_ZN7FatFile5writeEPKvj+0x40>
    }
    m_curPosition += n;
    src += n;
    nToWrite -= n;
  }
  if (m_curPosition > m_fileSize) {
   d750a:	69e2      	ldr	r2, [r4, #28]
   d750c:	4293      	cmp	r3, r2
   d750e:	d901      	bls.n	d7514 <_ZN7FatFile5writeEPKvj+0x154>
    // update fileSize and insure sync will update dir entry
    m_fileSize = m_curPosition;
   d7510:	61e3      	str	r3, [r4, #28]
   d7512:	e002      	b.n	d751a <_ZN7FatFile5writeEPKvj+0x15a>
    m_flags |= F_FILE_DIR_DIRTY;
  } else if (m_dateTime) {
   d7514:	4b0f      	ldr	r3, [pc, #60]	; (d7554 <_ZN7FatFile5writeEPKvj+0x194>)
   d7516:	681b      	ldr	r3, [r3, #0]
   d7518:	b11b      	cbz	r3, d7522 <_ZN7FatFile5writeEPKvj+0x162>
    // insure sync will update modified date and time
    m_flags |= F_FILE_DIR_DIRTY;
   d751a:	78a3      	ldrb	r3, [r4, #2]
   d751c:	f043 0304 	orr.w	r3, r3, #4
   d7520:	70a3      	strb	r3, [r4, #2]
  }

  if (m_flags & F_SYNC) {
   d7522:	f994 3002 	ldrsb.w	r3, [r4, #2]
   d7526:	2b00      	cmp	r3, #0
   d7528:	db02      	blt.n	d7530 <_ZN7FatFile5writeEPKvj+0x170>
    if (!sync()) {
      DBG_FAIL_MACRO;
      goto fail;
    }
  }
  return nbyte;
   d752a:	4640      	mov	r0, r8
   d752c:	e8bd 87f0 	ldmia.w	sp!, {r4, r5, r6, r7, r8, r9, sl, pc}
    // insure sync will update modified date and time
    m_flags |= F_FILE_DIR_DIRTY;
  }

  if (m_flags & F_SYNC) {
    if (!sync()) {
   d7530:	4620      	mov	r0, r4
   d7532:	f7ff fea5 	bl	d7280 <_ZN7FatFile4syncEv>
   d7536:	2800      	cmp	r0, #0
   d7538:	d1f7      	bne.n	d752a <_ZN7FatFile5writeEPKvj+0x16a>
   d753a:	e752      	b.n	d73e2 <_ZN7FatFile5writeEPKvj+0x22>
    invalidate();
  }
  /** Invalidate current cache block. */
  void invalidate() {
    m_status = 0;
    m_lbn = 0XFFFFFFFF;
   d753c:	f04f 32ff 	mov.w	r2, #4294967295
    m_vol = vol;
    invalidate();
  }
  /** Invalidate current cache block. */
  void invalidate() {
    m_status = 0;
   d7540:	f880 a024 	strb.w	sl, [r0, #36]	; 0x24
    m_lbn = 0XFFFFFFFF;
   d7544:	62c2      	str	r2, [r0, #44]	; 0x2c
   d7546:	e7c1      	b.n	d74cc <_ZN7FatFile5writeEPKvj+0x10c>
          m_curCluster = m_firstCluster;
        }
      }
    }
    // block for data write
    uint32_t block = m_vol->clusterFirstBlock(m_curCluster) + blockOfCluster;
   d7548:	6921      	ldr	r1, [r4, #16]
   d754a:	68a0      	ldr	r0, [r4, #8]
   d754c:	f000 f865 	bl	d761a <_ZNK9FatVolume17clusterFirstBlockEm>
   d7550:	4601      	mov	r1, r0
   d7552:	e783      	b.n	d745c <_ZN7FatFile5writeEPKvj+0x9c>
   d7554:	2003e020 	.word	0x2003e020

000d7558 <_GLOBAL__sub_I__ZN7FatFile5m_cwdE>:
   d7558:	f000 bff4 	b.w	d8544 <HAL_Pin_Map>

000d755c <_ZN5Print5writeEPKc>:

    int getWriteError() { return write_error; }
    void clearWriteError() { setWriteError(0); }

    virtual size_t write(uint8_t) = 0;
    size_t write(const char *str) {
   d755c:	b570      	push	{r4, r5, r6, lr}
   d755e:	4605      	mov	r5, r0
      if (str == NULL) return 0;
   d7560:	460c      	mov	r4, r1
      return write((const uint8_t *)str, strlen(str));
    }
   d7562:	4608      	mov	r0, r1
    int getWriteError() { return write_error; }
    void clearWriteError() { setWriteError(0); }

    virtual size_t write(uint8_t) = 0;
    size_t write(const char *str) {
      if (str == NULL) return 0;
   d7564:	b149      	cbz	r1, d757a <_ZN5Print5writeEPKc+0x1e>
      return write((const uint8_t *)str, strlen(str));
   d7566:	f003 ff8d 	bl	db484 <strlen>
   d756a:	682b      	ldr	r3, [r5, #0]
   d756c:	4602      	mov	r2, r0
   d756e:	4621      	mov	r1, r4
   d7570:	4628      	mov	r0, r5
   d7572:	68db      	ldr	r3, [r3, #12]
    }
   d7574:	e8bd 4070 	ldmia.w	sp!, {r4, r5, r6, lr}
    void clearWriteError() { setWriteError(0); }

    virtual size_t write(uint8_t) = 0;
    size_t write(const char *str) {
      if (str == NULL) return 0;
      return write((const uint8_t *)str, strlen(str));
   d7578:	4718      	bx	r3
    }
   d757a:	bd70      	pop	{r4, r5, r6, pc}

000d757c <_GLOBAL__sub_I__ZN7FatFile7dmpFileEP5Printmj>:
   d757c:	f000 bfe2 	b.w	d8544 <HAL_Pin_Map>

000d7580 <_GLOBAL__sub_I__ZN13FatStreamBase5getchEv>:
   d7580:	f000 bfe0 	b.w	d8544 <HAL_Pin_Map>

000d7584 <_ZN8FatCache4syncEv>:
fail:

  return 0;
}
//------------------------------------------------------------------------------
bool FatCache::sync() {
   d7584:	b570      	push	{r4, r5, r6, lr}
  if (m_status & CACHE_STATUS_DIRTY) {
   d7586:	7803      	ldrb	r3, [r0, #0]
   d7588:	07da      	lsls	r2, r3, #31
fail:

  return 0;
}
//------------------------------------------------------------------------------
bool FatCache::sync() {
   d758a:	4604      	mov	r4, r0
  if (m_status & CACHE_STATUS_DIRTY) {
   d758c:	d51e      	bpl.n	d75cc <_ZN8FatCache4syncEv+0x48>
   d758e:	6843      	ldr	r3, [r0, #4]
  }
  bool syncBlocks() {
    return m_blockDev->syncBlocks();
  }
  bool writeBlock(uint32_t block, const uint8_t* src) {
    return m_blockDev->writeBlock(block, src);
   d7590:	6881      	ldr	r1, [r0, #8]
    if (!m_vol->writeBlock(m_lbn, m_block.data)) {
   d7592:	f100 060c 	add.w	r6, r0, #12
   d7596:	4632      	mov	r2, r6
   d7598:	6818      	ldr	r0, [r3, #0]
   d759a:	f000 fb97 	bl	d7ccc <_ZN9SdSpiCard10writeBlockEmPKh>
   d759e:	4605      	mov	r5, r0
   d75a0:	b908      	cbnz	r0, d75a6 <_ZN8FatCache4syncEv+0x22>
    m_status &= ~CACHE_STATUS_DIRTY;
  }
  return true;

fail:
  return false;
   d75a2:	2500      	movs	r5, #0
   d75a4:	e013      	b.n	d75ce <_ZN8FatCache4syncEv+0x4a>
    if (!m_vol->writeBlock(m_lbn, m_block.data)) {
      DBG_FAIL_MACRO;
      goto fail;
    }
    // mirror second FAT
    if (m_status & CACHE_STATUS_MIRROR_FAT) {
   d75a6:	7823      	ldrb	r3, [r4, #0]
   d75a8:	079b      	lsls	r3, r3, #30
   d75aa:	d404      	bmi.n	d75b6 <_ZN8FatCache4syncEv+0x32>
      if (!m_vol->writeBlock(lbn, m_block.data)) {
        DBG_FAIL_MACRO;
        goto fail;
      }
    }
    m_status &= ~CACHE_STATUS_DIRTY;
   d75ac:	7823      	ldrb	r3, [r4, #0]
   d75ae:	f023 0301 	bic.w	r3, r3, #1
   d75b2:	7023      	strb	r3, [r4, #0]
   d75b4:	e00b      	b.n	d75ce <_ZN8FatCache4syncEv+0x4a>
      DBG_FAIL_MACRO;
      goto fail;
    }
    // mirror second FAT
    if (m_status & CACHE_STATUS_MIRROR_FAT) {
      uint32_t lbn = m_lbn + m_vol->blocksPerFat();
   d75b6:	6863      	ldr	r3, [r4, #4]
   d75b8:	68a0      	ldr	r0, [r4, #8]
   d75ba:	6919      	ldr	r1, [r3, #16]
   d75bc:	4632      	mov	r2, r6
   d75be:	4401      	add	r1, r0
   d75c0:	6818      	ldr	r0, [r3, #0]
   d75c2:	f000 fb83 	bl	d7ccc <_ZN9SdSpiCard10writeBlockEmPKh>
      if (!m_vol->writeBlock(lbn, m_block.data)) {
   d75c6:	2800      	cmp	r0, #0
   d75c8:	d1f0      	bne.n	d75ac <_ZN8FatCache4syncEv+0x28>
   d75ca:	e7ea      	b.n	d75a2 <_ZN8FatCache4syncEv+0x1e>
        goto fail;
      }
    }
    m_status &= ~CACHE_STATUS_DIRTY;
  }
  return true;
   d75cc:	2501      	movs	r5, #1

fail:
  return false;
}
   d75ce:	4628      	mov	r0, r5
   d75d0:	bd70      	pop	{r4, r5, r6, pc}

000d75d2 <_ZN8FatCache4readEmh>:
 * DEALINGS IN THE SOFTWARE.
 */
#include <string.h>
#include "FatVolume.h"
//------------------------------------------------------------------------------
cache_t* FatCache::read(uint32_t lbn, uint8_t option) {
   d75d2:	b570      	push	{r4, r5, r6, lr}
  if (m_lbn != lbn) {
   d75d4:	6883      	ldr	r3, [r0, #8]
   d75d6:	428b      	cmp	r3, r1
 * DEALINGS IN THE SOFTWARE.
 */
#include <string.h>
#include "FatVolume.h"
//------------------------------------------------------------------------------
cache_t* FatCache::read(uint32_t lbn, uint8_t option) {
   d75d8:	4604      	mov	r4, r0
   d75da:	460e      	mov	r6, r1
   d75dc:	4615      	mov	r5, r2
  if (m_lbn != lbn) {
   d75de:	d014      	beq.n	d760a <_ZN8FatCache4readEmh+0x38>
    if (!sync()) {
   d75e0:	f7ff ffd0 	bl	d7584 <_ZN8FatCache4syncEv>
   d75e4:	b908      	cbnz	r0, d75ea <_ZN8FatCache4readEmh+0x18>
  m_status |= option & CACHE_STATUS_MASK;
  return &m_block;

fail:

  return 0;
   d75e6:	2000      	movs	r0, #0
   d75e8:	bd70      	pop	{r4, r5, r6, pc}
  if (m_lbn != lbn) {
    if (!sync()) {
      DBG_FAIL_MACRO;
      goto fail;
    }
    if (!(option & CACHE_OPTION_NO_READ)) {
   d75ea:	076b      	lsls	r3, r5, #29
   d75ec:	d503      	bpl.n	d75f6 <_ZN8FatCache4readEmh+0x24>
      if (!m_vol->readBlock(lbn, m_block.data)) {
        DBG_FAIL_MACRO;
        goto fail;
      }
    }
    m_status = 0;
   d75ee:	2300      	movs	r3, #0
   d75f0:	7023      	strb	r3, [r4, #0]
    m_lbn = lbn;
   d75f2:	60a6      	str	r6, [r4, #8]
   d75f4:	e009      	b.n	d760a <_ZN8FatCache4readEmh+0x38>
   d75f6:	6863      	ldr	r3, [r4, #4]
  uint32_t m_lastCluster;          // Last cluster number in FAT.
  uint32_t m_rootDirStart;         // Start block for FAT16, cluster for FAT32.
//------------------------------------------------------------------------------
  // block I/O functions.
  bool readBlock(uint32_t block, uint8_t* dst) {
    return m_blockDev->readBlock(block, dst);
   d75f8:	f104 020c 	add.w	r2, r4, #12
   d75fc:	4631      	mov	r1, r6
   d75fe:	6818      	ldr	r0, [r3, #0]
   d7600:	f000 fada 	bl	d7bb8 <_ZN9SdSpiCard9readBlockEmPh>
    if (!sync()) {
      DBG_FAIL_MACRO;
      goto fail;
    }
    if (!(option & CACHE_OPTION_NO_READ)) {
      if (!m_vol->readBlock(lbn, m_block.data)) {
   d7604:	2800      	cmp	r0, #0
   d7606:	d1f2      	bne.n	d75ee <_ZN8FatCache4readEmh+0x1c>
   d7608:	e7ed      	b.n	d75e6 <_ZN8FatCache4readEmh+0x14>
      }
    }
    m_status = 0;
    m_lbn = lbn;
  }
  m_status |= option & CACHE_STATUS_MASK;
   d760a:	7823      	ldrb	r3, [r4, #0]
   d760c:	4620      	mov	r0, r4
   d760e:	f005 0503 	and.w	r5, r5, #3
   d7612:	431d      	orrs	r5, r3
   d7614:	f800 5b0c 	strb.w	r5, [r0], #12
  return &m_block;

fail:

  return 0;
}
   d7618:	bd70      	pop	{r4, r5, r6, pc}

000d761a <_ZNK9FatVolume17clusterFirstBlockEm>:
fail:
  return false;
}
//------------------------------------------------------------------------------
uint32_t FatVolume::clusterFirstBlock(uint32_t cluster) const {
  return m_dataStartBlock + ((cluster - 2) << m_clusterSizeShift);
   d761a:	7983      	ldrb	r3, [r0, #6]
   d761c:	6940      	ldr	r0, [r0, #20]
   d761e:	3902      	subs	r1, #2
   d7620:	4099      	lsls	r1, r3
}
   d7622:	4408      	add	r0, r1
   d7624:	4770      	bx	lr

000d7626 <_ZN9FatVolume6fatGetEmPm>:
  uint32_t lba;
  uint32_t next;
  cache_t* pc;

  // error if reserved cluster of beyond FAT
  if (cluster < 2 || cluster > m_lastCluster) {
   d7626:	2901      	cmp	r1, #1
uint32_t FatVolume::clusterFirstBlock(uint32_t cluster) const {
  return m_dataStartBlock + ((cluster - 2) << m_clusterSizeShift);
}
//------------------------------------------------------------------------------
// Fetch a FAT entry - return -1 error, 0 EOC, else 1.
int8_t FatVolume::fatGet(uint32_t cluster, uint32_t* value) {
   d7628:	b570      	push	{r4, r5, r6, lr}
   d762a:	4605      	mov	r5, r0
   d762c:	460c      	mov	r4, r1
   d762e:	4616      	mov	r6, r2
  uint32_t lba;
  uint32_t next;
  cache_t* pc;

  // error if reserved cluster of beyond FAT
  if (cluster < 2 || cluster > m_lastCluster) {
   d7630:	d802      	bhi.n	d7638 <_ZN9FatVolume6fatGetEmPm+0x12>
  }
  *value = next;
  return 1;

fail:
  return -1;
   d7632:	f04f 30ff 	mov.w	r0, #4294967295
   d7636:	bd70      	pop	{r4, r5, r6, pc}
  uint32_t lba;
  uint32_t next;
  cache_t* pc;

  // error if reserved cluster of beyond FAT
  if (cluster < 2 || cluster > m_lastCluster) {
   d7638:	69c3      	ldr	r3, [r0, #28]
   d763a:	4299      	cmp	r1, r3
   d763c:	d8f9      	bhi.n	d7632 <_ZN9FatVolume6fatGetEmPm+0xc>
   d763e:	79c3      	ldrb	r3, [r0, #7]
    DBG_FAIL_MACRO;
    goto fail;
  }

  if (fatType() == 32) {
   d7640:	2b20      	cmp	r3, #32
   d7642:	d110      	bne.n	d7666 <_ZN9FatVolume6fatGetEmPm+0x40>
  FatCache m_cache;
#if USE_SEPARATE_FAT_CACHE
  FatCache m_fatCache;
  cache_t* cacheFetchFat(uint32_t blockNumber, uint8_t options) {
    return m_fatCache.read(blockNumber,
                           options | FatCache::CACHE_STATUS_MIRROR_FAT);
   d7644:	6981      	ldr	r1, [r0, #24]
   d7646:	2202      	movs	r2, #2
   d7648:	eb01 11d4 	add.w	r1, r1, r4, lsr #7
   d764c:	f500 700c 	add.w	r0, r0, #560	; 0x230
   d7650:	f7ff ffbf 	bl	d75d2 <_ZN8FatCache4readEmh>
    lba = m_fatStartBlock + (cluster >> 7);
    pc = cacheFetchFat(lba, FatCache::CACHE_FOR_READ);
    if (!pc) {
   d7654:	2800      	cmp	r0, #0
   d7656:	d0ec      	beq.n	d7632 <_ZN9FatVolume6fatGetEmPm+0xc>
      DBG_FAIL_MACRO;
      goto fail;
    }
    next = pc->fat32[cluster & 0X7F] & FAT32MASK;
   d7658:	f004 047f 	and.w	r4, r4, #127	; 0x7f
   d765c:	f850 3024 	ldr.w	r3, [r0, r4, lsl #2]
   d7660:	f023 4370 	bic.w	r3, r3, #4026531840	; 0xf0000000
    goto done;
   d7664:	e00f      	b.n	d7686 <_ZN9FatVolume6fatGetEmPm+0x60>
  }
  if (fatType() == 16) {
   d7666:	2b10      	cmp	r3, #16
   d7668:	d1e3      	bne.n	d7632 <_ZN9FatVolume6fatGetEmPm+0xc>
   d766a:	6983      	ldr	r3, [r0, #24]
   d766c:	f3c1 2107 	ubfx	r1, r1, #8, #8
   d7670:	2202      	movs	r2, #2
   d7672:	4419      	add	r1, r3
   d7674:	f500 700c 	add.w	r0, r0, #560	; 0x230
   d7678:	f7ff ffab 	bl	d75d2 <_ZN8FatCache4readEmh>
    lba = m_fatStartBlock + ((cluster >> 8) & 0XFF);
    pc = cacheFetchFat(lba, FatCache::CACHE_FOR_READ);
    if (!pc) {
   d767c:	2800      	cmp	r0, #0
   d767e:	d0d8      	beq.n	d7632 <_ZN9FatVolume6fatGetEmPm+0xc>
      DBG_FAIL_MACRO;
      goto fail;
    }
    next = pc->fat16[cluster & 0XFF];
   d7680:	b2e4      	uxtb	r4, r4
   d7682:	f830 3014 	ldrh.w	r3, [r0, r4, lsl #1]
  } else {
    DBG_FAIL_MACRO;
    goto fail;
  }
done:
  if (isEOC(next)) {
   d7686:	69ea      	ldr	r2, [r5, #28]
   d7688:	4293      	cmp	r3, r2
    return 0;
  }
  *value = next;
   d768a:	bf9a      	itte	ls
   d768c:	6033      	strls	r3, [r6, #0]
  return 1;
   d768e:	2001      	movls	r0, #1
    DBG_FAIL_MACRO;
    goto fail;
  }
done:
  if (isEOC(next)) {
    return 0;
   d7690:	2000      	movhi	r0, #0
  *value = next;
  return 1;

fail:
  return -1;
}
   d7692:	bd70      	pop	{r4, r5, r6, pc}

000d7694 <_ZN9FatVolume6fatPutEmm>:
bool FatVolume::fatPut(uint32_t cluster, uint32_t value) {
  uint32_t lba;
  cache_t* pc;

  // error if reserved cluster of beyond FAT
  if (cluster < 2 || cluster > m_lastCluster) {
   d7694:	2901      	cmp	r1, #1
fail:
  return -1;
}
//------------------------------------------------------------------------------
// Store a FAT entry
bool FatVolume::fatPut(uint32_t cluster, uint32_t value) {
   d7696:	b538      	push	{r3, r4, r5, lr}
   d7698:	460c      	mov	r4, r1
   d769a:	4615      	mov	r5, r2
  uint32_t lba;
  cache_t* pc;

  // error if reserved cluster of beyond FAT
  if (cluster < 2 || cluster > m_lastCluster) {
   d769c:	d801      	bhi.n	d76a2 <_ZN9FatVolume6fatPutEmm+0xe>
    DBG_FAIL_MACRO;
    goto fail;
  }

fail:
  return false;
   d769e:	2000      	movs	r0, #0
   d76a0:	bd38      	pop	{r3, r4, r5, pc}
bool FatVolume::fatPut(uint32_t cluster, uint32_t value) {
  uint32_t lba;
  cache_t* pc;

  // error if reserved cluster of beyond FAT
  if (cluster < 2 || cluster > m_lastCluster) {
   d76a2:	69c3      	ldr	r3, [r0, #28]
   d76a4:	4299      	cmp	r1, r3
   d76a6:	d8fa      	bhi.n	d769e <_ZN9FatVolume6fatPutEmm+0xa>
   d76a8:	79c3      	ldrb	r3, [r0, #7]
    DBG_FAIL_MACRO;
    goto fail;
  }

  if (fatType() == 32) {
   d76aa:	2b20      	cmp	r3, #32
   d76ac:	d10e      	bne.n	d76cc <_ZN9FatVolume6fatPutEmm+0x38>
   d76ae:	6981      	ldr	r1, [r0, #24]
   d76b0:	2203      	movs	r2, #3
   d76b2:	eb01 11d4 	add.w	r1, r1, r4, lsr #7
   d76b6:	f500 700c 	add.w	r0, r0, #560	; 0x230
   d76ba:	f7ff ff8a 	bl	d75d2 <_ZN8FatCache4readEmh>
    lba = m_fatStartBlock + (cluster >> 7);
    pc = cacheFetchFat(lba, FatCache::CACHE_FOR_WRITE);
    if (!pc) {
   d76be:	2800      	cmp	r0, #0
   d76c0:	d0ed      	beq.n	d769e <_ZN9FatVolume6fatPutEmm+0xa>
      DBG_FAIL_MACRO;
      goto fail;
    }
    pc->fat32[cluster & 0X7F] = value;
   d76c2:	f004 047f 	and.w	r4, r4, #127	; 0x7f
   d76c6:	f840 5024 	str.w	r5, [r0, r4, lsl #2]
   d76ca:	e00f      	b.n	d76ec <_ZN9FatVolume6fatPutEmm+0x58>
    return true;
  }

  if (fatType() == 16) {
   d76cc:	2b10      	cmp	r3, #16
   d76ce:	d1e6      	bne.n	d769e <_ZN9FatVolume6fatPutEmm+0xa>
   d76d0:	6983      	ldr	r3, [r0, #24]
   d76d2:	f3c1 2107 	ubfx	r1, r1, #8, #8
   d76d6:	2203      	movs	r2, #3
   d76d8:	4419      	add	r1, r3
   d76da:	f500 700c 	add.w	r0, r0, #560	; 0x230
   d76de:	f7ff ff78 	bl	d75d2 <_ZN8FatCache4readEmh>
    lba = m_fatStartBlock + ((cluster >> 8) & 0XFF);
    pc = cacheFetchFat(lba, FatCache::CACHE_FOR_WRITE);
    if (!pc) {
   d76e2:	2800      	cmp	r0, #0
   d76e4:	d0db      	beq.n	d769e <_ZN9FatVolume6fatPutEmm+0xa>
      DBG_FAIL_MACRO;
      goto fail;
    }
    pc->fat16[cluster & 0XFF] = value;
   d76e6:	b2e4      	uxtb	r4, r4
   d76e8:	f820 5014 	strh.w	r5, [r0, r4, lsl #1]
    return true;
   d76ec:	2001      	movs	r0, #1
    goto fail;
  }

fail:
  return false;
}
   d76ee:	bd38      	pop	{r3, r4, r5, pc}

000d76f0 <_ZN9FatVolume15allocateClusterEmPm>:

fail:
  return false;
}
//------------------------------------------------------------------------------
bool FatVolume::allocateCluster(uint32_t current, uint32_t* next) {
   d76f0:	e92d 41f3 	stmdb	sp!, {r0, r1, r4, r5, r6, r7, r8, lr}
  uint32_t find;
  bool setStart;
  if (m_allocSearchStart < current) {
   d76f4:	68c4      	ldr	r4, [r0, #12]
   d76f6:	428c      	cmp	r4, r1

fail:
  return false;
}
//------------------------------------------------------------------------------
bool FatVolume::allocateCluster(uint32_t current, uint32_t* next) {
   d76f8:	4605      	mov	r5, r0
   d76fa:	460e      	mov	r6, r1
   d76fc:	4690      	mov	r8, r2
  uint32_t find;
  bool setStart;
  if (m_allocSearchStart < current) {
   d76fe:	d207      	bcs.n	d7710 <_ZN9FatVolume15allocateClusterEmPm+0x20>
   d7700:	460c      	mov	r4, r1
    // Try to keep file contiguous. Start just after current cluster.
    find = current;
    setStart = false;
   d7702:	2700      	movs	r7, #0
    find = m_allocSearchStart;
    setStart = true;
  }
  while (1) {
    find++;
    if (find > m_lastCluster) {
   d7704:	69eb      	ldr	r3, [r5, #28]
  } else {
    find = m_allocSearchStart;
    setStart = true;
  }
  while (1) {
    find++;
   d7706:	3401      	adds	r4, #1
    if (find > m_lastCluster) {
   d7708:	429c      	cmp	r4, r3
   d770a:	d903      	bls.n	d7714 <_ZN9FatVolume15allocateClusterEmPm+0x24>
      if (setStart) {
   d770c:	b9cf      	cbnz	r7, d7742 <_ZN9FatVolume15allocateClusterEmPm+0x52>
        // Can't find space, checked all clusters.
        DBG_FAIL_MACRO;
        goto fail;
      }
      find = m_allocSearchStart;
   d770e:	68ec      	ldr	r4, [r5, #12]
      setStart = true;
   d7710:	2701      	movs	r7, #1
   d7712:	e7f7      	b.n	d7704 <_ZN9FatVolume15allocateClusterEmPm+0x14>
      continue;
    }
    if (find == current) {
   d7714:	42a6      	cmp	r6, r4
   d7716:	d014      	beq.n	d7742 <_ZN9FatVolume15allocateClusterEmPm+0x52>
      // Can't find space, already searched clusters after current.
      DBG_FAIL_MACRO;
      goto fail;
    }
    uint32_t f;
    int8_t fg = fatGet(find, &f);
   d7718:	aa01      	add	r2, sp, #4
   d771a:	4621      	mov	r1, r4
   d771c:	4628      	mov	r0, r5
   d771e:	f7ff ff82 	bl	d7626 <_ZN9FatVolume6fatGetEmPm>
    if (fg < 0) {
   d7722:	2800      	cmp	r0, #0
   d7724:	db0d      	blt.n	d7742 <_ZN9FatVolume15allocateClusterEmPm+0x52>
      DBG_FAIL_MACRO;
      goto fail;
    }
    if (fg && f == 0) {
   d7726:	d0ed      	beq.n	d7704 <_ZN9FatVolume15allocateClusterEmPm+0x14>
   d7728:	9b01      	ldr	r3, [sp, #4]
   d772a:	2b00      	cmp	r3, #0
   d772c:	d1ea      	bne.n	d7704 <_ZN9FatVolume15allocateClusterEmPm+0x14>
      break;
    }
  }
  if (setStart) {
   d772e:	b107      	cbz	r7, d7732 <_ZN9FatVolume15allocateClusterEmPm+0x42>
    m_allocSearchStart = find;
   d7730:	60ec      	str	r4, [r5, #12]
  }
  uint32_t clusterFirstBlock(uint32_t cluster) const;
  int8_t fatGet(uint32_t cluster, uint32_t* value);
  bool fatPut(uint32_t cluster, uint32_t value);
  bool fatPutEOC(uint32_t cluster) {
    return fatPut(cluster, 0x0FFFFFFF);
   d7732:	f06f 4270 	mvn.w	r2, #4026531840	; 0xf0000000
   d7736:	4621      	mov	r1, r4
   d7738:	4628      	mov	r0, r5
   d773a:	f7ff ffab 	bl	d7694 <_ZN9FatVolume6fatPutEmm>
  }
  // Mark end of chain.
  if (!fatPutEOC(find)) {
   d773e:	4607      	mov	r7, r0
   d7740:	b908      	cbnz	r0, d7746 <_ZN9FatVolume15allocateClusterEmPm+0x56>
  updateFreeClusterCount(-1);
  *next = find;
  return true;

fail:
  return false;
   d7742:	2700      	movs	r7, #0
   d7744:	e00b      	b.n	d775e <_ZN9FatVolume15allocateClusterEmPm+0x6e>
  // Mark end of chain.
  if (!fatPutEOC(find)) {
    DBG_FAIL_MACRO;
    goto fail;
  }
  if (current) {
   d7746:	b916      	cbnz	r6, d774e <_ZN9FatVolume15allocateClusterEmPm+0x5e>
      DBG_FAIL_MACRO;
      goto fail;
    }
  }
  updateFreeClusterCount(-1);
  *next = find;
   d7748:	f8c8 4000 	str.w	r4, [r8]
  return true;
   d774c:	e007      	b.n	d775e <_ZN9FatVolume15allocateClusterEmPm+0x6e>
    DBG_FAIL_MACRO;
    goto fail;
  }
  if (current) {
    // Link clusters.
    if (!fatPut(current, find)) {
   d774e:	4622      	mov	r2, r4
   d7750:	4631      	mov	r1, r6
   d7752:	4628      	mov	r0, r5
   d7754:	f7ff ff9e 	bl	d7694 <_ZN9FatVolume6fatPutEmm>
   d7758:	2800      	cmp	r0, #0
   d775a:	d1f5      	bne.n	d7748 <_ZN9FatVolume15allocateClusterEmPm+0x58>
   d775c:	e7f1      	b.n	d7742 <_ZN9FatVolume15allocateClusterEmPm+0x52>
  *next = find;
  return true;

fail:
  return false;
}
   d775e:	4638      	mov	r0, r7
   d7760:	b002      	add	sp, #8
   d7762:	e8bd 81f0 	ldmia.w	sp!, {r4, r5, r6, r7, r8, pc}

000d7766 <_ZN9FatVolume9freeChainEm>:
fail:
  return false;
}
//------------------------------------------------------------------------------
// free a cluster chain
bool FatVolume::freeChain(uint32_t cluster) {
   d7766:	b573      	push	{r0, r1, r4, r5, r6, lr}
   d7768:	4605      	mov	r5, r0
   d776a:	460c      	mov	r4, r1
  uint32_t next;
  int8_t fg;
  do {
    fg = fatGet(cluster, &next);
   d776c:	aa01      	add	r2, sp, #4
   d776e:	4621      	mov	r1, r4
   d7770:	4628      	mov	r0, r5
   d7772:	f7ff ff58 	bl	d7626 <_ZN9FatVolume6fatGetEmPm>
    if (fg < 0) {
   d7776:	1e06      	subs	r6, r0, #0
   d7778:	da01      	bge.n	d777e <_ZN9FatVolume9freeChainEm+0x18>
  } while (fg);

  return true;

fail:
  return false;
   d777a:	2000      	movs	r0, #0
   d777c:	e00f      	b.n	d779e <_ZN9FatVolume9freeChainEm+0x38>
    if (fg < 0) {
      DBG_FAIL_MACRO;
      goto fail;
    }
    // free cluster
    if (!fatPut(cluster, 0)) {
   d777e:	2200      	movs	r2, #0
   d7780:	4621      	mov	r1, r4
   d7782:	4628      	mov	r0, r5
   d7784:	f7ff ff86 	bl	d7694 <_ZN9FatVolume6fatPutEmm>
   d7788:	2800      	cmp	r0, #0
   d778a:	d0f6      	beq.n	d777a <_ZN9FatVolume9freeChainEm+0x14>
      goto fail;
    }
    // Add one to count of free clusters.
    updateFreeClusterCount(1);

    if (cluster <= m_allocSearchStart) {
   d778c:	68eb      	ldr	r3, [r5, #12]
   d778e:	429c      	cmp	r4, r3
      m_allocSearchStart = cluster - 1;
   d7790:	bf9c      	itt	ls
   d7792:	f104 34ff 	addls.w	r4, r4, #4294967295
   d7796:	60ec      	strls	r4, [r5, #12]
    }
    cluster = next;
   d7798:	9c01      	ldr	r4, [sp, #4]
//------------------------------------------------------------------------------
// free a cluster chain
bool FatVolume::freeChain(uint32_t cluster) {
  uint32_t next;
  int8_t fg;
  do {
   d779a:	2e00      	cmp	r6, #0
   d779c:	d1e6      	bne.n	d776c <_ZN9FatVolume9freeChainEm+0x6>

  return true;

fail:
  return false;
}
   d779e:	b002      	add	sp, #8
   d77a0:	bd70      	pop	{r4, r5, r6, pc}

000d77a2 <_ZN9FatVolume4initEh>:

fail:
  return -1;
}
//------------------------------------------------------------------------------
bool FatVolume::init(uint8_t part) {
   d77a2:	b570      	push	{r4, r5, r6, lr}
  uint32_t volumeStartBlock = 0;
  fat32_boot_t* fbs;
  cache_t* pc;
  uint8_t tmp;
  m_fatType = 0;
  m_allocSearchStart = 1;
   d77a4:	2301      	movs	r3, #1

fail:
  return -1;
}
//------------------------------------------------------------------------------
bool FatVolume::init(uint8_t part) {
   d77a6:	4604      	mov	r4, r0
  uint32_t totalBlocks;
  uint32_t volumeStartBlock = 0;
  fat32_boot_t* fbs;
  cache_t* pc;
  uint8_t tmp;
  m_fatType = 0;
   d77a8:	2200      	movs	r2, #0
  m_allocSearchStart = 1;
   d77aa:	60c3      	str	r3, [r0, #12]
    invalidate();
  }
  /** Invalidate current cache block. */
  void invalidate() {
    m_status = 0;
    m_lbn = 0XFFFFFFFF;
   d77ac:	f04f 33ff 	mov.w	r3, #4294967295
  uint32_t totalBlocks;
  uint32_t volumeStartBlock = 0;
  fat32_boot_t* fbs;
  cache_t* pc;
  uint8_t tmp;
  m_fatType = 0;
   d77b0:	71c2      	strb	r2, [r0, #7]
#if USE_SEPARATE_FAT_CACHE
  m_fatCache.init(this);
#endif  // USE_SEPARATE_FAT_CACHE
  // if part == 0 assume super floppy with FAT boot sector in block zero
  // if part > 0 assume mbr volume with partition table
  if (part) {
   d77b2:	460d      	mov	r5, r1
  }
  /** Initialize the cache.
   * \param[in] vol FatVolume that owns this FatCache.
   */
  void init(FatVolume *vol) {
    m_vol = vol;
   d77b4:	62a0      	str	r0, [r4, #40]	; 0x28
    invalidate();
  }
  /** Invalidate current cache block. */
  void invalidate() {
    m_status = 0;
   d77b6:	f880 2024 	strb.w	r2, [r0, #36]	; 0x24
    m_lbn = 0XFFFFFFFF;
   d77ba:	62c3      	str	r3, [r0, #44]	; 0x2c
  }
  /** Initialize the cache.
   * \param[in] vol FatVolume that owns this FatCache.
   */
  void init(FatVolume *vol) {
    m_vol = vol;
   d77bc:	f8c4 0234 	str.w	r0, [r4, #564]	; 0x234
    invalidate();
  }
  /** Invalidate current cache block. */
  void invalidate() {
    m_status = 0;
   d77c0:	f880 2230 	strb.w	r2, [r0, #560]	; 0x230
    m_lbn = 0XFFFFFFFF;
   d77c4:	f8c0 3238 	str.w	r3, [r0, #568]	; 0x238
   d77c8:	b1a1      	cbz	r1, d77f4 <_ZN9FatVolume4initEh+0x52>
    if (part > 4) {
   d77ca:	2904      	cmp	r1, #4
   d77cc:	d85d      	bhi.n	d788a <_ZN9FatVolume4initEh+0xe8>
  bool cacheSync() {
    return m_cache.sync() && syncBlocks();
  }
#endif  // USE_SEPARATE_FAT_CACHE
  cache_t* cacheFetchData(uint32_t blockNumber, uint8_t options) {
    return m_cache.read(blockNumber, options);
   d77ce:	4611      	mov	r1, r2
   d77d0:	3024      	adds	r0, #36	; 0x24
   d77d2:	f7ff fefe 	bl	d75d2 <_ZN8FatCache4readEmh>
      DBG_FAIL_MACRO;
      goto fail;
    }
    pc = cacheFetchData(0, FatCache::CACHE_FOR_READ);
    if (!pc) {
   d77d6:	2800      	cmp	r0, #0
   d77d8:	d057      	beq.n	d788a <_ZN9FatVolume4initEh+0xe8>
      DBG_FAIL_MACRO;
      goto fail;
    }
    part_t* p = &pc->mbr.part[part - 1];
    if ((p->boot & 0X7F) != 0 || p->firstSector == 0) {
   d77da:	eb00 1305 	add.w	r3, r0, r5, lsl #4
   d77de:	f893 31ae 	ldrb.w	r3, [r3, #430]	; 0x1ae
   d77e2:	065b      	lsls	r3, r3, #25
   d77e4:	d151      	bne.n	d788a <_ZN9FatVolume4initEh+0xe8>
   d77e6:	351b      	adds	r5, #27
   d77e8:	eb00 1505 	add.w	r5, r0, r5, lsl #4
   d77ec:	f8d5 5006 	ldr.w	r5, [r5, #6]
   d77f0:	2d00      	cmp	r5, #0
   d77f2:	d04a      	beq.n	d788a <_ZN9FatVolume4initEh+0xe8>
   d77f4:	2200      	movs	r2, #0
   d77f6:	4629      	mov	r1, r5
   d77f8:	f104 0024 	add.w	r0, r4, #36	; 0x24
   d77fc:	f7ff fee9 	bl	d75d2 <_ZN8FatCache4readEmh>
      goto fail;
    }
    volumeStartBlock = p->firstSector;
  }
  pc = cacheFetchData(volumeStartBlock, FatCache::CACHE_FOR_READ);
  if (!pc) {
   d7800:	2800      	cmp	r0, #0
   d7802:	d042      	beq.n	d788a <_ZN9FatVolume4initEh+0xe8>
    DBG_FAIL_MACRO;
    goto fail;
  }
  fbs = &(pc->fbs32);
  if (fbs->bytesPerSector != 512 ||
   d7804:	f8b0 300b 	ldrh.w	r3, [r0, #11]
   d7808:	f5b3 7f00 	cmp.w	r3, #512	; 0x200
   d780c:	d13d      	bne.n	d788a <_ZN9FatVolume4initEh+0xe8>
   d780e:	7c03      	ldrb	r3, [r0, #16]
   d7810:	2b02      	cmp	r3, #2
   d7812:	d13a      	bne.n	d788a <_ZN9FatVolume4initEh+0xe8>
      fbs->fatCount != 2 ||
   d7814:	89c3      	ldrh	r3, [r0, #14]
   d7816:	2b00      	cmp	r3, #0
   d7818:	d037      	beq.n	d788a <_ZN9FatVolume4initEh+0xe8>
      fbs->reservedSectorCount == 0) {
    // not valid FAT volume
    DBG_FAIL_MACRO;
    goto fail;
  }
  m_blocksPerCluster = fbs->sectorsPerCluster;
   d781a:	7b41      	ldrb	r1, [r0, #13]
   d781c:	7121      	strb	r1, [r4, #4]
  m_clusterBlockMask = m_blocksPerCluster - 1;
   d781e:	1e4b      	subs	r3, r1, #1
   d7820:	7163      	strb	r3, [r4, #5]
  // determine shift that is same as multiply by m_blocksPerCluster
  m_clusterSizeShift = 0;
   d7822:	2300      	movs	r3, #0
   d7824:	71a3      	strb	r3, [r4, #6]
   d7826:	2609      	movs	r6, #9
  for (tmp = 1; m_blocksPerCluster != tmp; tmp <<= 1, m_clusterSizeShift++) {
   d7828:	2301      	movs	r3, #1
   d782a:	428b      	cmp	r3, r1
   d782c:	d007      	beq.n	d783e <_ZN9FatVolume4initEh+0x9c>
    if (tmp == 0) {
   d782e:	3e01      	subs	r6, #1
   d7830:	d02b      	beq.n	d788a <_ZN9FatVolume4initEh+0xe8>
  }
  m_blocksPerCluster = fbs->sectorsPerCluster;
  m_clusterBlockMask = m_blocksPerCluster - 1;
  // determine shift that is same as multiply by m_blocksPerCluster
  m_clusterSizeShift = 0;
  for (tmp = 1; m_blocksPerCluster != tmp; tmp <<= 1, m_clusterSizeShift++) {
   d7832:	79a2      	ldrb	r2, [r4, #6]
   d7834:	005b      	lsls	r3, r3, #1
   d7836:	3201      	adds	r2, #1
   d7838:	b2db      	uxtb	r3, r3
   d783a:	71a2      	strb	r2, [r4, #6]
   d783c:	e7f5      	b.n	d782a <_ZN9FatVolume4initEh+0x88>
    if (tmp == 0) {
      DBG_FAIL_MACRO;
      goto fail;
    }
  }
  m_blocksPerFat = fbs->sectorsPerFat16 ?
   d783e:	8ac2      	ldrh	r2, [r0, #22]
                   fbs->sectorsPerFat16 : fbs->sectorsPerFat32;
   d7840:	b902      	cbnz	r2, d7844 <_ZN9FatVolume4initEh+0xa2>
   d7842:	6a42      	ldr	r2, [r0, #36]	; 0x24
   d7844:	6122      	str	r2, [r4, #16]

  m_fatStartBlock = volumeStartBlock + fbs->reservedSectorCount;
   d7846:	89c6      	ldrh	r6, [r0, #14]
   d7848:	442e      	add	r6, r5
   d784a:	61a6      	str	r6, [r4, #24]

  // count for FAT16 zero for FAT32
  m_rootDirEntryCount = fbs->rootDirEntryCount;
   d784c:	f8b0 3011 	ldrh.w	r3, [r0, #17]
   d7850:	8123      	strh	r3, [r4, #8]

  // directory start for FAT16 dataStart for FAT32
  m_rootDirStart = m_fatStartBlock + 2 * m_blocksPerFat;
   d7852:	eb06 0142 	add.w	r1, r6, r2, lsl #1
   d7856:	6221      	str	r1, [r4, #32]
  // data start for FAT16 and FAT32
  m_dataStartBlock = m_rootDirStart + ((32 * fbs->rootDirEntryCount + 511)/512);
   d7858:	f8b0 2011 	ldrh.w	r2, [r0, #17]
   d785c:	0152      	lsls	r2, r2, #5
   d785e:	f202 12ff 	addw	r2, r2, #511	; 0x1ff
   d7862:	eb01 2262 	add.w	r2, r1, r2, asr #9
   d7866:	6162      	str	r2, [r4, #20]

  // total blocks for FAT16 or FAT32
  totalBlocks = fbs->totalSectors16 ?
   d7868:	f8b0 3013 	ldrh.w	r3, [r0, #19]
                fbs->totalSectors16 : fbs->totalSectors32;
   d786c:	b903      	cbnz	r3, d7870 <_ZN9FatVolume4initEh+0xce>
   d786e:	6a03      	ldr	r3, [r0, #32]
  // total data blocks
  clusterCount = totalBlocks - (m_dataStartBlock - volumeStartBlock);
   d7870:	1aad      	subs	r5, r5, r2
   d7872:	442b      	add	r3, r5

  // divide by cluster size to get cluster count
  clusterCount >>= m_clusterSizeShift;
   d7874:	79a5      	ldrb	r5, [r4, #6]
   d7876:	fa23 f505 	lsr.w	r5, r3, r5
  m_lastCluster = clusterCount + 1;
   d787a:	1c6b      	adds	r3, r5, #1
   d787c:	61e3      	str	r3, [r4, #28]

  // Indicate unknown number of free clusters.
  setFreeClusterCount(-1);
  // FAT type is determined by cluster count
  if (clusterCount < 4085) {
   d787e:	f640 73f4 	movw	r3, #4084	; 0xff4
   d7882:	429d      	cmp	r5, r3
   d7884:	d803      	bhi.n	d788e <_ZN9FatVolume4initEh+0xec>
    m_fatType = 12;
   d7886:	230c      	movs	r3, #12
   d7888:	71e3      	strb	r3, [r4, #7]
    m_fatType = 32;
  }
  return true;

fail:
  return false;
   d788a:	2000      	movs	r0, #0
  // FAT type is determined by cluster count
  if (clusterCount < 4085) {
    m_fatType = 12;
    if (!FAT12_SUPPORT) {
      DBG_FAIL_MACRO;
      goto fail;
   d788c:	bd70      	pop	{r4, r5, r6, pc}
    }
  } else if (clusterCount < 65525) {
   d788e:	f64f 73f4 	movw	r3, #65524	; 0xfff4
   d7892:	429d      	cmp	r5, r3
    m_fatType = 16;
  } else {
    m_rootDirStart = fbs->fat32RootCluster;
   d7894:	bf85      	ittet	hi
   d7896:	6ac3      	ldrhi	r3, [r0, #44]	; 0x2c
   d7898:	6223      	strhi	r3, [r4, #32]
    if (!FAT12_SUPPORT) {
      DBG_FAIL_MACRO;
      goto fail;
    }
  } else if (clusterCount < 65525) {
    m_fatType = 16;
   d789a:	2310      	movls	r3, #16
  } else {
    m_rootDirStart = fbs->fat32RootCluster;
    m_fatType = 32;
   d789c:	2320      	movhi	r3, #32
   d789e:	71e3      	strb	r3, [r4, #7]
  }
  return true;
   d78a0:	2001      	movs	r0, #1

fail:
  return false;
}
   d78a2:	bd70      	pop	{r4, r5, r6, pc}

000d78a4 <_GLOBAL__sub_I__ZN8FatCache4readEmh>:
   d78a4:	f000 be4e 	b.w	d8544 <HAL_Pin_Map>

000d78a8 <_GLOBAL__sub_I__ZN10SdioCardEX9readBlockEmPh>:
   d78a8:	f000 be4c 	b.w	d8544 <HAL_Pin_Map>

000d78ac <_GLOBAL__sub_I__ZN11SdSpiCardEX9readBlockEmPh>:
   d78ac:	f000 be4a 	b.w	d8544 <HAL_Pin_Map>

000d78b0 <_ZN9SdSpiCard10isTimedOutEtt>:
    spiStop();
  }
  return rtn;
}
//------------------------------------------------------------------------------
bool SdSpiCard::isTimedOut(uint16_t startMS, uint16_t timeoutMS) {
   d78b0:	b570      	push	{r4, r5, r6, lr}
#if WDT_YIELD_TIME_MICROS
  static uint32_t last;
  if ((micros() - last) > WDT_YIELD_TIME_MICROS) {
   d78b2:	4c0e      	ldr	r4, [pc, #56]	; (d78ec <_ZN9SdSpiCard10isTimedOutEtt+0x3c>)
    spiStop();
  }
  return rtn;
}
//------------------------------------------------------------------------------
bool SdSpiCard::isTimedOut(uint16_t startMS, uint16_t timeoutMS) {
   d78b4:	460e      	mov	r6, r1
   d78b6:	4615      	mov	r5, r2
inline unsigned long micros(void) { return HAL_Timer_Get_Micro_Seconds(); }
   d78b8:	f000 ff04 	bl	d86c4 <HAL_Timer_Get_Micro_Seconds>
#if WDT_YIELD_TIME_MICROS
  static uint32_t last;
  if ((micros() - last) > WDT_YIELD_TIME_MICROS) {
   d78bc:	6823      	ldr	r3, [r4, #0]
   d78be:	1ac0      	subs	r0, r0, r3
   d78c0:	4b0b      	ldr	r3, [pc, #44]	; (d78f0 <_ZN9SdSpiCard10isTimedOutEtt+0x40>)
   d78c2:	4298      	cmp	r0, r3
   d78c4:	d908      	bls.n	d78d8 <_ZN9SdSpiCard10isTimedOutEtt+0x28>
		return !timeout_fn;
	}

	static inline system_tick_t current_time()
	{
		return HAL_Timer_Get_Milli_Seconds();
   d78c6:	f000 ff05 	bl	d86d4 <HAL_Timer_Get_Milli_Seconds>
	/**
	 * Lifesign that the application is still working normally.
	 */
	static void checkin()
	{
		last_checkin = current_time();
   d78ca:	4b0a      	ldr	r3, [pc, #40]	; (d78f4 <_ZN9SdSpiCard10isTimedOutEtt+0x44>)
   d78cc:	6018      	str	r0, [r3, #0]
        spark_cloud_flag_connect();
    }
    static void disconnect(void) { spark_cloud_flag_disconnect(); }
    static void process(void) {
    		application_checkin();
    		spark_process();
   d78ce:	f001 f945 	bl	d8b5c <spark_process>
   d78d2:	f000 fef7 	bl	d86c4 <HAL_Timer_Get_Micro_Seconds>
    SysCall::yield();
    last = micros();
   d78d6:	6020      	str	r0, [r4, #0]

#ifdef __cplusplus
extern "C" {
#endif

inline system_tick_t millis(void) { return HAL_Timer_Get_Milli_Seconds(); }
   d78d8:	f000 fefc 	bl	d86d4 <HAL_Timer_Get_Milli_Seconds>
  }
#endif  // WDT_YIELD_TIME_MICROS
  return (curTimeMS() - startMS) > timeoutMS;
   d78dc:	b280      	uxth	r0, r0
   d78de:	1b80      	subs	r0, r0, r6
}
   d78e0:	42a8      	cmp	r0, r5
   d78e2:	bfd4      	ite	le
   d78e4:	2000      	movle	r0, #0
   d78e6:	2001      	movgt	r0, #1
   d78e8:	bd70      	pop	{r4, r5, r6, pc}
   d78ea:	bf00      	nop
   d78ec:	2003e024 	.word	0x2003e024
   d78f0:	000186a0 	.word	0x000186a0
   d78f4:	2003e4c4 	.word	0x2003e4c4

000d78f8 <_ZN9SdSpiCard8spiStartEv>:
fail:
  spiStop();
  return false;
}
//-----------------------------------------------------------------------------
void SdSpiCard::spiStart() {
   d78f8:	b538      	push	{r3, r4, r5, lr}
  if (!m_spiActive) {
   d78fa:	7a05      	ldrb	r5, [r0, #8]
fail:
  spiStop();
  return false;
}
//-----------------------------------------------------------------------------
void SdSpiCard::spiStart() {
   d78fc:	4604      	mov	r4, r0
  if (!m_spiActive) {
   d78fe:	b94d      	cbnz	r5, d7914 <_ZN9SdSpiCard8spiStartEv+0x1c>
  bool writeData(uint8_t token, const uint8_t* src);

  //---------------------------------------------------------------------------
  // functions defined in SdSpiDriver.h
  void spiActivate() {
    m_spiDriver->activate();
   d7900:	6840      	ldr	r0, [r0, #4]
   d7902:	f000 fa7d 	bl	d7e00 <_ZN14SdSpiAltDriver8activateEv>
   d7906:	6863      	ldr	r3, [r4, #4]
   * \param[in] n Number of bytes to send.
   */
  void send(const uint8_t* buf, size_t n);
  /** Set CS low. */
  void select() {
     digitalWrite(m_csPin, LOW);
   d7908:	4629      	mov	r1, r5
   d790a:	7d18      	ldrb	r0, [r3, #20]
   d790c:	f002 fe05 	bl	da51a <digitalWrite>
    spiActivate();
    spiSelect();
    m_spiActive = true;
   d7910:	2301      	movs	r3, #1
   d7912:	7223      	strb	r3, [r4, #8]
   d7914:	bd38      	pop	{r3, r4, r5, pc}

000d7916 <_ZN9SdSpiCard7spiStopEv>:
  }
}
//-----------------------------------------------------------------------------
void SdSpiCard::spiStop() {
   d7916:	b510      	push	{r4, lr}
  if (m_spiActive) {
   d7918:	7a03      	ldrb	r3, [r0, #8]
    spiSelect();
    m_spiActive = true;
  }
}
//-----------------------------------------------------------------------------
void SdSpiCard::spiStop() {
   d791a:	4604      	mov	r4, r0
  if (m_spiActive) {
   d791c:	b16b      	cbz	r3, d793a <_ZN9SdSpiCard7spiStopEv+0x24>
   d791e:	6843      	ldr	r3, [r0, #4]
  void setSpiSettings(SPISettings spiSettings) {
    m_spiSettings = spiSettings;
  }
  /** Set CS high. */
  void unselect() {
    digitalWrite(m_csPin, HIGH);
   d7920:	2101      	movs	r1, #1
   d7922:	7d18      	ldrb	r0, [r3, #20]
   d7924:	f002 fdf9 	bl	da51a <digitalWrite>
  }
  uint8_t spiReceive(uint8_t* buf, size_t n) {
    return  m_spiDriver->receive(buf, n);
  }
  void spiSend(uint8_t data) {
     m_spiDriver->send(data);
   d7928:	21ff      	movs	r1, #255	; 0xff
   d792a:	6860      	ldr	r0, [r4, #4]
   d792c:	f000 fa9a 	bl	d7e64 <_ZN14SdSpiAltDriver4sendEh>
  // functions defined in SdSpiDriver.h
  void spiActivate() {
    m_spiDriver->activate();
  }
  void spiDeactivate() {
    m_spiDriver->deactivate();
   d7930:	6860      	ldr	r0, [r4, #4]
   d7932:	f000 fa79 	bl	d7e28 <_ZN14SdSpiAltDriver10deactivateEv>
    spiUnselect();
    spiSend(0XFF);
    spiDeactivate();
    m_spiActive = false;
   d7936:	2300      	movs	r3, #0
   d7938:	7223      	strb	r3, [r4, #8]
   d793a:	bd10      	pop	{r4, pc}

000d793c <_ZN9SdSpiCard8readDataEPhj>:
//------------------------------------------------------------------------------
bool SdSpiCard::readData(uint8_t *dst) {
  return readData(dst, 512);
}
//------------------------------------------------------------------------------
bool SdSpiCard::readData(uint8_t* dst, size_t count) {
   d793c:	b5f8      	push	{r3, r4, r5, r6, r7, lr}
   d793e:	4604      	mov	r4, r0
   d7940:	460d      	mov	r5, r1
   d7942:	4616      	mov	r6, r2
   d7944:	f000 fec6 	bl	d86d4 <HAL_Timer_Get_Milli_Seconds>
#define F(str) (str)
#endif  // F
//------------------------------------------------------------------------------
/** \return the time in milliseconds. */
inline uint16_t curTimeMS() {
  return millis();
   d7948:	b287      	uxth	r7, r0
  }
  uint8_t spiReceive() {
    return m_spiDriver->receive();
   d794a:	6860      	ldr	r0, [r4, #4]
   d794c:	f000 fa6f 	bl	d7e2e <_ZN14SdSpiAltDriver7receiveEv>
  uint16_t crc;
#endif  // USE_SD_CRC
  DBG_BEGIN_TIME(DBG_WAIT_READ);
  // wait for start block token
  uint16_t t0 = curTimeMS();
  while ((m_status = spiReceive()) == 0XFF) {
   d7950:	28ff      	cmp	r0, #255	; 0xff
   d7952:	7260      	strb	r0, [r4, #9]
   d7954:	d109      	bne.n	d796a <_ZN9SdSpiCard8readDataEPhj+0x2e>
    if (isTimedOut(t0, SD_READ_TIMEOUT)) {
   d7956:	f44f 727a 	mov.w	r2, #1000	; 0x3e8
   d795a:	4639      	mov	r1, r7
   d795c:	4620      	mov	r0, r4
   d795e:	f7ff ffa7 	bl	d78b0 <_ZN9SdSpiCard10isTimedOutEtt>
   d7962:	2800      	cmp	r0, #0
   d7964:	d0f1      	beq.n	d794a <_ZN9SdSpiCard8readDataEPhj+0xe>
  /**
   *  Set SD error code.
   *  \param[in] code value for error code.
   */
  void error(uint8_t code) {
    m_errorCode = code;
   d7966:	2355      	movs	r3, #85	; 0x55
   d7968:	e00b      	b.n	d7982 <_ZN9SdSpiCard8readDataEPhj+0x46>
      error(SD_CARD_ERROR_READ_TIMEOUT);
      goto fail;
    }
  }
  DBG_END_TIME(DBG_WAIT_READ);
  if (m_status != DATA_START_BLOCK) {
   d796a:	28fe      	cmp	r0, #254	; 0xfe
   d796c:	d001      	beq.n	d7972 <_ZN9SdSpiCard8readDataEPhj+0x36>
   d796e:	2350      	movs	r3, #80	; 0x50
   d7970:	e007      	b.n	d7982 <_ZN9SdSpiCard8readDataEPhj+0x46>
  }
  uint8_t spiReceive() {
    return m_spiDriver->receive();
  }
  uint8_t spiReceive(uint8_t* buf, size_t n) {
    return  m_spiDriver->receive(buf, n);
   d7972:	4632      	mov	r2, r6
   d7974:	4629      	mov	r1, r5
   d7976:	6860      	ldr	r0, [r4, #4]
   d7978:	f000 fa5e 	bl	d7e38 <_ZN14SdSpiAltDriver7receiveEPhj>
    error(SD_CARD_ERROR_READ);
    goto fail;
  }
  // transfer data
  if ((m_status = spiReceive(dst, count))) {
   d797c:	7260      	strb	r0, [r4, #9]
   d797e:	b130      	cbz	r0, d798e <_ZN9SdSpiCard8readDataEPhj+0x52>
  /**
   *  Set SD error code.
   *  \param[in] code value for error code.
   */
  void error(uint8_t code) {
    m_errorCode = code;
   d7980:	2360      	movs	r3, #96	; 0x60
  spiReceive();
#endif  // USE_SD_CRC
  return true;

fail:
  spiStop();
   d7982:	4620      	mov	r0, r4
   d7984:	7023      	strb	r3, [r4, #0]
   d7986:	f7ff ffc6 	bl	d7916 <_ZN9SdSpiCard7spiStopEv>
  return false;
   d798a:	2000      	movs	r0, #0
}
   d798c:	bdf8      	pop	{r3, r4, r5, r6, r7, pc}
  }
  void spiDeactivate() {
    m_spiDriver->deactivate();
  }
  uint8_t spiReceive() {
    return m_spiDriver->receive();
   d798e:	6860      	ldr	r0, [r4, #4]
   d7990:	f000 fa4d 	bl	d7e2e <_ZN14SdSpiAltDriver7receiveEv>
   d7994:	6860      	ldr	r0, [r4, #4]
   d7996:	f000 fa4a 	bl	d7e2e <_ZN14SdSpiAltDriver7receiveEv>
   d799a:	2001      	movs	r0, #1
   d799c:	bdf8      	pop	{r3, r4, r5, r6, r7, pc}

000d799e <_ZN9SdSpiCard11waitNotBusyEt>:
  spiStop();
  return false;
}
//------------------------------------------------------------------------------
// wait for card to go not busy
bool SdSpiCard::waitNotBusy(uint16_t timeoutMS) {
   d799e:	b570      	push	{r4, r5, r6, lr}
   d79a0:	4604      	mov	r4, r0
   d79a2:	460e      	mov	r6, r1
   d79a4:	f000 fe96 	bl	d86d4 <HAL_Timer_Get_Milli_Seconds>
   d79a8:	b285      	uxth	r5, r0
  uint16_t t0 = curTimeMS();
#if WDT_YIELD_TIME_MICROS
  // Call isTimedOut first to insure yield is called.
  while (!isTimedOut(t0, timeoutMS)) {
   d79aa:	4632      	mov	r2, r6
   d79ac:	4629      	mov	r1, r5
   d79ae:	4620      	mov	r0, r4
   d79b0:	f7ff ff7e 	bl	d78b0 <_ZN9SdSpiCard10isTimedOutEtt>
   d79b4:	b930      	cbnz	r0, d79c4 <_ZN9SdSpiCard11waitNotBusyEt+0x26>
   d79b6:	6860      	ldr	r0, [r4, #4]
   d79b8:	f000 fa39 	bl	d7e2e <_ZN14SdSpiAltDriver7receiveEv>
    if (spiReceive() == 0XFF) {
   d79bc:	28ff      	cmp	r0, #255	; 0xff
   d79be:	d1f4      	bne.n	d79aa <_ZN9SdSpiCard11waitNotBusyEt+0xc>
      return true;
   d79c0:	2001      	movs	r0, #1
   d79c2:	bd70      	pop	{r4, r5, r6, pc}
    }
  }
  return false;
   d79c4:	2000      	movs	r0, #0
      return false;
    }
  }
  return true;
#endif  // WDT_YIELD_TIME_MICROS
}
   d79c6:	bd70      	pop	{r4, r5, r6, pc}

000d79c8 <_ZN9SdSpiCard11cardCommandEhm>:
  spiStop();
  return false;
}
//------------------------------------------------------------------------------
// send command and return error code.  Return zero for OK
uint8_t SdSpiCard::cardCommand(uint8_t cmd, uint32_t arg) {
   d79c8:	b5f7      	push	{r0, r1, r2, r4, r5, r6, r7, lr}
  // select card
  if (!m_spiActive) {
   d79ca:	7a03      	ldrb	r3, [r0, #8]
  spiStop();
  return false;
}
//------------------------------------------------------------------------------
// send command and return error code.  Return zero for OK
uint8_t SdSpiCard::cardCommand(uint8_t cmd, uint32_t arg) {
   d79cc:	9201      	str	r2, [sp, #4]
   d79ce:	4604      	mov	r4, r0
   d79d0:	460d      	mov	r5, r1
  // select card
  if (!m_spiActive) {
   d79d2:	b90b      	cbnz	r3, d79d8 <_ZN9SdSpiCard11cardCommandEhm+0x10>
    spiStart();
   d79d4:	f7ff ff90 	bl	d78f8 <_ZN9SdSpiCard8spiStartEv>
  }
  // wait if busy unless CMD0
  if (cmd != CMD0) {
   d79d8:	b125      	cbz	r5, d79e4 <_ZN9SdSpiCard11cardCommandEhm+0x1c>
    DBG_BEGIN_TIME(DBG_CMD_BUSY);
    waitNotBusy(SD_CMD_TIMEOUT);
   d79da:	f44f 7196 	mov.w	r1, #300	; 0x12c
   d79de:	4620      	mov	r0, r4
   d79e0:	f7ff ffdd 	bl	d799e <_ZN9SdSpiCard11waitNotBusyEt>
  }
  uint8_t spiReceive(uint8_t* buf, size_t n) {
    return  m_spiDriver->receive(buf, n);
  }
  void spiSend(uint8_t data) {
     m_spiDriver->send(data);
   d79e4:	f045 0140 	orr.w	r1, r5, #64	; 0x40
   d79e8:	6860      	ldr	r0, [r4, #4]
   d79ea:	f000 fa3b 	bl	d7e64 <_ZN14SdSpiAltDriver4sendEh>
   d79ee:	f10d 0607 	add.w	r6, sp, #7
   d79f2:	f10d 0703 	add.w	r7, sp, #3
   d79f6:	f816 1901 	ldrb.w	r1, [r6], #-1
   d79fa:	6860      	ldr	r0, [r4, #4]
   d79fc:	f000 fa32 	bl	d7e64 <_ZN14SdSpiAltDriver4sendEh>
  // send command
  spiSend(cmd | 0x40);

  // send argument
  uint8_t *pa = reinterpret_cast<uint8_t *>(&arg);
  for (int8_t i = 3; i >= 0; i--) {
   d7a00:	42be      	cmp	r6, r7
   d7a02:	d1f8      	bne.n	d79f6 <_ZN9SdSpiCard11cardCommandEhm+0x2e>
    spiSend(pa[i]);
  }
  // send CRC - correct for CMD0 with arg zero or CMD8 with arg 0X1AA
  spiSend(cmd == CMD0 ? 0X95 : 0X87);
   d7a04:	2d00      	cmp	r5, #0
   d7a06:	bf0c      	ite	eq
   d7a08:	2195      	moveq	r1, #149	; 0x95
   d7a0a:	2187      	movne	r1, #135	; 0x87
   d7a0c:	6860      	ldr	r0, [r4, #4]
   d7a0e:	f000 fa29 	bl	d7e64 <_ZN14SdSpiAltDriver4sendEh>
  }
  void spiDeactivate() {
    m_spiDriver->deactivate();
  }
  uint8_t spiReceive() {
    return m_spiDriver->receive();
   d7a12:	6860      	ldr	r0, [r4, #4]
   d7a14:	f000 fa0b 	bl	d7e2e <_ZN14SdSpiAltDriver7receiveEv>
   d7a18:	250b      	movs	r5, #11
   d7a1a:	6860      	ldr	r0, [r4, #4]
   d7a1c:	f000 fa07 	bl	d7e2e <_ZN14SdSpiAltDriver7receiveEv>

  // discard first fill byte to avoid MISO pull-up problem.
  spiReceive();

  // there are 1-8 fill bytes before response.  fill bytes should be 0XFF.
  for (uint8_t i = 0; ((m_status = spiReceive()) & 0X80) && i < 10; i++) {
   d7a20:	0603      	lsls	r3, r0, #24
   d7a22:	7260      	strb	r0, [r4, #9]
   d7a24:	d503      	bpl.n	d7a2e <_ZN9SdSpiCard11cardCommandEhm+0x66>
   d7a26:	3d01      	subs	r5, #1
   d7a28:	f015 05ff 	ands.w	r5, r5, #255	; 0xff
   d7a2c:	d1f5      	bne.n	d7a1a <_ZN9SdSpiCard11cardCommandEhm+0x52>
  }
  return m_status;
}
   d7a2e:	b003      	add	sp, #12
   d7a30:	bdf0      	pop	{r4, r5, r6, r7, pc}

000d7a32 <_ZN9SdSpiCard8cardAcmdEhm>:
  /** Set CS high and deactivate the card. */
  void spiStop();

 private:
  // private functions
  uint8_t cardAcmd(uint8_t cmd, uint32_t arg) {
   d7a32:	b570      	push	{r4, r5, r6, lr}
   d7a34:	4604      	mov	r4, r0
   d7a36:	460d      	mov	r5, r1
   d7a38:	4616      	mov	r6, r2
    cardCommand(CMD55, 0);
   d7a3a:	2137      	movs	r1, #55	; 0x37
   d7a3c:	2200      	movs	r2, #0
   d7a3e:	f7ff ffc3 	bl	d79c8 <_ZN9SdSpiCard11cardCommandEhm>
    return cardCommand(cmd, arg);
   d7a42:	4632      	mov	r2, r6
   d7a44:	4629      	mov	r1, r5
   d7a46:	4620      	mov	r0, r4
  }
   d7a48:	e8bd 4070 	ldmia.w	sp!, {r4, r5, r6, lr}

 private:
  // private functions
  uint8_t cardAcmd(uint8_t cmd, uint32_t arg) {
    cardCommand(CMD55, 0);
    return cardCommand(cmd, arg);
   d7a4c:	f7ff bfbc 	b.w	d79c8 <_ZN9SdSpiCard11cardCommandEhm>

000d7a50 <_ZN9SdSpiCard5beginEP14SdSpiAltDriverhN8particle13__SPISettingsE>:
#endif  // CRC_CCITT
#endif  // USE_SD_CRC
//==============================================================================
// SdSpiCard member functions
//------------------------------------------------------------------------------
bool SdSpiCard::begin(SdSpiDriver* spi, uint8_t csPin, SPISettings settings) {
   d7a50:	e92d 41f0 	stmdb	sp!, {r4, r5, r6, r7, r8, lr}
  m_spiActive = false;
   d7a54:	2500      	movs	r5, #0
   d7a56:	7205      	strb	r5, [r0, #8]
  m_errorCode = SD_CARD_ERROR_NONE;
   d7a58:	7005      	strb	r5, [r0, #0]
  m_type = 0;
   d7a5a:	7285      	strb	r5, [r0, #10]
  m_spiDriver = spi;
   d7a5c:	6041      	str	r1, [r0, #4]
#endif  // CRC_CCITT
#endif  // USE_SD_CRC
//==============================================================================
// SdSpiCard member functions
//------------------------------------------------------------------------------
bool SdSpiCard::begin(SdSpiDriver* spi, uint8_t csPin, SPISettings settings) {
   d7a5e:	4604      	mov	r4, r0
   d7a60:	4690      	mov	r8, r2
   d7a62:	461e      	mov	r6, r3
   d7a64:	f000 fe36 	bl	d86d4 <HAL_Timer_Get_Milli_Seconds>
  m_type = 0;
  m_spiDriver = spi;
  uint16_t t0 = curTimeMS();
  uint32_t arg;

  m_spiDriver->begin(csPin);
   d7a68:	4641      	mov	r1, r8
   d7a6a:	4607      	mov	r7, r0
   d7a6c:	6860      	ldr	r0, [r4, #4]
   d7a6e:	f000 f9cb 	bl	d7e08 <_ZN14SdSpiAltDriver5beginEh>
  m_spiDriver->setSpiSettings(SD_SCK_HZ(250000));
   d7a72:	6863      	ldr	r3, [r4, #4]
    SPI_CLK_ARDUINO = 16*MHZ,
    SPI_CLK_PHOTON = 60*MHZ
};

namespace particle {
class __SPISettings : public Printable {
   d7a74:	4a4f      	ldr	r2, [pc, #316]	; (d7bb4 <_ZN9SdSpiCard5beginEP14SdSpiAltDriverhN8particle13__SPISettingsE+0x164>)
   d7a76:	721d      	strb	r5, [r3, #8]
   d7a78:	f04f 0801 	mov.w	r8, #1
   d7a7c:	60da      	str	r2, [r3, #12]
   d7a7e:	745d      	strb	r5, [r3, #17]
   d7a80:	f883 8010 	strb.w	r8, [r3, #16]
  spiStart();
   d7a84:	4620      	mov	r0, r4
   d7a86:	f7ff ff37 	bl	d78f8 <_ZN9SdSpiCard8spiStartEv>
   d7a8a:	6863      	ldr	r3, [r4, #4]
   d7a8c:	4641      	mov	r1, r8
   d7a8e:	7d18      	ldrb	r0, [r3, #20]
   d7a90:	f002 fd43 	bl	da51a <digitalWrite>
   d7a94:	250a      	movs	r5, #10
  }
  uint8_t spiReceive(uint8_t* buf, size_t n) {
    return  m_spiDriver->receive(buf, n);
  }
  void spiSend(uint8_t data) {
     m_spiDriver->send(data);
   d7a96:	21ff      	movs	r1, #255	; 0xff
   d7a98:	6860      	ldr	r0, [r4, #4]
   d7a9a:	3d01      	subs	r5, #1
   d7a9c:	f000 f9e2 	bl	d7e64 <_ZN14SdSpiAltDriver4sendEh>

  // must supply min of 74 clock cycles with CS high.
  spiUnselect();
  for (uint8_t i = 0; i < 10; i++) {
   d7aa0:	f015 05ff 	ands.w	r5, r5, #255	; 0xff
   d7aa4:	d1f7      	bne.n	d7a96 <_ZN9SdSpiCard5beginEP14SdSpiAltDriverhN8particle13__SPISettingsE+0x46>
   d7aa6:	6863      	ldr	r3, [r4, #4]
   * \param[in] n Number of bytes to send.
   */
  void send(const uint8_t* buf, size_t n);
  /** Set CS low. */
  void select() {
     digitalWrite(m_csPin, LOW);
   d7aa8:	4629      	mov	r1, r5
   d7aaa:	7d18      	ldrb	r0, [r3, #20]
   d7aac:	f002 fd35 	bl	da51a <digitalWrite>
   d7ab0:	250a      	movs	r5, #10

  DBG_BEGIN_TIME(DBG_CMD0_TIME);
  // command to go idle in SPI mode
  for (uint8_t i = 1;; i++) {
    DBG_EVENT_COUNT(DBG_CMD0_COUNT);
    if (cardCommand(CMD0, 0) == R1_IDLE_STATE) {
   d7ab2:	2200      	movs	r2, #0
   d7ab4:	4611      	mov	r1, r2
   d7ab6:	4620      	mov	r0, r4
   d7ab8:	f7ff ff86 	bl	d79c8 <_ZN9SdSpiCard11cardCommandEhm>
   d7abc:	2801      	cmp	r0, #1
   d7abe:	4680      	mov	r8, r0
   d7ac0:	d012      	beq.n	d7ae8 <_ZN9SdSpiCard5beginEP14SdSpiAltDriverhN8particle13__SPISettingsE+0x98>
   d7ac2:	3d01      	subs	r5, #1
      break;
    }
    if (i == SD_CMD0_RETRY) {
   d7ac4:	f015 05ff 	ands.w	r5, r5, #255	; 0xff
   d7ac8:	d101      	bne.n	d7ace <_ZN9SdSpiCard5beginEP14SdSpiAltDriverhN8particle13__SPISettingsE+0x7e>
  /**
   *  Set SD error code.
   *  \param[in] code value for error code.
   */
  void error(uint8_t code) {
    m_errorCode = code;
   d7aca:	2320      	movs	r3, #32
   d7acc:	e057      	b.n	d7b7e <_ZN9SdSpiCard5beginEP14SdSpiAltDriverhN8particle13__SPISettingsE+0x12e>
  }
  uint8_t spiReceive(uint8_t* buf, size_t n) {
    return  m_spiDriver->receive(buf, n);
  }
  void spiSend(uint8_t data) {
     m_spiDriver->send(data);
   d7ace:	21fd      	movs	r1, #253	; 0xfd
   d7ad0:	6860      	ldr	r0, [r4, #4]
   d7ad2:	f000 f9c7 	bl	d7e64 <_ZN14SdSpiAltDriver4sendEh>
   d7ad6:	f44f 7802 	mov.w	r8, #520	; 0x208
  }
  void spiDeactivate() {
    m_spiDriver->deactivate();
  }
  uint8_t spiReceive() {
    return m_spiDriver->receive();
   d7ada:	6860      	ldr	r0, [r4, #4]
   d7adc:	f000 f9a7 	bl	d7e2e <_ZN14SdSpiAltDriver7receiveEv>
      goto fail;
    }
    // stop multi-block write
    spiSend(STOP_TRAN_TOKEN);
    // finish block transfer
    for (int i = 0; i < 520; i++) {
   d7ae0:	f1b8 0801 	subs.w	r8, r8, #1
   d7ae4:	d1f9      	bne.n	d7ada <_ZN9SdSpiCard5beginEP14SdSpiAltDriverhN8particle13__SPISettingsE+0x8a>
   d7ae6:	e7e4      	b.n	d7ab2 <_ZN9SdSpiCard5beginEP14SdSpiAltDriverhN8particle13__SPISettingsE+0x62>
    error(SD_CARD_ERROR_CMD59);
    goto fail;
  }
#endif  // USE_SD_CRC
  // check SD version
  if (cardCommand(CMD8, 0x1AA) == (R1_ILLEGAL_COMMAND | R1_IDLE_STATE)) {
   d7ae8:	f44f 72d5 	mov.w	r2, #426	; 0x1aa
   d7aec:	2108      	movs	r1, #8
   d7aee:	4620      	mov	r0, r4
   d7af0:	f7ff ff6a 	bl	d79c8 <_ZN9SdSpiCard11cardCommandEhm>
   d7af4:	2805      	cmp	r0, #5
   d7af6:	d102      	bne.n	d7afe <_ZN9SdSpiCard5beginEP14SdSpiAltDriverhN8particle13__SPISettingsE+0xae>
  bool isTimedOut(uint16_t startMS, uint16_t timeoutMS);
  bool readData(uint8_t* dst, size_t count);
  bool readRegister(uint8_t cmd, void* buf);

  void type(uint8_t value) {
    m_type = value;
   d7af8:	f884 800a 	strb.w	r8, [r4, #10]
   d7afc:	e00f      	b.n	d7b1e <_ZN9SdSpiCard5beginEP14SdSpiAltDriverhN8particle13__SPISettingsE+0xce>
   d7afe:	2504      	movs	r5, #4
  }
  void spiDeactivate() {
    m_spiDriver->deactivate();
  }
  uint8_t spiReceive() {
    return m_spiDriver->receive();
   d7b00:	6860      	ldr	r0, [r4, #4]
   d7b02:	f000 f994 	bl	d7e2e <_ZN14SdSpiAltDriver7receiveEv>
   d7b06:	3d01      	subs	r5, #1
    type(SD_CARD_TYPE_SD1);
  } else {
    for (uint8_t i = 0; i < 4; i++) {
   d7b08:	f015 05ff 	ands.w	r5, r5, #255	; 0xff
      m_status = spiReceive();
   d7b0c:	7260      	strb	r0, [r4, #9]
#endif  // USE_SD_CRC
  // check SD version
  if (cardCommand(CMD8, 0x1AA) == (R1_ILLEGAL_COMMAND | R1_IDLE_STATE)) {
    type(SD_CARD_TYPE_SD1);
  } else {
    for (uint8_t i = 0; i < 4; i++) {
   d7b0e:	d1f7      	bne.n	d7b00 <_ZN9SdSpiCard5beginEP14SdSpiAltDriverhN8particle13__SPISettingsE+0xb0>
      m_status = spiReceive();
    }
    if (m_status == 0XAA) {
   d7b10:	28aa      	cmp	r0, #170	; 0xaa
   d7b12:	d102      	bne.n	d7b1a <_ZN9SdSpiCard5beginEP14SdSpiAltDriverhN8particle13__SPISettingsE+0xca>
  bool isTimedOut(uint16_t startMS, uint16_t timeoutMS);
  bool readData(uint8_t* dst, size_t count);
  bool readRegister(uint8_t cmd, void* buf);

  void type(uint8_t value) {
    m_type = value;
   d7b14:	2302      	movs	r3, #2
   d7b16:	72a3      	strb	r3, [r4, #10]
   d7b18:	e001      	b.n	d7b1e <_ZN9SdSpiCard5beginEP14SdSpiAltDriverhN8particle13__SPISettingsE+0xce>
  /**
   *  Set SD error code.
   *  \param[in] code value for error code.
   */
  void error(uint8_t code) {
    m_errorCode = code;
   d7b1a:	2325      	movs	r3, #37	; 0x25
   d7b1c:	e02f      	b.n	d7b7e <_ZN9SdSpiCard5beginEP14SdSpiAltDriverhN8particle13__SPISettingsE+0x12e>
      error(SD_CARD_ERROR_CMD8);
      goto fail;
    }
  }
  // initialize card and send host supports SDHC if SD2
  arg = type() == SD_CARD_TYPE_SD2 ? 0X40000000 : 0;
   d7b1e:	7aa3      	ldrb	r3, [r4, #10]
   d7b20:	2b02      	cmp	r3, #2
   d7b22:	bf0c      	ite	eq
   d7b24:	f04f 4580 	moveq.w	r5, #1073741824	; 0x40000000
   d7b28:	2500      	movne	r5, #0
  DBG_BEGIN_TIME(DBG_ACMD41_TIME);
  while (cardAcmd(ACMD41, arg) != R1_READY_STATE) {
    DBG_EVENT_COUNT(DBG_ACMD41_COUNT);
    // check for timeout
    if (isTimedOut(t0, SD_INIT_TIMEOUT)) {
   d7b2a:	b2bf      	uxth	r7, r7
    }
  }
  // initialize card and send host supports SDHC if SD2
  arg = type() == SD_CARD_TYPE_SD2 ? 0X40000000 : 0;
  DBG_BEGIN_TIME(DBG_ACMD41_TIME);
  while (cardAcmd(ACMD41, arg) != R1_READY_STATE) {
   d7b2c:	462a      	mov	r2, r5
   d7b2e:	2129      	movs	r1, #41	; 0x29
   d7b30:	4620      	mov	r0, r4
   d7b32:	f7ff ff7e 	bl	d7a32 <_ZN9SdSpiCard8cardAcmdEhm>
   d7b36:	4602      	mov	r2, r0
   d7b38:	b148      	cbz	r0, d7b4e <_ZN9SdSpiCard5beginEP14SdSpiAltDriverhN8particle13__SPISettingsE+0xfe>
    DBG_EVENT_COUNT(DBG_ACMD41_COUNT);
    // check for timeout
    if (isTimedOut(t0, SD_INIT_TIMEOUT)) {
   d7b3a:	f44f 62fa 	mov.w	r2, #2000	; 0x7d0
   d7b3e:	4639      	mov	r1, r7
   d7b40:	4620      	mov	r0, r4
   d7b42:	f7ff feb5 	bl	d78b0 <_ZN9SdSpiCard10isTimedOutEtt>
   d7b46:	2800      	cmp	r0, #0
   d7b48:	d0f0      	beq.n	d7b2c <_ZN9SdSpiCard5beginEP14SdSpiAltDriverhN8particle13__SPISettingsE+0xdc>
   d7b4a:	2343      	movs	r3, #67	; 0x43
   d7b4c:	e017      	b.n	d7b7e <_ZN9SdSpiCard5beginEP14SdSpiAltDriverhN8particle13__SPISettingsE+0x12e>
      goto fail;
    }
  }
  DBG_END_TIME(DBG_ACMD41_TIME);
  // if SD2 read OCR register to check for SDHC card
  if (type() == SD_CARD_TYPE_SD2) {
   d7b4e:	7aa3      	ldrb	r3, [r4, #10]
   d7b50:	2b02      	cmp	r3, #2
   d7b52:	d00e      	beq.n	d7b72 <_ZN9SdSpiCard5beginEP14SdSpiAltDriverhN8particle13__SPISettingsE+0x122>
    // Discard rest of ocr - contains allowed voltage range.
    for (uint8_t i = 0; i < 3; i++) {
      spiReceive();
    }
  }
  spiStop();
   d7b54:	4620      	mov	r0, r4
   d7b56:	f7ff fede 	bl	d7916 <_ZN9SdSpiCard7spiStopEv>
  m_spiDriver->setSpiSettings(settings);
   d7b5a:	6863      	ldr	r3, [r4, #4]
   d7b5c:	68b0      	ldr	r0, [r6, #8]
   d7b5e:	7934      	ldrb	r4, [r6, #4]
   d7b60:	7b31      	ldrb	r1, [r6, #12]
   d7b62:	7b72      	ldrb	r2, [r6, #13]
   d7b64:	745a      	strb	r2, [r3, #17]
   d7b66:	60d8      	str	r0, [r3, #12]
   d7b68:	721c      	strb	r4, [r3, #8]
   d7b6a:	7419      	strb	r1, [r3, #16]
  return true;
   d7b6c:	2001      	movs	r0, #1
   d7b6e:	e8bd 81f0 	ldmia.w	sp!, {r4, r5, r6, r7, r8, pc}
    }
  }
  DBG_END_TIME(DBG_ACMD41_TIME);
  // if SD2 read OCR register to check for SDHC card
  if (type() == SD_CARD_TYPE_SD2) {
    if (cardCommand(CMD58, 0)) {
   d7b72:	213a      	movs	r1, #58	; 0x3a
   d7b74:	4620      	mov	r0, r4
   d7b76:	f7ff ff27 	bl	d79c8 <_ZN9SdSpiCard11cardCommandEhm>
   d7b7a:	b138      	cbz	r0, d7b8c <_ZN9SdSpiCard5beginEP14SdSpiAltDriverhN8particle13__SPISettingsE+0x13c>
   d7b7c:	2337      	movs	r3, #55	; 0x37
  spiStop();
  m_spiDriver->setSpiSettings(settings);
  return true;

fail:
  spiStop();
   d7b7e:	4620      	mov	r0, r4
   d7b80:	7023      	strb	r3, [r4, #0]
   d7b82:	f7ff fec8 	bl	d7916 <_ZN9SdSpiCard7spiStopEv>
  return false;
   d7b86:	2000      	movs	r0, #0
}
   d7b88:	e8bd 81f0 	ldmia.w	sp!, {r4, r5, r6, r7, r8, pc}
  }
  void spiDeactivate() {
    m_spiDriver->deactivate();
  }
  uint8_t spiReceive() {
    return m_spiDriver->receive();
   d7b8c:	6860      	ldr	r0, [r4, #4]
   d7b8e:	f000 f94e 	bl	d7e2e <_ZN14SdSpiAltDriver7receiveEv>
  if (type() == SD_CARD_TYPE_SD2) {
    if (cardCommand(CMD58, 0)) {
      error(SD_CARD_ERROR_CMD58);
      goto fail;
    }
    if ((spiReceive() & 0XC0) == 0XC0) {
   d7b92:	f000 00c0 	and.w	r0, r0, #192	; 0xc0
   d7b96:	28c0      	cmp	r0, #192	; 0xc0
  bool isTimedOut(uint16_t startMS, uint16_t timeoutMS);
  bool readData(uint8_t* dst, size_t count);
  bool readRegister(uint8_t cmd, void* buf);

  void type(uint8_t value) {
    m_type = value;
   d7b98:	bf04      	itt	eq
   d7b9a:	2303      	moveq	r3, #3
   d7b9c:	72a3      	strbeq	r3, [r4, #10]
  }
  void spiDeactivate() {
    m_spiDriver->deactivate();
  }
  uint8_t spiReceive() {
    return m_spiDriver->receive();
   d7b9e:	6860      	ldr	r0, [r4, #4]
   d7ba0:	f000 f945 	bl	d7e2e <_ZN14SdSpiAltDriver7receiveEv>
   d7ba4:	6860      	ldr	r0, [r4, #4]
   d7ba6:	f000 f942 	bl	d7e2e <_ZN14SdSpiAltDriver7receiveEv>
   d7baa:	6860      	ldr	r0, [r4, #4]
   d7bac:	f000 f93f 	bl	d7e2e <_ZN14SdSpiAltDriver7receiveEv>
   d7bb0:	e7d0      	b.n	d7b54 <_ZN9SdSpiCard5beginEP14SdSpiAltDriverhN8particle13__SPISettingsE+0x104>
   d7bb2:	bf00      	nop
   d7bb4:	0003d090 	.word	0x0003d090

000d7bb8 <_ZN9SdSpiCard9readBlockEmPh>:
  }
#endif  // WDT_YIELD_TIME_MICROS
  return (curTimeMS() - startMS) > timeoutMS;
}
//------------------------------------------------------------------------------
bool SdSpiCard::readBlock(uint32_t blockNumber, uint8_t* dst) {
   d7bb8:	b538      	push	{r3, r4, r5, lr}
  SD_TRACE("RB", blockNumber);
  // use address if not SDHC card
  if (type() != SD_CARD_TYPE_SDHC) {
   d7bba:	7a83      	ldrb	r3, [r0, #10]
   d7bbc:	2b03      	cmp	r3, #3
    blockNumber <<= 9;
   d7bbe:	bf18      	it	ne
   d7bc0:	0249      	lslne	r1, r1, #9
  }
#endif  // WDT_YIELD_TIME_MICROS
  return (curTimeMS() - startMS) > timeoutMS;
}
//------------------------------------------------------------------------------
bool SdSpiCard::readBlock(uint32_t blockNumber, uint8_t* dst) {
   d7bc2:	4615      	mov	r5, r2
  SD_TRACE("RB", blockNumber);
  // use address if not SDHC card
  if (type() != SD_CARD_TYPE_SDHC) {
    blockNumber <<= 9;
  }
  if (cardCommand(CMD17, blockNumber)) {
   d7bc4:	460a      	mov	r2, r1
   d7bc6:	2111      	movs	r1, #17
  }
#endif  // WDT_YIELD_TIME_MICROS
  return (curTimeMS() - startMS) > timeoutMS;
}
//------------------------------------------------------------------------------
bool SdSpiCard::readBlock(uint32_t blockNumber, uint8_t* dst) {
   d7bc8:	4604      	mov	r4, r0
  SD_TRACE("RB", blockNumber);
  // use address if not SDHC card
  if (type() != SD_CARD_TYPE_SDHC) {
    blockNumber <<= 9;
  }
  if (cardCommand(CMD17, blockNumber)) {
   d7bca:	f7ff fefd 	bl	d79c8 <_ZN9SdSpiCard11cardCommandEhm>
   d7bce:	b110      	cbz	r0, d7bd6 <_ZN9SdSpiCard9readBlockEmPh+0x1e>
  /**
   *  Set SD error code.
   *  \param[in] code value for error code.
   */
  void error(uint8_t code) {
    m_errorCode = code;
   d7bd0:	2330      	movs	r3, #48	; 0x30
   d7bd2:	7023      	strb	r3, [r4, #0]
   d7bd4:	e00b      	b.n	d7bee <_ZN9SdSpiCard9readBlockEmPh+0x36>
    error(SD_CARD_ERROR_CMD17);
    goto fail;
  }
  if (!readData(dst, 512)) {
   d7bd6:	4629      	mov	r1, r5
   d7bd8:	f44f 7200 	mov.w	r2, #512	; 0x200
   d7bdc:	4620      	mov	r0, r4
   d7bde:	f7ff fead 	bl	d793c <_ZN9SdSpiCard8readDataEPhj>
   d7be2:	4605      	mov	r5, r0
   d7be4:	b118      	cbz	r0, d7bee <_ZN9SdSpiCard9readBlockEmPh+0x36>
    goto fail;
  }
  spiStop();
   d7be6:	4620      	mov	r0, r4
   d7be8:	f7ff fe95 	bl	d7916 <_ZN9SdSpiCard7spiStopEv>
  return true;
   d7bec:	e003      	b.n	d7bf6 <_ZN9SdSpiCard9readBlockEmPh+0x3e>

fail:
  spiStop();
   d7bee:	4620      	mov	r0, r4
   d7bf0:	f7ff fe91 	bl	d7916 <_ZN9SdSpiCard7spiStopEv>
  return false;
   d7bf4:	2500      	movs	r5, #0
}
   d7bf6:	4628      	mov	r0, r5
   d7bf8:	bd38      	pop	{r3, r4, r5, pc}

000d7bfa <_ZN9SdSpiCard9readStartEm>:
fail:
  spiStop();
  return false;
}
//------------------------------------------------------------------------------
bool SdSpiCard::readStart(uint32_t blockNumber) {
   d7bfa:	b510      	push	{r4, lr}
  SD_TRACE("RS", blockNumber);
  if (type() != SD_CARD_TYPE_SDHC) {
   d7bfc:	7a83      	ldrb	r3, [r0, #10]
   d7bfe:	2b03      	cmp	r3, #3
fail:
  spiStop();
  return false;
}
//------------------------------------------------------------------------------
bool SdSpiCard::readStart(uint32_t blockNumber) {
   d7c00:	460a      	mov	r2, r1
  SD_TRACE("RS", blockNumber);
  if (type() != SD_CARD_TYPE_SDHC) {
    blockNumber <<= 9;
   d7c02:	bf18      	it	ne
   d7c04:	024a      	lslne	r2, r1, #9
  }
  if (cardCommand(CMD18, blockNumber)) {
   d7c06:	2112      	movs	r1, #18
fail:
  spiStop();
  return false;
}
//------------------------------------------------------------------------------
bool SdSpiCard::readStart(uint32_t blockNumber) {
   d7c08:	4604      	mov	r4, r0
  SD_TRACE("RS", blockNumber);
  if (type() != SD_CARD_TYPE_SDHC) {
    blockNumber <<= 9;
  }
  if (cardCommand(CMD18, blockNumber)) {
   d7c0a:	f7ff fedd 	bl	d79c8 <_ZN9SdSpiCard11cardCommandEhm>
   d7c0e:	b130      	cbz	r0, d7c1e <_ZN9SdSpiCard9readStartEm+0x24>
   d7c10:	2331      	movs	r3, #49	; 0x31
  }
//  spiStop();
  return true;

fail:
  spiStop();
   d7c12:	4620      	mov	r0, r4
   d7c14:	7023      	strb	r3, [r4, #0]
   d7c16:	f7ff fe7e 	bl	d7916 <_ZN9SdSpiCard7spiStopEv>
  return false;
   d7c1a:	2000      	movs	r0, #0
   d7c1c:	bd10      	pop	{r4, pc}
  if (cardCommand(CMD18, blockNumber)) {
    error(SD_CARD_ERROR_CMD18);
    goto fail;
  }
//  spiStop();
  return true;
   d7c1e:	2001      	movs	r0, #1

fail:
  spiStop();
  return false;
}
   d7c20:	bd10      	pop	{r4, pc}

000d7c22 <_ZN9SdSpiCard8readStopEv>:
    spiDeactivate();
    m_spiActive = false;
  }
}
//------------------------------------------------------------------------------
bool SdSpiCard::readStop() {
   d7c22:	b510      	push	{r4, lr}
  if (cardCommand(CMD12, 0)) {
   d7c24:	2200      	movs	r2, #0
   d7c26:	210c      	movs	r1, #12
    spiDeactivate();
    m_spiActive = false;
  }
}
//------------------------------------------------------------------------------
bool SdSpiCard::readStop() {
   d7c28:	4604      	mov	r4, r0
  if (cardCommand(CMD12, 0)) {
   d7c2a:	f7ff fecd 	bl	d79c8 <_ZN9SdSpiCard11cardCommandEhm>
   d7c2e:	b130      	cbz	r0, d7c3e <_ZN9SdSpiCard8readStopEv+0x1c>
   d7c30:	2328      	movs	r3, #40	; 0x28
  }
  spiStop();
  return true;

fail:
  spiStop();
   d7c32:	4620      	mov	r0, r4
   d7c34:	7023      	strb	r3, [r4, #0]
   d7c36:	f7ff fe6e 	bl	d7916 <_ZN9SdSpiCard7spiStopEv>
  return false;
   d7c3a:	2000      	movs	r0, #0
   d7c3c:	bd10      	pop	{r4, pc}
bool SdSpiCard::readStop() {
  if (cardCommand(CMD12, 0)) {
    error(SD_CARD_ERROR_CMD12);
    goto fail;
  }
  spiStop();
   d7c3e:	4620      	mov	r0, r4
   d7c40:	f7ff fe69 	bl	d7916 <_ZN9SdSpiCard7spiStopEv>
  return true;
   d7c44:	2001      	movs	r0, #1

fail:
  spiStop();
  return false;
}
   d7c46:	bd10      	pop	{r4, pc}

000d7c48 <_ZN9SdSpiCard10readBlocksEmPhj>:
fail:
  spiStop();
  return false;
}
//------------------------------------------------------------------------------
bool SdSpiCard::readBlocks(uint32_t block, uint8_t* dst, size_t count) {
   d7c48:	b5f8      	push	{r3, r4, r5, r6, r7, lr}
   d7c4a:	4605      	mov	r5, r0
   d7c4c:	4616      	mov	r6, r2
   d7c4e:	461f      	mov	r7, r3
  if (!readStart(block)) {
   d7c50:	f7ff ffd3 	bl	d7bfa <_ZN9SdSpiCard9readStartEm>
   d7c54:	b198      	cbz	r0, d7c7e <_ZN9SdSpiCard10readBlocksEmPhj+0x36>
   d7c56:	2400      	movs	r4, #0
   d7c58:	b2a3      	uxth	r3, r4
    return false;
  }
  for (uint16_t b = 0; b < count; b++, dst += 512) {
   d7c5a:	429f      	cmp	r7, r3
   d7c5c:	eb06 2144 	add.w	r1, r6, r4, lsl #9
   d7c60:	d908      	bls.n	d7c74 <_ZN9SdSpiCard10readBlocksEmPhj+0x2c>
    if (!readData(dst, 512)) {
   d7c62:	f44f 7200 	mov.w	r2, #512	; 0x200
   d7c66:	4628      	mov	r0, r5
   d7c68:	f7ff fe68 	bl	d793c <_ZN9SdSpiCard8readDataEPhj>
   d7c6c:	3401      	adds	r4, #1
   d7c6e:	2800      	cmp	r0, #0
   d7c70:	d1f2      	bne.n	d7c58 <_ZN9SdSpiCard10readBlocksEmPhj+0x10>
   d7c72:	e004      	b.n	d7c7e <_ZN9SdSpiCard10readBlocksEmPhj+0x36>
      return false;
    }
  }
  return readStop();
   d7c74:	4628      	mov	r0, r5
}
   d7c76:	e8bd 40f8 	ldmia.w	sp!, {r3, r4, r5, r6, r7, lr}
  for (uint16_t b = 0; b < count; b++, dst += 512) {
    if (!readData(dst, 512)) {
      return false;
    }
  }
  return readStop();
   d7c7a:	f7ff bfd2 	b.w	d7c22 <_ZN9SdSpiCard8readStopEv>
}
   d7c7e:	2000      	movs	r0, #0
   d7c80:	bdf8      	pop	{r3, r4, r5, r6, r7, pc}

000d7c82 <_ZN9SdSpiCard9writeDataEhPKh>:
  spiStop();
  return false;
}
//------------------------------------------------------------------------------
// send one block of data for write block or write multiple blocks
bool SdSpiCard::writeData(uint8_t token, const uint8_t* src) {
   d7c82:	b538      	push	{r3, r4, r5, lr}
   d7c84:	4604      	mov	r4, r0
   d7c86:	4615      	mov	r5, r2
  }
  uint8_t spiReceive(uint8_t* buf, size_t n) {
    return  m_spiDriver->receive(buf, n);
  }
  void spiSend(uint8_t data) {
     m_spiDriver->send(data);
   d7c88:	6840      	ldr	r0, [r0, #4]
   d7c8a:	f000 f8eb 	bl	d7e64 <_ZN14SdSpiAltDriver4sendEh>
  }
  void spiSend(const uint8_t* buf, size_t n) {
    m_spiDriver->send(buf, n);
   d7c8e:	f44f 7200 	mov.w	r2, #512	; 0x200
   d7c92:	4629      	mov	r1, r5
   d7c94:	6860      	ldr	r0, [r4, #4]
   d7c96:	f000 f8e9 	bl	d7e6c <_ZN14SdSpiAltDriver4sendEPKhj>
  }
  uint8_t spiReceive(uint8_t* buf, size_t n) {
    return  m_spiDriver->receive(buf, n);
  }
  void spiSend(uint8_t data) {
     m_spiDriver->send(data);
   d7c9a:	21ff      	movs	r1, #255	; 0xff
   d7c9c:	6860      	ldr	r0, [r4, #4]
   d7c9e:	f000 f8e1 	bl	d7e64 <_ZN14SdSpiAltDriver4sendEh>
   d7ca2:	21ff      	movs	r1, #255	; 0xff
   d7ca4:	6860      	ldr	r0, [r4, #4]
   d7ca6:	f000 f8dd 	bl	d7e64 <_ZN14SdSpiAltDriver4sendEh>
  }
  void spiDeactivate() {
    m_spiDriver->deactivate();
  }
  uint8_t spiReceive() {
    return m_spiDriver->receive();
   d7caa:	6860      	ldr	r0, [r4, #4]
   d7cac:	f000 f8bf 	bl	d7e2e <_ZN14SdSpiAltDriver7receiveEv>
  spiSend(token);
  spiSend(src, 512);
  spiSend(crc >> 8);
  spiSend(crc & 0XFF);

  m_status = spiReceive();
   d7cb0:	7260      	strb	r0, [r4, #9]
  if ((m_status & DATA_RES_MASK) != DATA_RES_ACCEPTED) {
   d7cb2:	f000 001f 	and.w	r0, r0, #31
   d7cb6:	2805      	cmp	r0, #5
   d7cb8:	d006      	beq.n	d7cc8 <_ZN9SdSpiCard9writeDataEhPKh+0x46>
  /**
   *  Set SD error code.
   *  \param[in] code value for error code.
   */
  void error(uint8_t code) {
    m_errorCode = code;
   d7cba:	2357      	movs	r3, #87	; 0x57
    goto fail;
  }
  return true;

fail:
  spiStop();
   d7cbc:	4620      	mov	r0, r4
   d7cbe:	7023      	strb	r3, [r4, #0]
   d7cc0:	f7ff fe29 	bl	d7916 <_ZN9SdSpiCard7spiStopEv>
  return false;
   d7cc4:	2000      	movs	r0, #0
   d7cc6:	bd38      	pop	{r3, r4, r5, pc}
  m_status = spiReceive();
  if ((m_status & DATA_RES_MASK) != DATA_RES_ACCEPTED) {
    error(SD_CARD_ERROR_WRITE);
    goto fail;
  }
  return true;
   d7cc8:	2001      	movs	r0, #1

fail:
  spiStop();
  return false;
}
   d7cca:	bd38      	pop	{r3, r4, r5, pc}

000d7ccc <_ZN9SdSpiCard10writeBlockEmPKh>:
  }
  return true;
#endif  // WDT_YIELD_TIME_MICROS
}
//------------------------------------------------------------------------------
bool SdSpiCard::writeBlock(uint32_t blockNumber, const uint8_t* src) {
   d7ccc:	b570      	push	{r4, r5, r6, lr}
  SD_TRACE("WB", blockNumber);
  // use address if not SDHC card
  if (type() != SD_CARD_TYPE_SDHC) {
   d7cce:	7a83      	ldrb	r3, [r0, #10]
   d7cd0:	2b03      	cmp	r3, #3
    blockNumber <<= 9;
   d7cd2:	bf18      	it	ne
   d7cd4:	0249      	lslne	r1, r1, #9
  }
  return true;
#endif  // WDT_YIELD_TIME_MICROS
}
//------------------------------------------------------------------------------
bool SdSpiCard::writeBlock(uint32_t blockNumber, const uint8_t* src) {
   d7cd6:	4615      	mov	r5, r2
  SD_TRACE("WB", blockNumber);
  // use address if not SDHC card
  if (type() != SD_CARD_TYPE_SDHC) {
    blockNumber <<= 9;
  }
  if (cardCommand(CMD24, blockNumber)) {
   d7cd8:	460a      	mov	r2, r1
   d7cda:	2118      	movs	r1, #24
  }
  return true;
#endif  // WDT_YIELD_TIME_MICROS
}
//------------------------------------------------------------------------------
bool SdSpiCard::writeBlock(uint32_t blockNumber, const uint8_t* src) {
   d7cdc:	4604      	mov	r4, r0
  SD_TRACE("WB", blockNumber);
  // use address if not SDHC card
  if (type() != SD_CARD_TYPE_SDHC) {
    blockNumber <<= 9;
  }
  if (cardCommand(CMD24, blockNumber)) {
   d7cde:	f7ff fe73 	bl	d79c8 <_ZN9SdSpiCard11cardCommandEhm>
   d7ce2:	4606      	mov	r6, r0
   d7ce4:	b108      	cbz	r0, d7cea <_ZN9SdSpiCard10writeBlockEmPKh+0x1e>
   d7ce6:	2332      	movs	r3, #50	; 0x32
   d7ce8:	e01d      	b.n	d7d26 <_ZN9SdSpiCard10writeBlockEmPKh+0x5a>
    error(SD_CARD_ERROR_CMD24);
    goto fail;
  }
  if (!writeData(DATA_START_BLOCK, src)) {
   d7cea:	462a      	mov	r2, r5
   d7cec:	21fe      	movs	r1, #254	; 0xfe
   d7cee:	4620      	mov	r0, r4
   d7cf0:	f7ff ffc7 	bl	d7c82 <_ZN9SdSpiCard9writeDataEhPKh>
   d7cf4:	b1c0      	cbz	r0, d7d28 <_ZN9SdSpiCard10writeBlockEmPKh+0x5c>


#if CHECK_FLASH_PROGRAMMING
  // wait for flash programming to complete
  DBG_BEGIN_TIME(DBG_WRITE_FLASH);
  if (!waitNotBusy(SD_WRITE_TIMEOUT)) {
   d7cf6:	f44f 61fa 	mov.w	r1, #2000	; 0x7d0
   d7cfa:	4620      	mov	r0, r4
   d7cfc:	f7ff fe4f 	bl	d799e <_ZN9SdSpiCard11waitNotBusyEt>
   d7d00:	4605      	mov	r5, r0
   d7d02:	b908      	cbnz	r0, d7d08 <_ZN9SdSpiCard10writeBlockEmPKh+0x3c>
   d7d04:	235a      	movs	r3, #90	; 0x5a
   d7d06:	e00e      	b.n	d7d26 <_ZN9SdSpiCard10writeBlockEmPKh+0x5a>
    error(SD_CARD_ERROR_FLASH_PROGRAMMING);
    goto fail;
  }
  DBG_END_TIME(DBG_WRITE_FLASH);
  // response is r2 so get and check two bytes for nonzero
  if (cardCommand(CMD13, 0) || spiReceive()) {
   d7d08:	4632      	mov	r2, r6
   d7d0a:	210d      	movs	r1, #13
   d7d0c:	4620      	mov	r0, r4
   d7d0e:	f7ff fe5b 	bl	d79c8 <_ZN9SdSpiCard11cardCommandEhm>
   d7d12:	b938      	cbnz	r0, d7d24 <_ZN9SdSpiCard10writeBlockEmPKh+0x58>
  }
  void spiDeactivate() {
    m_spiDriver->deactivate();
  }
  uint8_t spiReceive() {
    return m_spiDriver->receive();
   d7d14:	6860      	ldr	r0, [r4, #4]
   d7d16:	f000 f88a 	bl	d7e2e <_ZN14SdSpiAltDriver7receiveEv>
   d7d1a:	b918      	cbnz	r0, d7d24 <_ZN9SdSpiCard10writeBlockEmPKh+0x58>
    error(SD_CARD_ERROR_CMD13);
    goto fail;
  }
#endif  // CHECK_PROGRAMMING

  spiStop();
   d7d1c:	4620      	mov	r0, r4
   d7d1e:	f7ff fdfa 	bl	d7916 <_ZN9SdSpiCard7spiStopEv>
  return true;
   d7d22:	e005      	b.n	d7d30 <_ZN9SdSpiCard10writeBlockEmPKh+0x64>
  /**
   *  Set SD error code.
   *  \param[in] code value for error code.
   */
  void error(uint8_t code) {
    m_errorCode = code;
   d7d24:	2329      	movs	r3, #41	; 0x29
   d7d26:	7023      	strb	r3, [r4, #0]

fail:
  spiStop();
   d7d28:	4620      	mov	r0, r4
   d7d2a:	f7ff fdf4 	bl	d7916 <_ZN9SdSpiCard7spiStopEv>
  return false;
   d7d2e:	2500      	movs	r5, #0
}
   d7d30:	4628      	mov	r0, r5
   d7d32:	bd70      	pop	{r4, r5, r6, pc}

000d7d34 <_ZN9SdSpiCard9writeDataEPKh>:
 fail:
  spiStop();
  return false;
}
//------------------------------------------------------------------------------
bool SdSpiCard::writeData(const uint8_t* src) {
   d7d34:	b538      	push	{r3, r4, r5, lr}
   d7d36:	460d      	mov	r5, r1
  // wait for previous write to finish
  DBG_BEGIN_TIME(DBG_WRITE_BUSY);
  if (!waitNotBusy(SD_WRITE_TIMEOUT)) {
   d7d38:	f44f 61fa 	mov.w	r1, #2000	; 0x7d0
 fail:
  spiStop();
  return false;
}
//------------------------------------------------------------------------------
bool SdSpiCard::writeData(const uint8_t* src) {
   d7d3c:	4604      	mov	r4, r0
  // wait for previous write to finish
  DBG_BEGIN_TIME(DBG_WRITE_BUSY);
  if (!waitNotBusy(SD_WRITE_TIMEOUT)) {
   d7d3e:	f7ff fe2e 	bl	d799e <_ZN9SdSpiCard11waitNotBusyEt>
   d7d42:	b910      	cbnz	r0, d7d4a <_ZN9SdSpiCard9writeDataEPKh+0x16>
   d7d44:	235b      	movs	r3, #91	; 0x5b
   d7d46:	7023      	strb	r3, [r4, #0]
   d7d48:	e005      	b.n	d7d56 <_ZN9SdSpiCard9writeDataEPKh+0x22>
    error(SD_CARD_ERROR_WRITE_TIMEOUT);
    goto fail;
  }
  DBG_END_TIME(DBG_WRITE_BUSY);
  if (!writeData(WRITE_MULTIPLE_TOKEN, src)) {
   d7d4a:	462a      	mov	r2, r5
   d7d4c:	21fc      	movs	r1, #252	; 0xfc
   d7d4e:	4620      	mov	r0, r4
   d7d50:	f7ff ff97 	bl	d7c82 <_ZN9SdSpiCard9writeDataEhPKh>
   d7d54:	b918      	cbnz	r0, d7d5e <_ZN9SdSpiCard9writeDataEPKh+0x2a>
    goto fail;
  }
  return true;

fail:
  spiStop();
   d7d56:	4620      	mov	r0, r4
   d7d58:	f7ff fddd 	bl	d7916 <_ZN9SdSpiCard7spiStopEv>
  return false;
   d7d5c:	2000      	movs	r0, #0
}
   d7d5e:	bd38      	pop	{r3, r4, r5, pc}

000d7d60 <_ZN9SdSpiCard10writeStartEm>:
fail:
  spiStop();
  return false;
}
//------------------------------------------------------------------------------
bool SdSpiCard::writeStart(uint32_t blockNumber) {
   d7d60:	b510      	push	{r4, lr}
  // use address if not SDHC card
  if (type() != SD_CARD_TYPE_SDHC) {
   d7d62:	7a83      	ldrb	r3, [r0, #10]
   d7d64:	2b03      	cmp	r3, #3
fail:
  spiStop();
  return false;
}
//------------------------------------------------------------------------------
bool SdSpiCard::writeStart(uint32_t blockNumber) {
   d7d66:	460a      	mov	r2, r1
  // use address if not SDHC card
  if (type() != SD_CARD_TYPE_SDHC) {
    blockNumber <<= 9;
   d7d68:	bf18      	it	ne
   d7d6a:	024a      	lslne	r2, r1, #9
  }
  if (cardCommand(CMD25, blockNumber)) {
   d7d6c:	2119      	movs	r1, #25
fail:
  spiStop();
  return false;
}
//------------------------------------------------------------------------------
bool SdSpiCard::writeStart(uint32_t blockNumber) {
   d7d6e:	4604      	mov	r4, r0
  // use address if not SDHC card
  if (type() != SD_CARD_TYPE_SDHC) {
    blockNumber <<= 9;
  }
  if (cardCommand(CMD25, blockNumber)) {
   d7d70:	f7ff fe2a 	bl	d79c8 <_ZN9SdSpiCard11cardCommandEhm>
   d7d74:	b130      	cbz	r0, d7d84 <_ZN9SdSpiCard10writeStartEm+0x24>
   d7d76:	2333      	movs	r3, #51	; 0x33
    goto fail;
  }
  return true;

fail:
  spiStop();
   d7d78:	4620      	mov	r0, r4
   d7d7a:	7023      	strb	r3, [r4, #0]
   d7d7c:	f7ff fdcb 	bl	d7916 <_ZN9SdSpiCard7spiStopEv>
  return false;
   d7d80:	2000      	movs	r0, #0
   d7d82:	bd10      	pop	{r4, pc}
  }
  if (cardCommand(CMD25, blockNumber)) {
    error(SD_CARD_ERROR_CMD25);
    goto fail;
  }
  return true;
   d7d84:	2001      	movs	r0, #1

fail:
  spiStop();
  return false;
}
   d7d86:	bd10      	pop	{r4, pc}

000d7d88 <_ZN9SdSpiCard9writeStopEv>:
fail:
  spiStop();
  return false;
}
//------------------------------------------------------------------------------
bool SdSpiCard::writeStop() {
   d7d88:	b538      	push	{r3, r4, r5, lr}
  DBG_BEGIN_TIME(DBG_WRITE_STOP);
  if (!waitNotBusy(SD_WRITE_TIMEOUT)) {
   d7d8a:	f44f 61fa 	mov.w	r1, #2000	; 0x7d0
fail:
  spiStop();
  return false;
}
//------------------------------------------------------------------------------
bool SdSpiCard::writeStop() {
   d7d8e:	4604      	mov	r4, r0
  DBG_BEGIN_TIME(DBG_WRITE_STOP);
  if (!waitNotBusy(SD_WRITE_TIMEOUT)) {
   d7d90:	f7ff fe05 	bl	d799e <_ZN9SdSpiCard11waitNotBusyEt>
   d7d94:	4605      	mov	r5, r0
   d7d96:	b120      	cbz	r0, d7da2 <_ZN9SdSpiCard9writeStopEv+0x1a>
  }
  uint8_t spiReceive(uint8_t* buf, size_t n) {
    return  m_spiDriver->receive(buf, n);
  }
  void spiSend(uint8_t data) {
     m_spiDriver->send(data);
   d7d98:	21fd      	movs	r1, #253	; 0xfd
   d7d9a:	6860      	ldr	r0, [r4, #4]
   d7d9c:	f000 f862 	bl	d7e64 <_ZN14SdSpiAltDriver4sendEh>
   d7da0:	e001      	b.n	d7da6 <_ZN9SdSpiCard9writeStopEv+0x1e>
  /**
   *  Set SD error code.
   *  \param[in] code value for error code.
   */
  void error(uint8_t code) {
    m_errorCode = code;
   d7da2:	2356      	movs	r3, #86	; 0x56
   d7da4:	7023      	strb	r3, [r4, #0]
  spiStop();
  return true;

fail:
  error(SD_CARD_ERROR_STOP_TRAN);
  spiStop();
   d7da6:	4620      	mov	r0, r4
   d7da8:	f7ff fdb5 	bl	d7916 <_ZN9SdSpiCard7spiStopEv>
  return false;
}
   d7dac:	4628      	mov	r0, r5
   d7dae:	bd38      	pop	{r3, r4, r5, pc}

000d7db0 <_ZN9SdSpiCard11writeBlocksEmPKhj>:
fail:
  spiStop();
  return false;
}
//------------------------------------------------------------------------------
bool SdSpiCard::writeBlocks(uint32_t block, const uint8_t* src, size_t count) {
   d7db0:	b5f8      	push	{r3, r4, r5, r6, r7, lr}
   d7db2:	4605      	mov	r5, r0
   d7db4:	4616      	mov	r6, r2
   d7db6:	461f      	mov	r7, r3
  if (!writeStart(block)) {
   d7db8:	f7ff ffd2 	bl	d7d60 <_ZN9SdSpiCard10writeStartEm>
   d7dbc:	b170      	cbz	r0, d7ddc <_ZN9SdSpiCard11writeBlocksEmPKhj+0x2c>
   d7dbe:	2400      	movs	r4, #0
    goto fail;
  }
  for (size_t b = 0; b < count; b++, src += 512) {
   d7dc0:	42bc      	cmp	r4, r7
   d7dc2:	eb06 2144 	add.w	r1, r6, r4, lsl #9
    if (!writeData(src)) {
      goto fail;
    }
  }
  return writeStop();
   d7dc6:	4628      	mov	r0, r5
//------------------------------------------------------------------------------
bool SdSpiCard::writeBlocks(uint32_t block, const uint8_t* src, size_t count) {
  if (!writeStart(block)) {
    goto fail;
  }
  for (size_t b = 0; b < count; b++, src += 512) {
   d7dc8:	d004      	beq.n	d7dd4 <_ZN9SdSpiCard11writeBlocksEmPKhj+0x24>
    if (!writeData(src)) {
   d7dca:	f7ff ffb3 	bl	d7d34 <_ZN9SdSpiCard9writeDataEPKh>
   d7dce:	b128      	cbz	r0, d7ddc <_ZN9SdSpiCard11writeBlocksEmPKhj+0x2c>
//------------------------------------------------------------------------------
bool SdSpiCard::writeBlocks(uint32_t block, const uint8_t* src, size_t count) {
  if (!writeStart(block)) {
    goto fail;
  }
  for (size_t b = 0; b < count; b++, src += 512) {
   d7dd0:	3401      	adds	r4, #1
   d7dd2:	e7f5      	b.n	d7dc0 <_ZN9SdSpiCard11writeBlocksEmPKhj+0x10>
  return writeStop();

 fail:
  spiStop();
  return false;
}
   d7dd4:	e8bd 40f8 	ldmia.w	sp!, {r3, r4, r5, r6, r7, lr}
  for (size_t b = 0; b < count; b++, src += 512) {
    if (!writeData(src)) {
      goto fail;
    }
  }
  return writeStop();
   d7dd8:	f7ff bfd6 	b.w	d7d88 <_ZN9SdSpiCard9writeStopEv>

 fail:
  spiStop();
   d7ddc:	4628      	mov	r0, r5
   d7dde:	f7ff fd9a 	bl	d7916 <_ZN9SdSpiCard7spiStopEv>
  return false;
}
   d7de2:	2000      	movs	r0, #0
   d7de4:	bdf8      	pop	{r3, r4, r5, r6, r7, pc}

000d7de6 <_GLOBAL__sub_I__ZN9SdSpiCard5beginEP14SdSpiAltDriverhN8particle13__SPISettingsE>:
   d7de6:	f000 bbad 	b.w	d8544 <HAL_Pin_Map>

000d7dea <_GLOBAL__sub_I_SdSpiSAM3X.cpp>:
   d7dea:	f000 bbab 	b.w	d8544 <HAL_Pin_Map>

000d7dee <_GLOBAL__sub_I_SdSpiTeensy3.cpp>:
   d7dee:	f000 bba9 	b.w	d8544 <HAL_Pin_Map>
	...

000d7df4 <_ZL36SD_SPI_DMA_TransferComplete_Callbackv>:
#if defined(PLATFORM_ID)
#include "SdSpiDriver.h"
static volatile bool SPI_DMA_TransferCompleted = false;
//-----------------------------------------------------------------------------
static void SD_SPI_DMA_TransferComplete_Callback(void) {
    SPI_DMA_TransferCompleted = true;
   d7df4:	4b01      	ldr	r3, [pc, #4]	; (d7dfc <_ZL36SD_SPI_DMA_TransferComplete_Callbackv+0x8>)
   d7df6:	2201      	movs	r2, #1
   d7df8:	701a      	strb	r2, [r3, #0]
   d7dfa:	4770      	bx	lr
   d7dfc:	2003e028 	.word	0x2003e028

000d7e00 <_ZN14SdSpiAltDriver8activateEv>:
/** Set SPI options for access to SD/SDHC cards.
 *
 * \param[in] divisor SCK clock divider relative to the APB1 or APB2 clock.
 */
void SdSpiAltDriver::activate() {
  m_spi->beginTransaction(m_spiSettings);
   d7e00:	1d01      	adds	r1, r0, #4
   d7e02:	6800      	ldr	r0, [r0, #0]
   d7e04:	f000 bfb4 	b.w	d8d70 <_ZN8SPIClass16beginTransactionERKN8particle13__SPISettingsE>

000d7e08 <_ZN14SdSpiAltDriver5beginEh>:
//------------------------------------------------------------------------------
/** Initialize the SPI bus.
 *
 * \param[in] chipSelectPin SD card chip select pin.
 */
void SdSpiAltDriver::begin(uint8_t csPin) {
   d7e08:	b510      	push	{r4, lr}
   d7e0a:	4604      	mov	r4, r0
  m_csPin = csPin;
   d7e0c:	7501      	strb	r1, [r0, #20]
  m_spi->begin();
   d7e0e:	6800      	ldr	r0, [r0, #0]
   d7e10:	f000 ff62 	bl	d8cd8 <_ZN8SPIClass5beginEv>
  pinMode(m_csPin, OUTPUT);
   d7e14:	7d20      	ldrb	r0, [r4, #20]
   d7e16:	2101      	movs	r1, #1
   d7e18:	f002 fb6e 	bl	da4f8 <pinMode>
  digitalWrite(m_csPin, HIGH);
   d7e1c:	7d20      	ldrb	r0, [r4, #20]
   d7e1e:	2101      	movs	r1, #1
}
   d7e20:	e8bd 4010 	ldmia.w	sp!, {r4, lr}
 */
void SdSpiAltDriver::begin(uint8_t csPin) {
  m_csPin = csPin;
  m_spi->begin();
  pinMode(m_csPin, OUTPUT);
  digitalWrite(m_csPin, HIGH);
   d7e24:	f002 bb79 	b.w	da51a <digitalWrite>

000d7e28 <_ZN14SdSpiAltDriver10deactivateEv>:
//------------------------------------------------------------------------------
/**
 * End SPI transaction.
 */
void SdSpiAltDriver::deactivate() {
  m_spi->endTransaction();
   d7e28:	6800      	ldr	r0, [r0, #0]
   d7e2a:	f000 bf88 	b.w	d8d3e <_ZN8SPIClass14endTransactionEv>

000d7e2e <_ZN14SdSpiAltDriver7receiveEv>:
/** Receive a byte.
 *
 * \return The byte.
 */
uint8_t SdSpiAltDriver::receive() {
  return m_spi->transfer(0XFF);
   d7e2e:	21ff      	movs	r1, #255	; 0xff
   d7e30:	6800      	ldr	r0, [r0, #0]
   d7e32:	f001 b863 	b.w	d8efc <_ZN8SPIClass8transferEh>
	...

000d7e38 <_ZN14SdSpiAltDriver7receiveEPhj>:
 * \param[out] buf Buffer to receive the data.
 * \param[in] n Number of bytes to receive.
 *
 * \return Zero for no error or nonzero error code.
 */
uint8_t SdSpiAltDriver::receive(uint8_t* buf, size_t n) {
   d7e38:	b537      	push	{r0, r1, r2, r4, r5, lr}
  SPI_DMA_TransferCompleted = false;
  m_spi->transfer(nullptr, buf, n, SD_SPI_DMA_TransferComplete_Callback);
   d7e3a:	4b08      	ldr	r3, [pc, #32]	; (d7e5c <_ZN14SdSpiAltDriver7receiveEPhj+0x24>)
   d7e3c:	9300      	str	r3, [sp, #0]
 * \param[in] n Number of bytes to receive.
 *
 * \return Zero for no error or nonzero error code.
 */
uint8_t SdSpiAltDriver::receive(uint8_t* buf, size_t n) {
  SPI_DMA_TransferCompleted = false;
   d7e3e:	2500      	movs	r5, #0
   d7e40:	4c07      	ldr	r4, [pc, #28]	; (d7e60 <_ZN14SdSpiAltDriver7receiveEPhj+0x28>)
  m_spi->transfer(nullptr, buf, n, SD_SPI_DMA_TransferComplete_Callback);
   d7e42:	6800      	ldr	r0, [r0, #0]
 * \param[in] n Number of bytes to receive.
 *
 * \return Zero for no error or nonzero error code.
 */
uint8_t SdSpiAltDriver::receive(uint8_t* buf, size_t n) {
  SPI_DMA_TransferCompleted = false;
   d7e44:	7025      	strb	r5, [r4, #0]
  m_spi->transfer(nullptr, buf, n, SD_SPI_DMA_TransferComplete_Callback);
   d7e46:	4613      	mov	r3, r2
   d7e48:	460a      	mov	r2, r1
   d7e4a:	4629      	mov	r1, r5
   d7e4c:	f001 f85c 	bl	d8f08 <_ZN8SPIClass8transferEPvS0_jPFvvE>
  while (!SPI_DMA_TransferCompleted) {}
   d7e50:	7823      	ldrb	r3, [r4, #0]
   d7e52:	2b00      	cmp	r3, #0
   d7e54:	d0fc      	beq.n	d7e50 <_ZN14SdSpiAltDriver7receiveEPhj+0x18>
  return 0;
}
   d7e56:	2000      	movs	r0, #0
   d7e58:	b003      	add	sp, #12
   d7e5a:	bd30      	pop	{r4, r5, pc}
   d7e5c:	000d7df5 	.word	0x000d7df5
   d7e60:	2003e028 	.word	0x2003e028

000d7e64 <_ZN14SdSpiAltDriver4sendEh>:
/** Send a byte.
 *
 * \param[in] b Byte to send
 */
void SdSpiAltDriver::send(uint8_t b) {
  m_spi->transfer(b);
   d7e64:	6800      	ldr	r0, [r0, #0]
   d7e66:	f001 b849 	b.w	d8efc <_ZN8SPIClass8transferEh>
	...

000d7e6c <_ZN14SdSpiAltDriver4sendEPKhj>:
/** Send multiple bytes.
 *
 * \param[in] buf Buffer for data to be sent.
 * \param[in] n Number of bytes to send.
 */
void SdSpiAltDriver::send(const uint8_t* buf , size_t n) {
   d7e6c:	b537      	push	{r0, r1, r2, r4, r5, lr}
  SPI_DMA_TransferCompleted = false;

  m_spi->transfer(const_cast<uint8_t*>(buf), nullptr, n,
                            SD_SPI_DMA_TransferComplete_Callback);
   d7e6e:	4b07      	ldr	r3, [pc, #28]	; (d7e8c <_ZN14SdSpiAltDriver4sendEPKhj+0x20>)
   d7e70:	9300      	str	r3, [sp, #0]
 *
 * \param[in] buf Buffer for data to be sent.
 * \param[in] n Number of bytes to send.
 */
void SdSpiAltDriver::send(const uint8_t* buf , size_t n) {
  SPI_DMA_TransferCompleted = false;
   d7e72:	2500      	movs	r5, #0
   d7e74:	4c06      	ldr	r4, [pc, #24]	; (d7e90 <_ZN14SdSpiAltDriver4sendEPKhj+0x24>)

  m_spi->transfer(const_cast<uint8_t*>(buf), nullptr, n,
                            SD_SPI_DMA_TransferComplete_Callback);
   d7e76:	6800      	ldr	r0, [r0, #0]
 *
 * \param[in] buf Buffer for data to be sent.
 * \param[in] n Number of bytes to send.
 */
void SdSpiAltDriver::send(const uint8_t* buf , size_t n) {
  SPI_DMA_TransferCompleted = false;
   d7e78:	7025      	strb	r5, [r4, #0]

  m_spi->transfer(const_cast<uint8_t*>(buf), nullptr, n,
                            SD_SPI_DMA_TransferComplete_Callback);
   d7e7a:	4613      	mov	r3, r2
   d7e7c:	462a      	mov	r2, r5
   d7e7e:	f001 f843 	bl	d8f08 <_ZN8SPIClass8transferEPvS0_jPFvvE>

  while (!SPI_DMA_TransferCompleted) {}
   d7e82:	7823      	ldrb	r3, [r4, #0]
   d7e84:	2b00      	cmp	r3, #0
   d7e86:	d0fc      	beq.n	d7e82 <_ZN14SdSpiAltDriver4sendEPKhj+0x16>
}
   d7e88:	b003      	add	sp, #12
   d7e8a:	bd30      	pop	{r4, r5, pc}
   d7e8c:	000d7df5 	.word	0x000d7df5
   d7e90:	2003e028 	.word	0x2003e028

000d7e94 <_GLOBAL__sub_I__ZN14SdSpiAltDriver8activateEv>:
   d7e94:	f000 bb56 	b.w	d8544 <HAL_Pin_Map>

000d7e98 <_ZN5RFM694isr0Ev>:
  }
  RSSI = readRSSI();
  //digitalWrite(4, 0);
}

void RFM69::isr0() { selfPointer->interruptHandler(); }
   d7e98:	4b02      	ldr	r3, [pc, #8]	; (d7ea4 <_ZN5RFM694isr0Ev+0xc>)
   d7e9a:	6818      	ldr	r0, [r3, #0]
   d7e9c:	6803      	ldr	r3, [r0, #0]
   d7e9e:	681b      	ldr	r3, [r3, #0]
   d7ea0:	4718      	bx	r3
   d7ea2:	bf00      	nop
   d7ea4:	2003e040 	.word	0x2003e040

000d7ea8 <_ZN5RFM698unselectEv>:
  SPI1.setClockDivider(SPI_CLOCK_DIV16);
  digitalWrite(_slaveSelectPin, LOW);
}

/// UNselect the transceiver chip
void RFM69::unselect() {
   d7ea8:	b508      	push	{r3, lr}
  digitalWrite(_slaveSelectPin, HIGH);
   d7eaa:	2101      	movs	r1, #1
   d7eac:	7900      	ldrb	r0, [r0, #4]
   d7eae:	f002 fb34 	bl	da51a <digitalWrite>
  #ifndef PARTICLE
  SPCR = _SPCR;
  SPSR = _SPSR;
  #endif
  interrupts();
}
   d7eb2:	e8bd 4008 	ldmia.w	sp!, {r3, lr}
  //restore SPI settings to what they were before talking to RFM69
  #ifndef PARTICLE
  SPCR = _SPCR;
  SPSR = _SPSR;
  #endif
  interrupts();
   d7eb6:	f001 bd63 	b.w	d9980 <_Z10interruptsv>
	...

000d7ebc <_ZN8particle8SpiProxyIL17HAL_SPI_Interface1EE8instanceEv>:
namespace particle {

template <HAL_SPI_Interface Interface>
class SpiProxy {
public:
    static SPIClass& instance() {
   d7ebc:	b510      	push	{r4, lr}
        static SPIClass instance(Interface);
   d7ebe:	4c08      	ldr	r4, [pc, #32]	; (d7ee0 <_ZN8particle8SpiProxyIL17HAL_SPI_Interface1EE8instanceEv+0x24>)
   d7ec0:	6823      	ldr	r3, [r4, #0]
   d7ec2:	07db      	lsls	r3, r3, #31
   d7ec4:	d40a      	bmi.n	d7edc <_ZN8particle8SpiProxyIL17HAL_SPI_Interface1EE8instanceEv+0x20>
   d7ec6:	4620      	mov	r0, r4
   d7ec8:	f7fc f8ef 	bl	d40aa <__cxa_guard_acquire>
   d7ecc:	b130      	cbz	r0, d7edc <_ZN8particle8SpiProxyIL17HAL_SPI_Interface1EE8instanceEv+0x20>
   d7ece:	2101      	movs	r1, #1
   d7ed0:	4804      	ldr	r0, [pc, #16]	; (d7ee4 <_ZN8particle8SpiProxyIL17HAL_SPI_Interface1EE8instanceEv+0x28>)
   d7ed2:	f000 fef7 	bl	d8cc4 <_ZN8SPIClassC1E17HAL_SPI_Interface>
   d7ed6:	4620      	mov	r0, r4
   d7ed8:	f7fc f8ec 	bl	d40b4 <__cxa_guard_release>
        return instance;
    }
   d7edc:	4801      	ldr	r0, [pc, #4]	; (d7ee4 <_ZN8particle8SpiProxyIL17HAL_SPI_Interface1EE8instanceEv+0x28>)
   d7ede:	bd10      	pop	{r4, pc}
   d7ee0:	2003e02c 	.word	0x2003e02c
   d7ee4:	2003e030 	.word	0x2003e030

000d7ee8 <_ZN8particle8SpiProxyIL17HAL_SPI_Interface1EE8transferEh.isra.3>:
        return instance().setClockSpeed(value, scale);
    }
    static void computeClockDivider(unsigned reference, unsigned targetSpeed, uint8_t& divider, unsigned& clock) {
        instance().computeClockDivider(reference, targetSpeed, divider, clock);
    }
    byte transfer(byte data) {
   d7ee8:	b510      	push	{r4, lr}
   d7eea:	4604      	mov	r4, r0
        return instance().transfer(data);
   d7eec:	f7ff ffe6 	bl	d7ebc <_ZN8particle8SpiProxyIL17HAL_SPI_Interface1EE8instanceEv>
   d7ef0:	4621      	mov	r1, r4
    }
   d7ef2:	e8bd 4010 	ldmia.w	sp!, {r4, lr}
    }
    static void computeClockDivider(unsigned reference, unsigned targetSpeed, uint8_t& divider, unsigned& clock) {
        instance().computeClockDivider(reference, targetSpeed, divider, clock);
    }
    byte transfer(byte data) {
        return instance().transfer(data);
   d7ef6:	f001 b801 	b.w	d8efc <_ZN8SPIClass8transferEh>

000d7efa <_ZN5RFM696selectEv>:
  SPI1.transfer(value);
  unselect();
}

/// Select the transceiver
void RFM69::select() {
   d7efa:	b510      	push	{r4, lr}
   d7efc:	4604      	mov	r4, r0
  noInterrupts();
   d7efe:	f001 fd3d 	bl	d997c <_Z12noInterruptsv>
    }
    void setBitOrder(uint8_t order) {
        instance().setBitOrder(order);
    }
    void setDataMode(uint8_t mode) {
        instance().setDataMode(mode);
   d7f02:	f7ff ffdb 	bl	d7ebc <_ZN8particle8SpiProxyIL17HAL_SPI_Interface1EE8instanceEv>
   d7f06:	2100      	movs	r1, #0
   d7f08:	f000 ff08 	bl	d8d1c <_ZN8SPIClass11setDataModeEh>
    }
    void end() {
        instance().end();
    }
    void setBitOrder(uint8_t order) {
        instance().setBitOrder(order);
   d7f0c:	f7ff ffd6 	bl	d7ebc <_ZN8particle8SpiProxyIL17HAL_SPI_Interface1EE8instanceEv>
   d7f10:	2101      	movs	r1, #1
   d7f12:	f000 fef2 	bl	d8cfa <_ZN8SPIClass11setBitOrderEh>
    }
    void setClockDividerReference(unsigned value, unsigned scale=HZ) {
        instance().setClockDividerReference(value, scale);
    }
    void setClockDivider(uint8_t divider) {
        instance().setClockDivider(divider);
   d7f16:	f7ff ffd1 	bl	d7ebc <_ZN8particle8SpiProxyIL17HAL_SPI_Interface1EE8instanceEv>
   d7f1a:	2118      	movs	r1, #24
   d7f1c:	f000 ffca 	bl	d8eb4 <_ZN8SPIClass15setClockDividerEh>
  //set RFM69 SPI settings
  SPI1.setDataMode(SPI_MODE0);
  SPI1.setBitOrder(MSBFIRST);
  //SPI_CLOCK_DIV16; // 72MHz / 16 = 4.5MHz
  SPI1.setClockDivider(SPI_CLOCK_DIV16);
  digitalWrite(_slaveSelectPin, LOW);
   d7f20:	7920      	ldrb	r0, [r4, #4]
   d7f22:	2100      	movs	r1, #0
}
   d7f24:	e8bd 4010 	ldmia.w	sp!, {r4, lr}
  //set RFM69 SPI settings
  SPI1.setDataMode(SPI_MODE0);
  SPI1.setBitOrder(MSBFIRST);
  //SPI_CLOCK_DIV16; // 72MHz / 16 = 4.5MHz
  SPI1.setClockDivider(SPI_CLOCK_DIV16);
  digitalWrite(_slaveSelectPin, LOW);
   d7f28:	f002 baf7 	b.w	da51a <digitalWrite>

000d7f2c <_ZN5RFM697readRegEh>:
  rssi >>= 1;
  return rssi;
}

byte RFM69::readReg(byte addr)
{
   d7f2c:	b538      	push	{r3, r4, r5, lr}
   d7f2e:	460c      	mov	r4, r1
   d7f30:	4605      	mov	r5, r0
  select();
   d7f32:	f7ff ffe2 	bl	d7efa <_ZN5RFM696selectEv>
  SPI1.transfer(addr & 0x7F);
   d7f36:	f004 007f 	and.w	r0, r4, #127	; 0x7f
   d7f3a:	f7ff ffd5 	bl	d7ee8 <_ZN8particle8SpiProxyIL17HAL_SPI_Interface1EE8transferEh.isra.3>
  byte regval = SPI1.transfer(0);
   d7f3e:	2000      	movs	r0, #0
   d7f40:	f7ff ffd2 	bl	d7ee8 <_ZN8particle8SpiProxyIL17HAL_SPI_Interface1EE8transferEh.isra.3>
   d7f44:	4604      	mov	r4, r0
  unselect();
   d7f46:	4628      	mov	r0, r5
   d7f48:	f7ff ffae 	bl	d7ea8 <_ZN5RFM698unselectEv>
  return regval;
}
   d7f4c:	4620      	mov	r0, r4
   d7f4e:	bd38      	pop	{r3, r4, r5, pc}

000d7f50 <_ZN5RFM698writeRegEhh>:

void RFM69::writeReg(byte addr, byte value)
{
   d7f50:	b570      	push	{r4, r5, r6, lr}
   d7f52:	460e      	mov	r6, r1
   d7f54:	4615      	mov	r5, r2
   d7f56:	4604      	mov	r4, r0
  select();
   d7f58:	f7ff ffcf 	bl	d7efa <_ZN5RFM696selectEv>
  SPI1.transfer(addr | 0x80);
   d7f5c:	f046 0080 	orr.w	r0, r6, #128	; 0x80
   d7f60:	f7ff ffc2 	bl	d7ee8 <_ZN8particle8SpiProxyIL17HAL_SPI_Interface1EE8transferEh.isra.3>
  SPI1.transfer(value);
   d7f64:	4628      	mov	r0, r5
   d7f66:	f7ff ffbf 	bl	d7ee8 <_ZN8particle8SpiProxyIL17HAL_SPI_Interface1EE8transferEh.isra.3>
  unselect();
   d7f6a:	4620      	mov	r0, r4
}
   d7f6c:	e8bd 4070 	ldmia.w	sp!, {r4, r5, r6, lr}
void RFM69::writeReg(byte addr, byte value)
{
  select();
  SPI1.transfer(addr | 0x80);
  SPI1.transfer(value);
  unselect();
   d7f70:	f7ff bf9a 	b.w	d7ea8 <_ZN5RFM698unselectEv>

000d7f74 <_ZN5RFM6913setPowerLevelEh>:
}

// set output power: 0=min, 31=max
// this results in a "weaker" transmitted signal, and directly results in a lower RSSI at the receiver
void RFM69::setPowerLevel(byte powerLevel)
{
   d7f74:	b510      	push	{r4, lr}
  _powerLevel = powerLevel;
   d7f76:	7241      	strb	r1, [r0, #9]
  writeReg(REG_PALEVEL, (readReg(REG_PALEVEL) & 0xE0) | (_powerLevel > 31 ? 31 : _powerLevel));
   d7f78:	2111      	movs	r1, #17
}

// set output power: 0=min, 31=max
// this results in a "weaker" transmitted signal, and directly results in a lower RSSI at the receiver
void RFM69::setPowerLevel(byte powerLevel)
{
   d7f7a:	4604      	mov	r4, r0
  _powerLevel = powerLevel;
  writeReg(REG_PALEVEL, (readReg(REG_PALEVEL) & 0xE0) | (_powerLevel > 31 ? 31 : _powerLevel));
   d7f7c:	f7ff ffd6 	bl	d7f2c <_ZN5RFM697readRegEh>
   d7f80:	7a62      	ldrb	r2, [r4, #9]
   d7f82:	f000 00e0 	and.w	r0, r0, #224	; 0xe0
   d7f86:	2a1f      	cmp	r2, #31
   d7f88:	bf94      	ite	ls
   d7f8a:	4302      	orrls	r2, r0
   d7f8c:	f040 021f 	orrhi.w	r2, r0, #31
   d7f90:	2111      	movs	r1, #17
   d7f92:	4620      	mov	r0, r4
}
   d7f94:	e8bd 4010 	ldmia.w	sp!, {r4, lr}
// set output power: 0=min, 31=max
// this results in a "weaker" transmitted signal, and directly results in a lower RSSI at the receiver
void RFM69::setPowerLevel(byte powerLevel)
{
  _powerLevel = powerLevel;
  writeReg(REG_PALEVEL, (readReg(REG_PALEVEL) & 0xE0) | (_powerLevel > 31 ? 31 : _powerLevel));
   d7f98:	f7ff bfda 	b.w	d7f50 <_ZN5RFM698writeRegEhh>

000d7f9c <_ZN5RFM698readRSSIEb>:
    unselect();
  }
  writeReg(REG_PACKETCONFIG2, (readReg(REG_PACKETCONFIG2) & 0xFE) | (key ? 1 : 0));
}

int RFM69::readRSSI(bool forceTrigger) {
   d7f9c:	b510      	push	{r4, lr}
   d7f9e:	4604      	mov	r4, r0
  int rssi = 0;
  if (forceTrigger)
   d7fa0:	b149      	cbz	r1, d7fb6 <_ZN5RFM698readRSSIEb+0x1a>
  {
    //RSSI trigger not needed if DAGC is in continuous mode
    writeReg(REG_RSSICONFIG, RF_RSSI_START);
   d7fa2:	2201      	movs	r2, #1
   d7fa4:	2123      	movs	r1, #35	; 0x23
   d7fa6:	f7ff ffd3 	bl	d7f50 <_ZN5RFM698writeRegEhh>
    while ((readReg(REG_RSSICONFIG) & RF_RSSI_DONE) == 0x00); // Wait for RSSI_Ready
   d7faa:	2123      	movs	r1, #35	; 0x23
   d7fac:	4620      	mov	r0, r4
   d7fae:	f7ff ffbd 	bl	d7f2c <_ZN5RFM697readRegEh>
   d7fb2:	0783      	lsls	r3, r0, #30
   d7fb4:	d5f9      	bpl.n	d7faa <_ZN5RFM698readRSSIEb+0xe>
  }
  rssi = -readReg(REG_RSSIVALUE);
   d7fb6:	2124      	movs	r1, #36	; 0x24
   d7fb8:	4620      	mov	r0, r4
   d7fba:	f7ff ffb7 	bl	d7f2c <_ZN5RFM697readRegEh>
   d7fbe:	4240      	negs	r0, r0
  rssi >>= 1;
  return rssi;
   d7fc0:	1040      	asrs	r0, r0, #1
}
   d7fc2:	bd10      	pop	{r4, pc}

000d7fc4 <_ZN5RFM6916setHighPowerRegsEb>:
  uint16_t baudRate = 32000000L / speedBPS;;
  
  writeReg(REG_BITRATEMSB, (baudRate >> 8) & 0xFF);
  writeReg(REG_BITRATELSB, (baudRate >> 0) & 0xFF);
}
void RFM69::setHighPowerRegs(bool onOff) {
   d7fc4:	b538      	push	{r3, r4, r5, lr}
  writeReg(REG_TESTPA1, onOff ? 0x5D : 0x55);
   d7fc6:	2900      	cmp	r1, #0
   d7fc8:	bf14      	ite	ne
   d7fca:	225d      	movne	r2, #93	; 0x5d
   d7fcc:	2255      	moveq	r2, #85	; 0x55
   d7fce:	460c      	mov	r4, r1
   d7fd0:	215a      	movs	r1, #90	; 0x5a
  uint16_t baudRate = 32000000L / speedBPS;;
  
  writeReg(REG_BITRATEMSB, (baudRate >> 8) & 0xFF);
  writeReg(REG_BITRATELSB, (baudRate >> 0) & 0xFF);
}
void RFM69::setHighPowerRegs(bool onOff) {
   d7fd2:	4605      	mov	r5, r0
  writeReg(REG_TESTPA1, onOff ? 0x5D : 0x55);
   d7fd4:	f7ff ffbc 	bl	d7f50 <_ZN5RFM698writeRegEhh>
  writeReg(REG_TESTPA2, onOff ? 0x7C : 0x70);
   d7fd8:	2c00      	cmp	r4, #0
   d7fda:	4628      	mov	r0, r5
   d7fdc:	bf14      	ite	ne
   d7fde:	227c      	movne	r2, #124	; 0x7c
   d7fe0:	2270      	moveq	r2, #112	; 0x70
   d7fe2:	215c      	movs	r1, #92	; 0x5c
}
   d7fe4:	e8bd 4038 	ldmia.w	sp!, {r3, r4, r5, lr}
  writeReg(REG_BITRATEMSB, (baudRate >> 8) & 0xFF);
  writeReg(REG_BITRATELSB, (baudRate >> 0) & 0xFF);
}
void RFM69::setHighPowerRegs(bool onOff) {
  writeReg(REG_TESTPA1, onOff ? 0x5D : 0x55);
  writeReg(REG_TESTPA2, onOff ? 0x7C : 0x70);
   d7fe8:	f7ff bfb2 	b.w	d7f50 <_ZN5RFM698writeRegEhh>

000d7fec <_ZN5RFM697setModeEh>:
  writeReg(REG_FRFMID, freqHz >> 8);
  writeReg(REG_FRFLSB, freqHz);
}

void RFM69::setMode(byte newMode)
{
   d7fec:	b570      	push	{r4, r5, r6, lr}
	if (newMode == _mode) return; //TODO: can remove this?
   d7fee:	4d28      	ldr	r5, [pc, #160]	; (d8090 <_ZN5RFM697setModeEh+0xa4>)
   d7ff0:	782b      	ldrb	r3, [r5, #0]
   d7ff2:	428b      	cmp	r3, r1
  writeReg(REG_FRFMID, freqHz >> 8);
  writeReg(REG_FRFLSB, freqHz);
}

void RFM69::setMode(byte newMode)
{
   d7ff4:	4604      	mov	r4, r0
   d7ff6:	460e      	mov	r6, r1
	if (newMode == _mode) return; //TODO: can remove this?
   d7ff8:	d049      	beq.n	d808e <_ZN5RFM697setModeEh+0xa2>

	switch (newMode) {
   d7ffa:	2904      	cmp	r1, #4
   d7ffc:	d847      	bhi.n	d808e <_ZN5RFM697setModeEh+0xa2>
   d7ffe:	e8df f001 	tbb	[pc, r1]
   d8002:	2c34      	.short	0x2c34
   d8004:	1224      	.short	0x1224
   d8006:	03          	.byte	0x03
   d8007:	00          	.byte	0x00
		case RF69_MODE_TX:
			writeReg(REG_OPMODE, (readReg(REG_OPMODE) & 0xE3) | RF_OPMODE_TRANSMITTER);
   d8008:	2101      	movs	r1, #1
   d800a:	f7ff ff8f 	bl	d7f2c <_ZN5RFM697readRegEh>
   d800e:	f000 02e3 	and.w	r2, r0, #227	; 0xe3
   d8012:	f042 020c 	orr.w	r2, r2, #12
   d8016:	2101      	movs	r1, #1
   d8018:	4620      	mov	r0, r4
   d801a:	f7ff ff99 	bl	d7f50 <_ZN5RFM698writeRegEhh>
      if (_isRFM69HW) setHighPowerRegs(true);
   d801e:	7aa3      	ldrb	r3, [r4, #10]
   d8020:	b363      	cbz	r3, d807c <_ZN5RFM697setModeEh+0x90>
   d8022:	2101      	movs	r1, #1
   d8024:	e00d      	b.n	d8042 <_ZN5RFM697setModeEh+0x56>
			break;
		case RF69_MODE_RX:
			writeReg(REG_OPMODE, (readReg(REG_OPMODE) & 0xE3) | RF_OPMODE_RECEIVER);
   d8026:	2101      	movs	r1, #1
   d8028:	f7ff ff80 	bl	d7f2c <_ZN5RFM697readRegEh>
   d802c:	f000 02e3 	and.w	r2, r0, #227	; 0xe3
   d8030:	f042 0210 	orr.w	r2, r2, #16
   d8034:	2101      	movs	r1, #1
   d8036:	4620      	mov	r0, r4
   d8038:	f7ff ff8a 	bl	d7f50 <_ZN5RFM698writeRegEhh>
      if (_isRFM69HW) setHighPowerRegs(false);
   d803c:	7aa3      	ldrb	r3, [r4, #10]
   d803e:	b1eb      	cbz	r3, d807c <_ZN5RFM697setModeEh+0x90>
   d8040:	2100      	movs	r1, #0
   d8042:	4620      	mov	r0, r4
   d8044:	f7ff ffbe 	bl	d7fc4 <_ZN5RFM6916setHighPowerRegsEb>
   d8048:	e018      	b.n	d807c <_ZN5RFM697setModeEh+0x90>
			break;
		case RF69_MODE_SYNTH:
			writeReg(REG_OPMODE, (readReg(REG_OPMODE) & 0xE3) | RF_OPMODE_SYNTHESIZER);
   d804a:	2101      	movs	r1, #1
   d804c:	f7ff ff6e 	bl	d7f2c <_ZN5RFM697readRegEh>
   d8050:	f000 02e3 	and.w	r2, r0, #227	; 0xe3
   d8054:	f042 0208 	orr.w	r2, r2, #8
   d8058:	e00c      	b.n	d8074 <_ZN5RFM697setModeEh+0x88>
			break;
		case RF69_MODE_STANDBY:
			writeReg(REG_OPMODE, (readReg(REG_OPMODE) & 0xE3) | RF_OPMODE_STANDBY);
   d805a:	2101      	movs	r1, #1
   d805c:	f7ff ff66 	bl	d7f2c <_ZN5RFM697readRegEh>
   d8060:	f000 02e3 	and.w	r2, r0, #227	; 0xe3
   d8064:	f042 0204 	orr.w	r2, r2, #4
   d8068:	e004      	b.n	d8074 <_ZN5RFM697setModeEh+0x88>
			break;
		case RF69_MODE_SLEEP:
			writeReg(REG_OPMODE, (readReg(REG_OPMODE) & 0xE3) | RF_OPMODE_SLEEP);
   d806a:	2101      	movs	r1, #1
   d806c:	f7ff ff5e 	bl	d7f2c <_ZN5RFM697readRegEh>
   d8070:	f000 02e3 	and.w	r2, r0, #227	; 0xe3
   d8074:	2101      	movs	r1, #1
   d8076:	4620      	mov	r0, r4
   d8078:	f7ff ff6a 	bl	d7f50 <_ZN5RFM698writeRegEhh>
		default: return;
	}

	// we are using packet mode, so this check is not really needed
  // but waiting for mode ready is necessary when going from sleep because the FIFO may not be immediately available from previous mode
	while (_mode == RF69_MODE_SLEEP && (readReg(REG_IRQFLAGS1) & RF_IRQFLAGS1_MODEREADY) == 0x00); // Wait for ModeReady
   d807c:	782b      	ldrb	r3, [r5, #0]
   d807e:	b92b      	cbnz	r3, d808c <_ZN5RFM697setModeEh+0xa0>
   d8080:	2127      	movs	r1, #39	; 0x27
   d8082:	4620      	mov	r0, r4
   d8084:	f7ff ff52 	bl	d7f2c <_ZN5RFM697readRegEh>
   d8088:	0603      	lsls	r3, r0, #24
   d808a:	d5f7      	bpl.n	d807c <_ZN5RFM697setModeEh+0x90>

	_mode = newMode;
   d808c:	702e      	strb	r6, [r5, #0]
   d808e:	bd70      	pop	{r4, r5, r6, pc}
   d8090:	2003e084 	.word	0x2003e084

000d8094 <_ZN5RFM6912receiveBeginEv>:
}

void RFM69::isr0() { selfPointer->interruptHandler(); }

void RFM69::receiveBegin() {
  DATALEN = 0;
   d8094:	4a15      	ldr	r2, [pc, #84]	; (d80ec <_ZN5RFM6912receiveBeginEv+0x58>)
   d8096:	2300      	movs	r3, #0
  //digitalWrite(4, 0);
}

void RFM69::isr0() { selfPointer->interruptHandler(); }

void RFM69::receiveBegin() {
   d8098:	b510      	push	{r4, lr}
  DATALEN = 0;
   d809a:	7013      	strb	r3, [r2, #0]
  SENDERID = 0;
   d809c:	4a14      	ldr	r2, [pc, #80]	; (d80f0 <_ZN5RFM6912receiveBeginEv+0x5c>)
   d809e:	7013      	strb	r3, [r2, #0]
  TARGETID = 0;
   d80a0:	4a14      	ldr	r2, [pc, #80]	; (d80f4 <_ZN5RFM6912receiveBeginEv+0x60>)
   d80a2:	7013      	strb	r3, [r2, #0]
  PAYLOADLEN = 0;
   d80a4:	4a14      	ldr	r2, [pc, #80]	; (d80f8 <_ZN5RFM6912receiveBeginEv+0x64>)
   d80a6:	7013      	strb	r3, [r2, #0]
  ACK_REQUESTED = 0;
   d80a8:	4a14      	ldr	r2, [pc, #80]	; (d80fc <_ZN5RFM6912receiveBeginEv+0x68>)
   d80aa:	7013      	strb	r3, [r2, #0]
  ACK_RECEIVED = 0;
   d80ac:	4a14      	ldr	r2, [pc, #80]	; (d8100 <_ZN5RFM6912receiveBeginEv+0x6c>)
   d80ae:	7013      	strb	r3, [r2, #0]
  RSSI = 0;
   d80b0:	4a14      	ldr	r2, [pc, #80]	; (d8104 <_ZN5RFM6912receiveBeginEv+0x70>)
  if (readReg(REG_IRQFLAGS2) & RF_IRQFLAGS2_PAYLOADREADY)
   d80b2:	2128      	movs	r1, #40	; 0x28
  SENDERID = 0;
  TARGETID = 0;
  PAYLOADLEN = 0;
  ACK_REQUESTED = 0;
  ACK_RECEIVED = 0;
  RSSI = 0;
   d80b4:	6013      	str	r3, [r2, #0]
  //digitalWrite(4, 0);
}

void RFM69::isr0() { selfPointer->interruptHandler(); }

void RFM69::receiveBegin() {
   d80b6:	4604      	mov	r4, r0
  TARGETID = 0;
  PAYLOADLEN = 0;
  ACK_REQUESTED = 0;
  ACK_RECEIVED = 0;
  RSSI = 0;
  if (readReg(REG_IRQFLAGS2) & RF_IRQFLAGS2_PAYLOADREADY)
   d80b8:	f7ff ff38 	bl	d7f2c <_ZN5RFM697readRegEh>
   d80bc:	0743      	lsls	r3, r0, #29
   d80be:	d50a      	bpl.n	d80d6 <_ZN5RFM6912receiveBeginEv+0x42>
    writeReg(REG_PACKETCONFIG2, (readReg(REG_PACKETCONFIG2) & 0xFB) | RF_PACKET2_RXRESTART); // avoid RX deadlocks
   d80c0:	213d      	movs	r1, #61	; 0x3d
   d80c2:	4620      	mov	r0, r4
   d80c4:	f7ff ff32 	bl	d7f2c <_ZN5RFM697readRegEh>
   d80c8:	f040 0204 	orr.w	r2, r0, #4
   d80cc:	b2d2      	uxtb	r2, r2
   d80ce:	213d      	movs	r1, #61	; 0x3d
   d80d0:	4620      	mov	r0, r4
   d80d2:	f7ff ff3d 	bl	d7f50 <_ZN5RFM698writeRegEhh>
  writeReg(REG_DIOMAPPING1, RF_DIOMAPPING1_DIO0_01); //set DIO0 to "PAYLOADREADY" in receive mode
   d80d6:	4620      	mov	r0, r4
   d80d8:	2125      	movs	r1, #37	; 0x25
   d80da:	2240      	movs	r2, #64	; 0x40
   d80dc:	f7ff ff38 	bl	d7f50 <_ZN5RFM698writeRegEhh>
  setMode(RF69_MODE_RX);
   d80e0:	4620      	mov	r0, r4
   d80e2:	2103      	movs	r1, #3
}
   d80e4:	e8bd 4010 	ldmia.w	sp!, {r4, lr}
  ACK_RECEIVED = 0;
  RSSI = 0;
  if (readReg(REG_IRQFLAGS2) & RF_IRQFLAGS2_PAYLOADREADY)
    writeReg(REG_PACKETCONFIG2, (readReg(REG_PACKETCONFIG2) & 0xFB) | RF_PACKET2_RXRESTART); // avoid RX deadlocks
  writeReg(REG_DIOMAPPING1, RF_DIOMAPPING1_DIO0_01); //set DIO0 to "PAYLOADREADY" in receive mode
  setMode(RF69_MODE_RX);
   d80e8:	f7ff bf80 	b.w	d7fec <_ZN5RFM697setModeEh>
   d80ec:	2003e083 	.word	0x2003e083
   d80f0:	2003e03e 	.word	0x2003e03e
   d80f4:	2003e03c 	.word	0x2003e03c
   d80f8:	2003e044 	.word	0x2003e044
   d80fc:	2003e03d 	.word	0x2003e03d
   d8100:	2003e045 	.word	0x2003e045
   d8104:	2003e038 	.word	0x2003e038

000d8108 <_ZN5RFM6911receiveDoneEv>:
}

bool RFM69::receiveDone() {
   d8108:	b510      	push	{r4, lr}
   d810a:	4604      	mov	r4, r0
// ATOMIC_BLOCK(ATOMIC_FORCEON)
// {
  noInterrupts(); //re-enabled in unselect() via setMode() or via receiveBegin()
   d810c:	f001 fc36 	bl	d997c <_Z12noInterruptsv>
  if (_mode == RF69_MODE_RX && PAYLOADLEN>0)
   d8110:	4b0b      	ldr	r3, [pc, #44]	; (d8140 <_ZN5RFM6911receiveDoneEv+0x38>)
   d8112:	781a      	ldrb	r2, [r3, #0]
   d8114:	2a03      	cmp	r2, #3
   d8116:	d102      	bne.n	d811e <_ZN5RFM6911receiveDoneEv+0x16>
   d8118:	4a0a      	ldr	r2, [pc, #40]	; (d8144 <_ZN5RFM6911receiveDoneEv+0x3c>)
   d811a:	7812      	ldrb	r2, [r2, #0]
   d811c:	b952      	cbnz	r2, d8134 <_ZN5RFM6911receiveDoneEv+0x2c>
  {
    setMode(RF69_MODE_STANDBY); //enables interrupts
    return true;
  }
  else if (_mode == RF69_MODE_RX)  //already in RX no payload yet
   d811e:	781b      	ldrb	r3, [r3, #0]
   d8120:	2b03      	cmp	r3, #3
   d8122:	d102      	bne.n	d812a <_ZN5RFM6911receiveDoneEv+0x22>
  {
    interrupts(); //explicitly re-enable interrupts
   d8124:	f001 fc2c 	bl	d9980 <_Z10interruptsv>
   d8128:	e002      	b.n	d8130 <_ZN5RFM6911receiveDoneEv+0x28>
    return false;
  }
  receiveBegin();
   d812a:	4620      	mov	r0, r4
   d812c:	f7ff ffb2 	bl	d8094 <_ZN5RFM6912receiveBeginEv>
  return false;
   d8130:	2000      	movs	r0, #0
   d8132:	bd10      	pop	{r4, pc}
// ATOMIC_BLOCK(ATOMIC_FORCEON)
// {
  noInterrupts(); //re-enabled in unselect() via setMode() or via receiveBegin()
  if (_mode == RF69_MODE_RX && PAYLOADLEN>0)
  {
    setMode(RF69_MODE_STANDBY); //enables interrupts
   d8134:	4620      	mov	r0, r4
   d8136:	2101      	movs	r1, #1
   d8138:	f7ff ff58 	bl	d7fec <_ZN5RFM697setModeEh>
    return true;
   d813c:	2001      	movs	r0, #1
    return false;
  }
  receiveBegin();
  return false;
//}
}
   d813e:	bd10      	pop	{r4, pc}
   d8140:	2003e084 	.word	0x2003e084
   d8144:	2003e044 	.word	0x2003e044

000d8148 <_ZN5RFM6912setHighPowerEb>:
  //writeReg(REG_PACKETCONFIG1, (readReg(REG_PACKETCONFIG1) & 0xF9) | (onOff ? RF_PACKET1_ADRSFILTERING_OFF : RF_PACKET1_ADRSFILTERING_NODEBROADCAST));
}

void RFM69::setHighPower(bool onOff) {
  _isRFM69HW = onOff;
  writeReg(REG_OCP, _isRFM69HW ? RF_OCP_OFF : RF_OCP_ON);
   d8148:	2900      	cmp	r1, #0
void RFM69::promiscuous(bool onOff) {
  _promiscuousMode=onOff;
  //writeReg(REG_PACKETCONFIG1, (readReg(REG_PACKETCONFIG1) & 0xF9) | (onOff ? RF_PACKET1_ADRSFILTERING_OFF : RF_PACKET1_ADRSFILTERING_NODEBROADCAST));
}

void RFM69::setHighPower(bool onOff) {
   d814a:	b510      	push	{r4, lr}
   d814c:	4604      	mov	r4, r0
  _isRFM69HW = onOff;
   d814e:	7281      	strb	r1, [r0, #10]
  writeReg(REG_OCP, _isRFM69HW ? RF_OCP_OFF : RF_OCP_ON);
   d8150:	bf14      	ite	ne
   d8152:	220f      	movne	r2, #15
   d8154:	221a      	moveq	r2, #26
   d8156:	2113      	movs	r1, #19
   d8158:	f7ff fefa 	bl	d7f50 <_ZN5RFM698writeRegEhh>
  if (_isRFM69HW) //turning ON
   d815c:	7aa3      	ldrb	r3, [r4, #10]
   d815e:	b143      	cbz	r3, d8172 <_ZN5RFM6912setHighPowerEb+0x2a>
    writeReg(REG_PALEVEL, (readReg(REG_PALEVEL) & 0x1F) | RF_PALEVEL_PA1_ON | RF_PALEVEL_PA2_ON); //enable P1 & P2 amplifier stages
   d8160:	2111      	movs	r1, #17
   d8162:	4620      	mov	r0, r4
   d8164:	f7ff fee2 	bl	d7f2c <_ZN5RFM697readRegEh>
   d8168:	f000 021f 	and.w	r2, r0, #31
   d816c:	f042 0260 	orr.w	r2, r2, #96	; 0x60
   d8170:	e002      	b.n	d8178 <_ZN5RFM6912setHighPowerEb+0x30>
  else
    writeReg(REG_PALEVEL, RF_PALEVEL_PA0_ON | RF_PALEVEL_PA1_OFF | RF_PALEVEL_PA2_OFF | _powerLevel); //enable P0 only
   d8172:	7a62      	ldrb	r2, [r4, #9]
   d8174:	f042 0280 	orr.w	r2, r2, #128	; 0x80
   d8178:	4620      	mov	r0, r4
   d817a:	2111      	movs	r1, #17
}
   d817c:	e8bd 4010 	ldmia.w	sp!, {r4, lr}
  _isRFM69HW = onOff;
  writeReg(REG_OCP, _isRFM69HW ? RF_OCP_OFF : RF_OCP_ON);
  if (_isRFM69HW) //turning ON
    writeReg(REG_PALEVEL, (readReg(REG_PALEVEL) & 0x1F) | RF_PALEVEL_PA1_ON | RF_PALEVEL_PA2_ON); //enable P1 & P2 amplifier stages
  else
    writeReg(REG_PALEVEL, RF_PALEVEL_PA0_ON | RF_PALEVEL_PA1_OFF | RF_PALEVEL_PA2_OFF | _powerLevel); //enable P0 only
   d8180:	f7ff bee6 	b.w	d7f50 <_ZN5RFM698writeRegEhh>

000d8184 <_ZN5RFM6916interruptHandlerEv>:
	while (digitalRead(_interruptPin) == 0 && millis()-txStart < RF69_TX_LIMIT_MS); //wait for DIO0 to turn HIGH signalling transmission finish
  //while (readReg(REG_IRQFLAGS2) & RF_IRQFLAGS2_PACKETSENT == 0x00); // Wait for ModeReady
  setMode(RF69_MODE_STANDBY);
}

void RFM69::interruptHandler() {
   d8184:	e92d 41f0 	stmdb	sp!, {r4, r5, r6, r7, r8, lr}
  //pinMode(4, OUTPUT);
  //digitalWrite(4, 1);
  if (_mode == RF69_MODE_RX && (readReg(REG_IRQFLAGS2) & RF_IRQFLAGS2_PAYLOADREADY))
   d8188:	4b3d      	ldr	r3, [pc, #244]	; (d8280 <_ZN5RFM6916interruptHandlerEv+0xfc>)
   d818a:	781b      	ldrb	r3, [r3, #0]
   d818c:	2b03      	cmp	r3, #3
	while (digitalRead(_interruptPin) == 0 && millis()-txStart < RF69_TX_LIMIT_MS); //wait for DIO0 to turn HIGH signalling transmission finish
  //while (readReg(REG_IRQFLAGS2) & RF_IRQFLAGS2_PACKETSENT == 0x00); // Wait for ModeReady
  setMode(RF69_MODE_STANDBY);
}

void RFM69::interruptHandler() {
   d818e:	4604      	mov	r4, r0
  //pinMode(4, OUTPUT);
  //digitalWrite(4, 1);
  if (_mode == RF69_MODE_RX && (readReg(REG_IRQFLAGS2) & RF_IRQFLAGS2_PAYLOADREADY))
   d8190:	d114      	bne.n	d81bc <_ZN5RFM6916interruptHandlerEv+0x38>
   d8192:	2128      	movs	r1, #40	; 0x28
   d8194:	f7ff feca 	bl	d7f2c <_ZN5RFM697readRegEh>
   d8198:	0743      	lsls	r3, r0, #29
   d819a:	d417      	bmi.n	d81cc <_ZN5RFM6916interruptHandlerEv+0x48>
   d819c:	e00e      	b.n	d81bc <_ZN5RFM6916interruptHandlerEv+0x38>

    for (byte i= 0; i < DATALEN; i++)
    {
      DATA[i] = SPI1.transfer(0);
    }
    if (DATALEN<RF69_MAX_DATA_LEN) DATA[DATALEN]=0; //add null at end of string
   d819e:	7813      	ldrb	r3, [r2, #0]
   d81a0:	2b3c      	cmp	r3, #60	; 0x3c
   d81a2:	d804      	bhi.n	d81ae <_ZN5RFM6916interruptHandlerEv+0x2a>
   d81a4:	7813      	ldrb	r3, [r2, #0]
   d81a6:	4a37      	ldr	r2, [pc, #220]	; (d8284 <_ZN5RFM6916interruptHandlerEv+0x100>)
   d81a8:	b2db      	uxtb	r3, r3
   d81aa:	2100      	movs	r1, #0
   d81ac:	54d1      	strb	r1, [r2, r3]
    unselect();
   d81ae:	4620      	mov	r0, r4
   d81b0:	f7ff fe7a 	bl	d7ea8 <_ZN5RFM698unselectEv>
    setMode(RF69_MODE_RX);
   d81b4:	2103      	movs	r1, #3
   d81b6:	4620      	mov	r0, r4
   d81b8:	f7ff ff18 	bl	d7fec <_ZN5RFM697setModeEh>
  }
  RSSI = readRSSI();
   d81bc:	2100      	movs	r1, #0
   d81be:	4620      	mov	r0, r4
   d81c0:	f7ff feec 	bl	d7f9c <_ZN5RFM698readRSSIEb>
   d81c4:	4b30      	ldr	r3, [pc, #192]	; (d8288 <_ZN5RFM6916interruptHandlerEv+0x104>)
   d81c6:	6018      	str	r0, [r3, #0]
   d81c8:	e8bd 81f0 	ldmia.w	sp!, {r4, r5, r6, r7, r8, pc}
  //pinMode(4, OUTPUT);
  //digitalWrite(4, 1);
  if (_mode == RF69_MODE_RX && (readReg(REG_IRQFLAGS2) & RF_IRQFLAGS2_PAYLOADREADY))
  {
    //RSSI = readRSSI();
    setMode(RF69_MODE_STANDBY);
   d81cc:	2101      	movs	r1, #1
   d81ce:	4620      	mov	r0, r4
   d81d0:	f7ff ff0c 	bl	d7fec <_ZN5RFM697setModeEh>
    select();
   d81d4:	4620      	mov	r0, r4
   d81d6:	f7ff fe90 	bl	d7efa <_ZN5RFM696selectEv>
    SPI1.transfer(REG_FIFO & 0x7f);
   d81da:	2000      	movs	r0, #0
   d81dc:	f7ff fe84 	bl	d7ee8 <_ZN8particle8SpiProxyIL17HAL_SPI_Interface1EE8transferEh.isra.3>
    PAYLOADLEN = SPI1.transfer(0);
   d81e0:	2000      	movs	r0, #0
   d81e2:	f7ff fe81 	bl	d7ee8 <_ZN8particle8SpiProxyIL17HAL_SPI_Interface1EE8transferEh.isra.3>
   d81e6:	4d29      	ldr	r5, [pc, #164]	; (d828c <_ZN5RFM6916interruptHandlerEv+0x108>)
   d81e8:	7028      	strb	r0, [r5, #0]
    PAYLOADLEN = PAYLOADLEN > 66 ? 66 : PAYLOADLEN; //precaution
   d81ea:	782b      	ldrb	r3, [r5, #0]
   d81ec:	2b42      	cmp	r3, #66	; 0x42
   d81ee:	d814      	bhi.n	d821a <_ZN5RFM6916interruptHandlerEv+0x96>
   d81f0:	782b      	ldrb	r3, [r5, #0]
   d81f2:	b2db      	uxtb	r3, r3
    TARGETID = SPI1.transfer(0);
   d81f4:	2000      	movs	r0, #0
    //RSSI = readRSSI();
    setMode(RF69_MODE_STANDBY);
    select();
    SPI1.transfer(REG_FIFO & 0x7f);
    PAYLOADLEN = SPI1.transfer(0);
    PAYLOADLEN = PAYLOADLEN > 66 ? 66 : PAYLOADLEN; //precaution
   d81f6:	702b      	strb	r3, [r5, #0]
    TARGETID = SPI1.transfer(0);
   d81f8:	f7ff fe76 	bl	d7ee8 <_ZN8particle8SpiProxyIL17HAL_SPI_Interface1EE8transferEh.isra.3>
   d81fc:	4b24      	ldr	r3, [pc, #144]	; (d8290 <_ZN5RFM6916interruptHandlerEv+0x10c>)
    if(!(_promiscuousMode || TARGETID==_address || TARGETID==RF69_BROADCAST_ADDR) //match this node's address, or broadcast address or anything in promiscuous mode
       || PAYLOADLEN < 3) //address situation could receive packets that are malformed and don't fit this libraries extra fields
   d81fe:	7a22      	ldrb	r2, [r4, #8]
    setMode(RF69_MODE_STANDBY);
    select();
    SPI1.transfer(REG_FIFO & 0x7f);
    PAYLOADLEN = SPI1.transfer(0);
    PAYLOADLEN = PAYLOADLEN > 66 ? 66 : PAYLOADLEN; //precaution
    TARGETID = SPI1.transfer(0);
   d8200:	7018      	strb	r0, [r3, #0]
    if(!(_promiscuousMode || TARGETID==_address || TARGETID==RF69_BROADCAST_ADDR) //match this node's address, or broadcast address or anything in promiscuous mode
       || PAYLOADLEN < 3) //address situation could receive packets that are malformed and don't fit this libraries extra fields
   d8202:	b932      	cbnz	r2, d8212 <_ZN5RFM6916interruptHandlerEv+0x8e>
    select();
    SPI1.transfer(REG_FIFO & 0x7f);
    PAYLOADLEN = SPI1.transfer(0);
    PAYLOADLEN = PAYLOADLEN > 66 ? 66 : PAYLOADLEN; //precaution
    TARGETID = SPI1.transfer(0);
    if(!(_promiscuousMode || TARGETID==_address || TARGETID==RF69_BROADCAST_ADDR) //match this node's address, or broadcast address or anything in promiscuous mode
   d8204:	781a      	ldrb	r2, [r3, #0]
   d8206:	79e1      	ldrb	r1, [r4, #7]
   d8208:	4291      	cmp	r1, r2
   d820a:	d002      	beq.n	d8212 <_ZN5RFM6916interruptHandlerEv+0x8e>
   d820c:	781b      	ldrb	r3, [r3, #0]
   d820e:	2bff      	cmp	r3, #255	; 0xff
   d8210:	d105      	bne.n	d821e <_ZN5RFM6916interruptHandlerEv+0x9a>
       || PAYLOADLEN < 3) //address situation could receive packets that are malformed and don't fit this libraries extra fields
   d8212:	782b      	ldrb	r3, [r5, #0]
   d8214:	2b02      	cmp	r3, #2
   d8216:	d902      	bls.n	d821e <_ZN5RFM6916interruptHandlerEv+0x9a>
   d8218:	e00b      	b.n	d8232 <_ZN5RFM6916interruptHandlerEv+0xae>
    //RSSI = readRSSI();
    setMode(RF69_MODE_STANDBY);
    select();
    SPI1.transfer(REG_FIFO & 0x7f);
    PAYLOADLEN = SPI1.transfer(0);
    PAYLOADLEN = PAYLOADLEN > 66 ? 66 : PAYLOADLEN; //precaution
   d821a:	2342      	movs	r3, #66	; 0x42
   d821c:	e7ea      	b.n	d81f4 <_ZN5RFM6916interruptHandlerEv+0x70>
    TARGETID = SPI1.transfer(0);
    if(!(_promiscuousMode || TARGETID==_address || TARGETID==RF69_BROADCAST_ADDR) //match this node's address, or broadcast address or anything in promiscuous mode
       || PAYLOADLEN < 3) //address situation could receive packets that are malformed and don't fit this libraries extra fields
    {
      PAYLOADLEN = 0;
      unselect();
   d821e:	4620      	mov	r0, r4
    PAYLOADLEN = PAYLOADLEN > 66 ? 66 : PAYLOADLEN; //precaution
    TARGETID = SPI1.transfer(0);
    if(!(_promiscuousMode || TARGETID==_address || TARGETID==RF69_BROADCAST_ADDR) //match this node's address, or broadcast address or anything in promiscuous mode
       || PAYLOADLEN < 3) //address situation could receive packets that are malformed and don't fit this libraries extra fields
    {
      PAYLOADLEN = 0;
   d8220:	2300      	movs	r3, #0
   d8222:	702b      	strb	r3, [r5, #0]
      unselect();
   d8224:	f7ff fe40 	bl	d7ea8 <_ZN5RFM698unselectEv>
      receiveBegin();
   d8228:	4620      	mov	r0, r4
    unselect();
    setMode(RF69_MODE_RX);
  }
  RSSI = readRSSI();
  //digitalWrite(4, 0);
}
   d822a:	e8bd 41f0 	ldmia.w	sp!, {r4, r5, r6, r7, r8, lr}
    if(!(_promiscuousMode || TARGETID==_address || TARGETID==RF69_BROADCAST_ADDR) //match this node's address, or broadcast address or anything in promiscuous mode
       || PAYLOADLEN < 3) //address situation could receive packets that are malformed and don't fit this libraries extra fields
    {
      PAYLOADLEN = 0;
      unselect();
      receiveBegin();
   d822e:	f7ff bf31 	b.w	d8094 <_ZN5RFM6912receiveBeginEv>
      //digitalWrite(4, 0);
      return;
    }

    DATALEN = PAYLOADLEN - 3;
   d8232:	4b16      	ldr	r3, [pc, #88]	; (d828c <_ZN5RFM6916interruptHandlerEv+0x108>)
   d8234:	4e17      	ldr	r6, [pc, #92]	; (d8294 <_ZN5RFM6916interruptHandlerEv+0x110>)
   d8236:	781b      	ldrb	r3, [r3, #0]
    ACK_RECEIVED = CTLbyte & 0x80; //extract ACK-requested flag
    ACK_REQUESTED = CTLbyte & 0x40; //extract ACK-received flag

    for (byte i= 0; i < DATALEN; i++)
    {
      DATA[i] = SPI1.transfer(0);
   d8238:	4f12      	ldr	r7, [pc, #72]	; (d8284 <_ZN5RFM6916interruptHandlerEv+0x100>)
      receiveBegin();
      //digitalWrite(4, 0);
      return;
    }

    DATALEN = PAYLOADLEN - 3;
   d823a:	3b03      	subs	r3, #3
   d823c:	b2db      	uxtb	r3, r3
    SENDERID = SPI1.transfer(0);
   d823e:	2000      	movs	r0, #0
      receiveBegin();
      //digitalWrite(4, 0);
      return;
    }

    DATALEN = PAYLOADLEN - 3;
   d8240:	7033      	strb	r3, [r6, #0]
    SENDERID = SPI1.transfer(0);
   d8242:	f7ff fe51 	bl	d7ee8 <_ZN8particle8SpiProxyIL17HAL_SPI_Interface1EE8transferEh.isra.3>
   d8246:	4b14      	ldr	r3, [pc, #80]	; (d8298 <_ZN5RFM6916interruptHandlerEv+0x114>)
   d8248:	7018      	strb	r0, [r3, #0]
    byte CTLbyte = SPI1.transfer(0);
   d824a:	2000      	movs	r0, #0
   d824c:	f7ff fe4c 	bl	d7ee8 <_ZN8particle8SpiProxyIL17HAL_SPI_Interface1EE8transferEh.isra.3>

    ACK_RECEIVED = CTLbyte & 0x80; //extract ACK-requested flag
   d8250:	4a12      	ldr	r2, [pc, #72]	; (d829c <_ZN5RFM6916interruptHandlerEv+0x118>)
   d8252:	f020 037f 	bic.w	r3, r0, #127	; 0x7f
   d8256:	b2db      	uxtb	r3, r3
   d8258:	7013      	strb	r3, [r2, #0]
    ACK_REQUESTED = CTLbyte & 0x40; //extract ACK-received flag
   d825a:	f000 0040 	and.w	r0, r0, #64	; 0x40
   d825e:	4b10      	ldr	r3, [pc, #64]	; (d82a0 <_ZN5RFM6916interruptHandlerEv+0x11c>)
   d8260:	b2c0      	uxtb	r0, r0
   d8262:	7018      	strb	r0, [r3, #0]
   d8264:	2300      	movs	r3, #0

    for (byte i= 0; i < DATALEN; i++)
   d8266:	7831      	ldrb	r1, [r6, #0]
   d8268:	4a0a      	ldr	r2, [pc, #40]	; (d8294 <_ZN5RFM6916interruptHandlerEv+0x110>)
   d826a:	b2dd      	uxtb	r5, r3
   d826c:	428d      	cmp	r5, r1
   d826e:	f103 0801 	add.w	r8, r3, #1
   d8272:	d294      	bcs.n	d819e <_ZN5RFM6916interruptHandlerEv+0x1a>
    {
      DATA[i] = SPI1.transfer(0);
   d8274:	2000      	movs	r0, #0
   d8276:	f7ff fe37 	bl	d7ee8 <_ZN8particle8SpiProxyIL17HAL_SPI_Interface1EE8transferEh.isra.3>
    byte CTLbyte = SPI1.transfer(0);

    ACK_RECEIVED = CTLbyte & 0x80; //extract ACK-requested flag
    ACK_REQUESTED = CTLbyte & 0x40; //extract ACK-received flag

    for (byte i= 0; i < DATALEN; i++)
   d827a:	4643      	mov	r3, r8
    {
      DATA[i] = SPI1.transfer(0);
   d827c:	5578      	strb	r0, [r7, r5]
    byte CTLbyte = SPI1.transfer(0);

    ACK_RECEIVED = CTLbyte & 0x80; //extract ACK-requested flag
    ACK_REQUESTED = CTLbyte & 0x40; //extract ACK-received flag

    for (byte i= 0; i < DATALEN; i++)
   d827e:	e7f2      	b.n	d8266 <_ZN5RFM6916interruptHandlerEv+0xe2>
   d8280:	2003e084 	.word	0x2003e084
   d8284:	2003e046 	.word	0x2003e046
   d8288:	2003e038 	.word	0x2003e038
   d828c:	2003e044 	.word	0x2003e044
   d8290:	2003e03c 	.word	0x2003e03c
   d8294:	2003e083 	.word	0x2003e083
   d8298:	2003e03e 	.word	0x2003e03e
   d829c:	2003e045 	.word	0x2003e045
   d82a0:	2003e03d 	.word	0x2003e03d

000d82a4 <_ZN5RFM697encryptEPKc>:
}

// To enable encryption: radio.encrypt("ABCDEFGHIJKLMNOP");
// To disable encryption: radio.encrypt(null) or radio.encrypt(0)
// KEY HAS TO BE 16 bytes !!!
void RFM69::encrypt(const char* key) {
   d82a4:	b5f8      	push	{r3, r4, r5, r6, r7, lr}
   d82a6:	460d      	mov	r5, r1
  setMode(RF69_MODE_STANDBY);
   d82a8:	2101      	movs	r1, #1
}

// To enable encryption: radio.encrypt("ABCDEFGHIJKLMNOP");
// To disable encryption: radio.encrypt(null) or radio.encrypt(0)
// KEY HAS TO BE 16 bytes !!!
void RFM69::encrypt(const char* key) {
   d82aa:	4604      	mov	r4, r0
  setMode(RF69_MODE_STANDBY);
   d82ac:	f7ff fe9e 	bl	d7fec <_ZN5RFM697setModeEh>
  if (key!=0)
   d82b0:	b18d      	cbz	r5, d82d6 <_ZN5RFM697encryptEPKc+0x32>
  {
    select();
   d82b2:	4620      	mov	r0, r4
   d82b4:	f7ff fe21 	bl	d7efa <_ZN5RFM696selectEv>
    SPI1.transfer(REG_AESKEY1 | 0x80);
   d82b8:	20be      	movs	r0, #190	; 0xbe
   d82ba:	f7ff fe15 	bl	d7ee8 <_ZN8particle8SpiProxyIL17HAL_SPI_Interface1EE8transferEh.isra.3>
   d82be:	1e6e      	subs	r6, r5, #1
   d82c0:	f105 070f 	add.w	r7, r5, #15
    for (byte i = 0; i<16; i++)
      SPI1.transfer(key[i]);
   d82c4:	f816 0f01 	ldrb.w	r0, [r6, #1]!
   d82c8:	f7ff fe0e 	bl	d7ee8 <_ZN8particle8SpiProxyIL17HAL_SPI_Interface1EE8transferEh.isra.3>
  setMode(RF69_MODE_STANDBY);
  if (key!=0)
  {
    select();
    SPI1.transfer(REG_AESKEY1 | 0x80);
    for (byte i = 0; i<16; i++)
   d82cc:	42be      	cmp	r6, r7
   d82ce:	d1f9      	bne.n	d82c4 <_ZN5RFM697encryptEPKc+0x20>
      SPI1.transfer(key[i]);
    unselect();
   d82d0:	4620      	mov	r0, r4
   d82d2:	f7ff fde9 	bl	d7ea8 <_ZN5RFM698unselectEv>
  }
  writeReg(REG_PACKETCONFIG2, (readReg(REG_PACKETCONFIG2) & 0xFE) | (key ? 1 : 0));
   d82d6:	213d      	movs	r1, #61	; 0x3d
   d82d8:	4620      	mov	r0, r4
   d82da:	f7ff fe27 	bl	d7f2c <_ZN5RFM697readRegEh>
   d82de:	f020 0001 	bic.w	r0, r0, #1
   d82e2:	2d00      	cmp	r5, #0
   d82e4:	bf0c      	ite	eq
   d82e6:	4602      	moveq	r2, r0
   d82e8:	f040 0201 	orrne.w	r2, r0, #1
   d82ec:	b2d2      	uxtb	r2, r2
   d82ee:	4620      	mov	r0, r4
   d82f0:	213d      	movs	r1, #61	; 0x3d
}
   d82f2:	e8bd 40f8 	ldmia.w	sp!, {r3, r4, r5, r6, r7, lr}
    SPI1.transfer(REG_AESKEY1 | 0x80);
    for (byte i = 0; i<16; i++)
      SPI1.transfer(key[i]);
    unselect();
  }
  writeReg(REG_PACKETCONFIG2, (readReg(REG_PACKETCONFIG2) & 0xFE) | (key ? 1 : 0));
   d82f6:	f7ff be2b 	b.w	d7f50 <_ZN5RFM698writeRegEhh>
	...

000d82fc <_ZN5RFM6910initializeEhhh>:
volatile byte RFM69::ACK_RECEIVED; /// Should be polled immediately after sending a packet with ACK request
volatile int RFM69::RSSI; //most accurate RSSI during reception (closest to the reception)
RFM69* RFM69::selfPointer;

bool RFM69::initialize(byte freqBand, byte nodeID, byte networkID)
{
   d82fc:	b5f0      	push	{r4, r5, r6, r7, lr}
   d82fe:	b08f      	sub	sp, #60	; 0x3c
   d8300:	460d      	mov	r5, r1
   d8302:	4604      	mov	r4, r0
    /* 0x3d */ { REG_PACKETCONFIG2, RF_PACKET2_RXRESTARTDELAY_2BITS | RF_PACKET2_AUTORXRESTART_ON | RF_PACKET2_AES_OFF }, //RXRESTARTDELAY must match transmitter PA ramp-down time (bitrate dependent)
    //for BR-19200: //* 0x3d */ { REG_PACKETCONFIG2, RF_PACKET2_RXRESTARTDELAY_NONE | RF_PACKET2_AUTORXRESTART_ON | RF_PACKET2_AES_OFF }, //RXRESTARTDELAY must match transmitter PA ramp-down time (bitrate dependent)
    //* 0x6F */ { REG_TESTDAGC, RF_DAGC_CONTINUOUS }, // run DAGC continuously in RX mode
    /* 0x6F */ { REG_TESTDAGC, RF_DAGC_IMPROVED_LOWBETA0 }, // run DAGC continuously in RX mode, recommended default for AfcLowBetaOn=0
    {255, 0}
  };
   d8304:	2100      	movs	r1, #0
volatile byte RFM69::ACK_RECEIVED; /// Should be polled immediately after sending a packet with ACK request
volatile int RFM69::RSSI; //most accurate RSSI during reception (closest to the reception)
RFM69* RFM69::selfPointer;

bool RFM69::initialize(byte freqBand, byte nodeID, byte networkID)
{
   d8306:	4616      	mov	r6, r2
    /* 0x3d */ { REG_PACKETCONFIG2, RF_PACKET2_RXRESTARTDELAY_2BITS | RF_PACKET2_AUTORXRESTART_ON | RF_PACKET2_AES_OFF }, //RXRESTARTDELAY must match transmitter PA ramp-down time (bitrate dependent)
    //for BR-19200: //* 0x3d */ { REG_PACKETCONFIG2, RF_PACKET2_RXRESTARTDELAY_NONE | RF_PACKET2_AUTORXRESTART_ON | RF_PACKET2_AES_OFF }, //RXRESTARTDELAY must match transmitter PA ramp-down time (bitrate dependent)
    //* 0x6F */ { REG_TESTDAGC, RF_DAGC_CONTINUOUS }, // run DAGC continuously in RX mode
    /* 0x6F */ { REG_TESTDAGC, RF_DAGC_IMPROVED_LOWBETA0 }, // run DAGC continuously in RX mode, recommended default for AfcLowBetaOn=0
    {255, 0}
  };
   d8308:	a803      	add	r0, sp, #12
   d830a:	222a      	movs	r2, #42	; 0x2a
volatile byte RFM69::ACK_RECEIVED; /// Should be polled immediately after sending a packet with ACK request
volatile int RFM69::RSSI; //most accurate RSSI during reception (closest to the reception)
RFM69* RFM69::selfPointer;

bool RFM69::initialize(byte freqBand, byte nodeID, byte networkID)
{
   d830c:	461f      	mov	r7, r3
    /* 0x3d */ { REG_PACKETCONFIG2, RF_PACKET2_RXRESTARTDELAY_2BITS | RF_PACKET2_AUTORXRESTART_ON | RF_PACKET2_AES_OFF }, //RXRESTARTDELAY must match transmitter PA ramp-down time (bitrate dependent)
    //for BR-19200: //* 0x3d */ { REG_PACKETCONFIG2, RF_PACKET2_RXRESTARTDELAY_NONE | RF_PACKET2_AUTORXRESTART_ON | RF_PACKET2_AES_OFF }, //RXRESTARTDELAY must match transmitter PA ramp-down time (bitrate dependent)
    //* 0x6F */ { REG_TESTDAGC, RF_DAGC_CONTINUOUS }, // run DAGC continuously in RX mode
    /* 0x6F */ { REG_TESTDAGC, RF_DAGC_IMPROVED_LOWBETA0 }, // run DAGC continuously in RX mode, recommended default for AfcLowBetaOn=0
    {255, 0}
  };
   d830e:	f003 f869 	bl	db3e4 <memset>
   d8312:	2301      	movs	r3, #1
   d8314:	f88d 300c 	strb.w	r3, [sp, #12]
   d8318:	2303      	movs	r3, #3
   d831a:	f88d 3010 	strb.w	r3, [sp, #16]
   d831e:	f88d 3015 	strb.w	r3, [sp, #21]
   d8322:	2306      	movs	r3, #6
   d8324:	f88d 3016 	strb.w	r3, [sp, #22]
   d8328:	2333      	movs	r3, #51	; 0x33
   d832a:	f88d 3017 	strb.w	r3, [sp, #23]
   d832e:	2307      	movs	r3, #7
   d8330:	f88d 3018 	strb.w	r3, [sp, #24]
   d8334:	2308      	movs	r3, #8
   d8336:	f88d 301a 	strb.w	r3, [sp, #26]
   d833a:	2309      	movs	r3, #9
   d833c:	f88d 301c 	strb.w	r3, [sp, #28]
   d8340:	2319      	movs	r3, #25
   d8342:	f88d 301e 	strb.w	r3, [sp, #30]
   d8346:	2325      	movs	r3, #37	; 0x25
   d8348:	f88d 3020 	strb.w	r3, [sp, #32]
   d834c:	2329      	movs	r3, #41	; 0x29
   d834e:	f88d 3022 	strb.w	r3, [sp, #34]	; 0x22
   d8352:	23dc      	movs	r3, #220	; 0xdc
   d8354:	f88d 3023 	strb.w	r3, [sp, #35]	; 0x23
   d8358:	232e      	movs	r3, #46	; 0x2e
   d835a:	f88d 3024 	strb.w	r3, [sp, #36]	; 0x24
   d835e:	2388      	movs	r3, #136	; 0x88
   d8360:	f88d 3025 	strb.w	r3, [sp, #37]	; 0x25
   d8364:	232f      	movs	r3, #47	; 0x2f
   d8366:	f88d 3026 	strb.w	r3, [sp, #38]	; 0x26
   d836a:	232d      	movs	r3, #45	; 0x2d
   d836c:	f88d 3027 	strb.w	r3, [sp, #39]	; 0x27
   d8370:	2337      	movs	r3, #55	; 0x37
   d8372:	f88d 302a 	strb.w	r3, [sp, #42]	; 0x2a
   d8376:	2390      	movs	r3, #144	; 0x90
   d8378:	f88d 302b 	strb.w	r3, [sp, #43]	; 0x2b
   d837c:	2338      	movs	r3, #56	; 0x38
   d837e:	f88d 302c 	strb.w	r3, [sp, #44]	; 0x2c
   d8382:	233c      	movs	r3, #60	; 0x3c
   d8384:	2204      	movs	r2, #4
   d8386:	2102      	movs	r1, #2
   d8388:	f88d 302e 	strb.w	r3, [sp, #46]	; 0x2e
   d838c:	238f      	movs	r3, #143	; 0x8f
   d838e:	f88d 200d 	strb.w	r2, [sp, #13]
   d8392:	f88d 100e 	strb.w	r1, [sp, #14]
   d8396:	f88d 1011 	strb.w	r1, [sp, #17]
   d839a:	f88d 2012 	strb.w	r2, [sp, #18]
   d839e:	2105      	movs	r1, #5
   d83a0:	2240      	movs	r2, #64	; 0x40
   d83a2:	f88d 302f 	strb.w	r3, [sp, #47]	; 0x2f
   d83a6:	233d      	movs	r3, #61	; 0x3d
   d83a8:	f88d 2013 	strb.w	r2, [sp, #19]
   d83ac:	f88d 1014 	strb.w	r1, [sp, #20]
   d83b0:	f88d 2021 	strb.w	r2, [sp, #33]	; 0x21
   d83b4:	2142      	movs	r1, #66	; 0x42
   d83b6:	2230      	movs	r2, #48	; 0x30
   d83b8:	f88d 3030 	strb.w	r3, [sp, #48]	; 0x30
   d83bc:	2312      	movs	r3, #18
   d83be:	f88d 101f 	strb.w	r1, [sp, #31]
   d83c2:	f88d 2028 	strb.w	r2, [sp, #40]	; 0x28
   d83c6:	f88d 102d 	strb.w	r1, [sp, #45]	; 0x2d
   d83ca:	f88d 3031 	strb.w	r3, [sp, #49]	; 0x31
   d83ce:	236f      	movs	r3, #111	; 0x6f
   d83d0:	f88d 3032 	strb.w	r3, [sp, #50]	; 0x32
   d83d4:	2d1f      	cmp	r5, #31
   d83d6:	f04f 03ff 	mov.w	r3, #255	; 0xff
   d83da:	f88d 2033 	strb.w	r2, [sp, #51]	; 0x33
   d83de:	f88d 3034 	strb.w	r3, [sp, #52]	; 0x34
   d83e2:	d006      	beq.n	d83f2 <_ZN5RFM6910initializeEhhh+0xf6>
   d83e4:	2d2b      	cmp	r5, #43	; 0x2b
   d83e6:	d006      	beq.n	d83f6 <_ZN5RFM6910initializeEhhh+0xfa>
   d83e8:	2d56      	cmp	r5, #86	; 0x56
   d83ea:	bf0c      	ite	eq
   d83ec:	22d9      	moveq	r2, #217	; 0xd9
   d83ee:	22e4      	movne	r2, #228	; 0xe4
   d83f0:	e002      	b.n	d83f8 <_ZN5RFM6910initializeEhhh+0xfc>
   d83f2:	224e      	movs	r2, #78	; 0x4e
   d83f4:	e000      	b.n	d83f8 <_ZN5RFM6910initializeEhhh+0xfc>
   d83f6:	226c      	movs	r2, #108	; 0x6c
   d83f8:	2d1f      	cmp	r5, #31
   d83fa:	f88d 2019 	strb.w	r2, [sp, #25]
   d83fe:	d006      	beq.n	d840e <_ZN5RFM6910initializeEhhh+0x112>
   d8400:	2d2b      	cmp	r5, #43	; 0x2b
   d8402:	d006      	beq.n	d8412 <_ZN5RFM6910initializeEhhh+0x116>
   d8404:	2d56      	cmp	r5, #86	; 0x56
   d8406:	bf14      	ite	ne
   d8408:	22c0      	movne	r2, #192	; 0xc0
   d840a:	2200      	moveq	r2, #0
   d840c:	e002      	b.n	d8414 <_ZN5RFM6910initializeEhhh+0x118>
   d840e:	22c0      	movs	r2, #192	; 0xc0
   d8410:	e000      	b.n	d8414 <_ZN5RFM6910initializeEhhh+0x118>
   d8412:	2240      	movs	r2, #64	; 0x40

  pinMode(_slaveSelectPin, OUTPUT);
   d8414:	2101      	movs	r1, #1
   d8416:	7920      	ldrb	r0, [r4, #4]
    /* 0x3d */ { REG_PACKETCONFIG2, RF_PACKET2_RXRESTARTDELAY_2BITS | RF_PACKET2_AUTORXRESTART_ON | RF_PACKET2_AES_OFF }, //RXRESTARTDELAY must match transmitter PA ramp-down time (bitrate dependent)
    //for BR-19200: //* 0x3d */ { REG_PACKETCONFIG2, RF_PACKET2_RXRESTARTDELAY_NONE | RF_PACKET2_AUTORXRESTART_ON | RF_PACKET2_AES_OFF }, //RXRESTARTDELAY must match transmitter PA ramp-down time (bitrate dependent)
    //* 0x6F */ { REG_TESTDAGC, RF_DAGC_CONTINUOUS }, // run DAGC continuously in RX mode
    /* 0x6F */ { REG_TESTDAGC, RF_DAGC_IMPROVED_LOWBETA0 }, // run DAGC continuously in RX mode, recommended default for AfcLowBetaOn=0
    {255, 0}
  };
   d8418:	f88d 201b 	strb.w	r2, [sp, #27]
   d841c:	f88d 7029 	strb.w	r7, [sp, #41]	; 0x29

  pinMode(_slaveSelectPin, OUTPUT);
   d8420:	f002 f86a 	bl	da4f8 <pinMode>
        static SPIClass instance(Interface);
        return instance;
    }

    void begin() {
        instance().begin();
   d8424:	f7ff fd4a 	bl	d7ebc <_ZN8particle8SpiProxyIL17HAL_SPI_Interface1EE8instanceEv>
   d8428:	f000 fc56 	bl	d8cd8 <_ZN8SPIClass5beginEv>
   d842c:	f000 f952 	bl	d86d4 <HAL_Timer_Get_Milli_Seconds>
   d8430:	4605      	mov	r5, r0
  // Set time out to 50ms
  #define TIME_OUT 50
  
  start_to = millis() ;

  do writeReg(REG_SYNCVALUE1, 0xaa); while (readReg(REG_SYNCVALUE1) != 0xaa && millis()-start_to < TIME_OUT);
   d8432:	22aa      	movs	r2, #170	; 0xaa
   d8434:	212f      	movs	r1, #47	; 0x2f
   d8436:	4620      	mov	r0, r4
   d8438:	f7ff fd8a 	bl	d7f50 <_ZN5RFM698writeRegEhh>
   d843c:	212f      	movs	r1, #47	; 0x2f
   d843e:	4620      	mov	r0, r4
   d8440:	f7ff fd74 	bl	d7f2c <_ZN5RFM697readRegEh>
   d8444:	28aa      	cmp	r0, #170	; 0xaa
   d8446:	d004      	beq.n	d8452 <_ZN5RFM6910initializeEhhh+0x156>
   d8448:	f000 f944 	bl	d86d4 <HAL_Timer_Get_Milli_Seconds>
   d844c:	1b40      	subs	r0, r0, r5
   d844e:	2831      	cmp	r0, #49	; 0x31
   d8450:	d9ef      	bls.n	d8432 <_ZN5RFM6910initializeEhhh+0x136>
   d8452:	f000 f93f 	bl	d86d4 <HAL_Timer_Get_Milli_Seconds>
  if (millis()-start_to >= TIME_OUT) return (false);
   d8456:	1b40      	subs	r0, r0, r5
   d8458:	2831      	cmp	r0, #49	; 0x31
   d845a:	d82d      	bhi.n	d84b8 <_ZN5RFM6910initializeEhhh+0x1bc>
   d845c:	f000 f93a 	bl	d86d4 <HAL_Timer_Get_Milli_Seconds>
   d8460:	4605      	mov	r5, r0
    
  // Set time out 
  start_to = millis()  ;  
	do writeReg(REG_SYNCVALUE1, 0x55); while (readReg(REG_SYNCVALUE1) != 0x55 && millis()-start_to < TIME_OUT);
   d8462:	2255      	movs	r2, #85	; 0x55
   d8464:	212f      	movs	r1, #47	; 0x2f
   d8466:	4620      	mov	r0, r4
   d8468:	f7ff fd72 	bl	d7f50 <_ZN5RFM698writeRegEhh>
   d846c:	212f      	movs	r1, #47	; 0x2f
   d846e:	4620      	mov	r0, r4
   d8470:	f7ff fd5c 	bl	d7f2c <_ZN5RFM697readRegEh>
   d8474:	2855      	cmp	r0, #85	; 0x55
   d8476:	d021      	beq.n	d84bc <_ZN5RFM6910initializeEhhh+0x1c0>
   d8478:	f000 f92c 	bl	d86d4 <HAL_Timer_Get_Milli_Seconds>
   d847c:	1b40      	subs	r0, r0, r5
   d847e:	2831      	cmp	r0, #49	; 0x31
   d8480:	d9ef      	bls.n	d8462 <_ZN5RFM6910initializeEhhh+0x166>
   d8482:	e01b      	b.n	d84bc <_ZN5RFM6910initializeEhhh+0x1c0>
  for (byte i = 0; CONFIG[i][0] != 255; i++)
    writeReg(CONFIG[i][0], CONFIG[i][1]);

  // Encryption is persistent between resets and can trip you up during debugging.
  // Disable it during initialization so we always start from a known state.
  encrypt(0);
   d8484:	2100      	movs	r1, #0
   d8486:	4620      	mov	r0, r4
   d8488:	f7ff ff0c 	bl	d82a4 <_ZN5RFM697encryptEPKc>

  setHighPower(_isRFM69HW); //called regardless if it's a RFM69W or RFM69HW
   d848c:	7aa1      	ldrb	r1, [r4, #10]
   d848e:	4620      	mov	r0, r4
   d8490:	f7ff fe5a 	bl	d8148 <_ZN5RFM6912setHighPowerEb>
  setMode(RF69_MODE_STANDBY);
   d8494:	2101      	movs	r1, #1
   d8496:	4620      	mov	r0, r4
   d8498:	f7ff fda8 	bl	d7fec <_ZN5RFM697setModeEh>
   d849c:	f000 f91a 	bl	d86d4 <HAL_Timer_Get_Milli_Seconds>
   d84a0:	4605      	mov	r5, r0
  // Set time out 
  start_to = millis() ;
	while (((readReg(REG_IRQFLAGS1) & RF_IRQFLAGS1_MODEREADY) == 0x00) && millis()-start_to < TIME_OUT); // Wait for ModeReady
   d84a2:	2127      	movs	r1, #39	; 0x27
   d84a4:	4620      	mov	r0, r4
   d84a6:	f7ff fd41 	bl	d7f2c <_ZN5RFM697readRegEh>
   d84aa:	0603      	lsls	r3, r0, #24
   d84ac:	d51b      	bpl.n	d84e6 <_ZN5RFM6910initializeEhhh+0x1ea>
   d84ae:	f000 f911 	bl	d86d4 <HAL_Timer_Get_Milli_Seconds>
  if (millis()-start_to >= TIME_OUT) return (false);
   d84b2:	1b40      	subs	r0, r0, r5
   d84b4:	2831      	cmp	r0, #49	; 0x31
   d84b6:	d91c      	bls.n	d84f2 <_ZN5RFM6910initializeEhhh+0x1f6>
  // picking a non-interrupt enabled pin will prevent proper initialization
  // code thanks to @ScruffR - https://community.particle.io/t/how-to-make-rfm69-work-on-photon-solved-new-library-rfm69-particle/26497/93?u=bloukingfisher
  if (!attachInterrupt(_interruptNum, RFM69::isr0, RISING)) return false;
   d84b8:	2000      	movs	r0, #0
   d84ba:	e028      	b.n	d850e <_ZN5RFM6910initializeEhhh+0x212>
   d84bc:	f000 f90a 	bl	d86d4 <HAL_Timer_Get_Milli_Seconds>
  if (millis()-start_to >= TIME_OUT) return (false);
    
  // Set time out 
  start_to = millis()  ;  
	do writeReg(REG_SYNCVALUE1, 0x55); while (readReg(REG_SYNCVALUE1) != 0x55 && millis()-start_to < TIME_OUT);
  if (millis()-start_to >= TIME_OUT) return (false);
   d84c0:	1b40      	subs	r0, r0, r5
   d84c2:	2831      	cmp	r0, #49	; 0x31
   d84c4:	d8f8      	bhi.n	d84b8 <_ZN5RFM6910initializeEhhh+0x1bc>
   d84c6:	2500      	movs	r5, #0
  for (byte i = 0; CONFIG[i][0] != 255; i++)
   d84c8:	b2eb      	uxtb	r3, r5
   d84ca:	aa0e      	add	r2, sp, #56	; 0x38
   d84cc:	eb02 0343 	add.w	r3, r2, r3, lsl #1
   d84d0:	3501      	adds	r5, #1
   d84d2:	f813 1c2c 	ldrb.w	r1, [r3, #-44]
   d84d6:	29ff      	cmp	r1, #255	; 0xff
   d84d8:	d0d4      	beq.n	d8484 <_ZN5RFM6910initializeEhhh+0x188>
    writeReg(CONFIG[i][0], CONFIG[i][1]);
   d84da:	f813 2c2b 	ldrb.w	r2, [r3, #-43]
   d84de:	4620      	mov	r0, r4
   d84e0:	f7ff fd36 	bl	d7f50 <_ZN5RFM698writeRegEhh>
    
  // Set time out 
  start_to = millis()  ;  
	do writeReg(REG_SYNCVALUE1, 0x55); while (readReg(REG_SYNCVALUE1) != 0x55 && millis()-start_to < TIME_OUT);
  if (millis()-start_to >= TIME_OUT) return (false);
  for (byte i = 0; CONFIG[i][0] != 255; i++)
   d84e4:	e7f0      	b.n	d84c8 <_ZN5RFM6910initializeEhhh+0x1cc>
   d84e6:	f000 f8f5 	bl	d86d4 <HAL_Timer_Get_Milli_Seconds>

  setHighPower(_isRFM69HW); //called regardless if it's a RFM69W or RFM69HW
  setMode(RF69_MODE_STANDBY);
  // Set time out 
  start_to = millis() ;
	while (((readReg(REG_IRQFLAGS1) & RF_IRQFLAGS1_MODEREADY) == 0x00) && millis()-start_to < TIME_OUT); // Wait for ModeReady
   d84ea:	1b40      	subs	r0, r0, r5
   d84ec:	2831      	cmp	r0, #49	; 0x31
   d84ee:	d9d8      	bls.n	d84a2 <_ZN5RFM6910initializeEhhh+0x1a6>
   d84f0:	e7dd      	b.n	d84ae <_ZN5RFM6910initializeEhhh+0x1b2>
  if (millis()-start_to >= TIME_OUT) return (false);
  // picking a non-interrupt enabled pin will prevent proper initialization
  // code thanks to @ScruffR - https://community.particle.io/t/how-to-make-rfm69-work-on-photon-solved-new-library-rfm69-particle/26497/93?u=bloukingfisher
  if (!attachInterrupt(_interruptNum, RFM69::isr0, RISING)) return false;
   d84f2:	2300      	movs	r3, #0
   d84f4:	9300      	str	r3, [sp, #0]
   d84f6:	79a0      	ldrb	r0, [r4, #6]
   d84f8:	4906      	ldr	r1, [pc, #24]	; (d8514 <_ZN5RFM6910initializeEhhh+0x218>)
   d84fa:	f04f 33ff 	mov.w	r3, #4294967295
   d84fe:	2201      	movs	r2, #1
   d8500:	f001 f9fa 	bl	d98f8 <_Z15attachInterrupttPFvvE13InterruptModeah>
   d8504:	2800      	cmp	r0, #0
   d8506:	d0d7      	beq.n	d84b8 <_ZN5RFM6910initializeEhhh+0x1bc>

  selfPointer = this;
   d8508:	4b03      	ldr	r3, [pc, #12]	; (d8518 <_ZN5RFM6910initializeEhhh+0x21c>)
  _address = nodeID;
   d850a:	71e6      	strb	r6, [r4, #7]
  if (millis()-start_to >= TIME_OUT) return (false);
  // picking a non-interrupt enabled pin will prevent proper initialization
  // code thanks to @ScruffR - https://community.particle.io/t/how-to-make-rfm69-work-on-photon-solved-new-library-rfm69-particle/26497/93?u=bloukingfisher
  if (!attachInterrupt(_interruptNum, RFM69::isr0, RISING)) return false;

  selfPointer = this;
   d850c:	601c      	str	r4, [r3, #0]
  _address = nodeID;
  return true;
}
   d850e:	b00f      	add	sp, #60	; 0x3c
   d8510:	bdf0      	pop	{r4, r5, r6, r7, pc}
   d8512:	bf00      	nop
   d8514:	000d7e99 	.word	0x000d7e99
   d8518:	2003e040 	.word	0x2003e040

000d851c <_GLOBAL__sub_I__ZN5RFM694DATAE>:
   d851c:	f000 b812 	b.w	d8544 <HAL_Pin_Map>

000d8520 <_GLOBAL__sub_I__ZN9RFM69_ATC18ACK_RSSI_REQUESTEDE>:
   d8520:	f000 b810 	b.w	d8544 <HAL_Pin_Map>

000d8524 <netdb_freeaddrinfo>:

DYNALIB_BEGIN(hal_netdb)

DYNALIB_FN(0, hal_netdb, netdb_gethostbyname, struct hostent*(const char*))
DYNALIB_FN(1, hal_netdb, netdb_gethostbyname_r, int(const char*, struct hostent*, char*, size_t, struct hostent**, int*))
DYNALIB_FN(2, hal_netdb, netdb_freeaddrinfo, void(struct addrinfo*))
   d8524:	b508      	push	{r3, lr}
   d8526:	4b02      	ldr	r3, [pc, #8]	; (d8530 <netdb_freeaddrinfo+0xc>)
   d8528:	681b      	ldr	r3, [r3, #0]
   d852a:	689b      	ldr	r3, [r3, #8]
   d852c:	9301      	str	r3, [sp, #4]
   d852e:	bd08      	pop	{r3, pc}
   d8530:	00030268 	.word	0x00030268

000d8534 <netdb_getaddrinfo>:
DYNALIB_FN(3, hal_netdb, netdb_getaddrinfo, int(const char*, const char*, const struct addrinfo*, struct addrinfo**))
   d8534:	b508      	push	{r3, lr}
   d8536:	4b02      	ldr	r3, [pc, #8]	; (d8540 <netdb_getaddrinfo+0xc>)
   d8538:	681b      	ldr	r3, [r3, #0]
   d853a:	68db      	ldr	r3, [r3, #12]
   d853c:	9301      	str	r3, [sp, #4]
   d853e:	bd08      	pop	{r3, pc}
   d8540:	00030268 	.word	0x00030268

000d8544 <HAL_Pin_Map>:
// New HAL functions must be added to the end of this list.
// GNINRAW

DYNALIB_BEGIN(hal_gpio)

DYNALIB_FN(0, hal_gpio, HAL_Pin_Map, Hal_Pin_Info*(void))
   d8544:	b508      	push	{r3, lr}
   d8546:	4b02      	ldr	r3, [pc, #8]	; (d8550 <HAL_Pin_Map+0xc>)
   d8548:	681b      	ldr	r3, [r3, #0]
   d854a:	681b      	ldr	r3, [r3, #0]
   d854c:	9301      	str	r3, [sp, #4]
   d854e:	bd08      	pop	{r3, pc}
   d8550:	0003022c 	.word	0x0003022c

000d8554 <HAL_Pin_Mode>:
DYNALIB_FN(1, hal_gpio, HAL_Validate_Pin_Function, PinFunction(pin_t, PinFunction))
DYNALIB_FN(2, hal_gpio, HAL_Pin_Mode, void(pin_t, PinMode))
   d8554:	b508      	push	{r3, lr}
   d8556:	4b02      	ldr	r3, [pc, #8]	; (d8560 <HAL_Pin_Mode+0xc>)
   d8558:	681b      	ldr	r3, [r3, #0]
   d855a:	689b      	ldr	r3, [r3, #8]
   d855c:	9301      	str	r3, [sp, #4]
   d855e:	bd08      	pop	{r3, pc}
   d8560:	0003022c 	.word	0x0003022c

000d8564 <HAL_Get_Pin_Mode>:
DYNALIB_FN(3, hal_gpio, HAL_Get_Pin_Mode, PinMode(pin_t))
   d8564:	b508      	push	{r3, lr}
   d8566:	4b02      	ldr	r3, [pc, #8]	; (d8570 <HAL_Get_Pin_Mode+0xc>)
   d8568:	681b      	ldr	r3, [r3, #0]
   d856a:	68db      	ldr	r3, [r3, #12]
   d856c:	9301      	str	r3, [sp, #4]
   d856e:	bd08      	pop	{r3, pc}
   d8570:	0003022c 	.word	0x0003022c

000d8574 <HAL_GPIO_Write>:
DYNALIB_FN(4, hal_gpio, HAL_GPIO_Write, void(pin_t, uint8_t))
   d8574:	b508      	push	{r3, lr}
   d8576:	4b02      	ldr	r3, [pc, #8]	; (d8580 <HAL_GPIO_Write+0xc>)
   d8578:	681b      	ldr	r3, [r3, #0]
   d857a:	691b      	ldr	r3, [r3, #16]
   d857c:	9301      	str	r3, [sp, #4]
   d857e:	bd08      	pop	{r3, pc}
   d8580:	0003022c 	.word	0x0003022c

000d8584 <HAL_GPIO_Read>:
DYNALIB_FN(5, hal_gpio, HAL_GPIO_Read, int32_t(pin_t))
   d8584:	b508      	push	{r3, lr}
   d8586:	4b02      	ldr	r3, [pc, #8]	; (d8590 <HAL_GPIO_Read+0xc>)
   d8588:	681b      	ldr	r3, [r3, #0]
   d858a:	695b      	ldr	r3, [r3, #20]
   d858c:	9301      	str	r3, [sp, #4]
   d858e:	bd08      	pop	{r3, pc}
   d8590:	0003022c 	.word	0x0003022c

000d8594 <HAL_Interrupts_Attach>:
DYNALIB_FN(6, hal_gpio, HAL_Interrupts_Attach, int(uint16_t, HAL_InterruptHandler, void*, InterruptMode, HAL_InterruptExtraConfiguration*))
   d8594:	b508      	push	{r3, lr}
   d8596:	4b02      	ldr	r3, [pc, #8]	; (d85a0 <HAL_Interrupts_Attach+0xc>)
   d8598:	681b      	ldr	r3, [r3, #0]
   d859a:	699b      	ldr	r3, [r3, #24]
   d859c:	9301      	str	r3, [sp, #4]
   d859e:	bd08      	pop	{r3, pc}
   d85a0:	0003022c 	.word	0x0003022c

000d85a4 <HAL_Interrupts_Detach>:
DYNALIB_FN(7, hal_gpio, HAL_Interrupts_Detach, int(uint16_t))
   d85a4:	b508      	push	{r3, lr}
   d85a6:	4b02      	ldr	r3, [pc, #8]	; (d85b0 <HAL_Interrupts_Detach+0xc>)
   d85a8:	681b      	ldr	r3, [r3, #0]
   d85aa:	69db      	ldr	r3, [r3, #28]
   d85ac:	9301      	str	r3, [sp, #4]
   d85ae:	bd08      	pop	{r3, pc}
   d85b0:	0003022c 	.word	0x0003022c

000d85b4 <HAL_Interrupts_Enable_All>:
DYNALIB_FN(8, hal_gpio, HAL_Interrupts_Enable_All, void(void))
   d85b4:	b508      	push	{r3, lr}
   d85b6:	4b02      	ldr	r3, [pc, #8]	; (d85c0 <HAL_Interrupts_Enable_All+0xc>)
   d85b8:	681b      	ldr	r3, [r3, #0]
   d85ba:	6a1b      	ldr	r3, [r3, #32]
   d85bc:	9301      	str	r3, [sp, #4]
   d85be:	bd08      	pop	{r3, pc}
   d85c0:	0003022c 	.word	0x0003022c

000d85c4 <HAL_Interrupts_Disable_All>:
DYNALIB_FN(9, hal_gpio, HAL_Interrupts_Disable_All, void(void))
   d85c4:	b508      	push	{r3, lr}
   d85c6:	4b02      	ldr	r3, [pc, #8]	; (d85d0 <HAL_Interrupts_Disable_All+0xc>)
   d85c8:	681b      	ldr	r3, [r3, #0]
   d85ca:	6a5b      	ldr	r3, [r3, #36]	; 0x24
   d85cc:	9301      	str	r3, [sp, #4]
   d85ce:	bd08      	pop	{r3, pc}
   d85d0:	0003022c 	.word	0x0003022c

000d85d4 <HAL_SPI_Begin>:
// New HAL functions must be added to the end of this list.
// GNINRAW

DYNALIB_BEGIN(hal_spi)

DYNALIB_FN(0, hal_spi, HAL_SPI_Begin, void(HAL_SPI_Interface, uint16_t))
   d85d4:	b508      	push	{r3, lr}
   d85d6:	4b02      	ldr	r3, [pc, #8]	; (d85e0 <HAL_SPI_Begin+0xc>)
   d85d8:	681b      	ldr	r3, [r3, #0]
   d85da:	681b      	ldr	r3, [r3, #0]
   d85dc:	9301      	str	r3, [sp, #4]
   d85de:	bd08      	pop	{r3, pc}
   d85e0:	00030230 	.word	0x00030230

000d85e4 <HAL_SPI_Set_Bit_Order>:
DYNALIB_FN(1, hal_spi, HAL_SPI_End, void(HAL_SPI_Interface))
DYNALIB_FN(2, hal_spi, HAL_SPI_Set_Bit_Order, void(HAL_SPI_Interface, uint8_t))
   d85e4:	b508      	push	{r3, lr}
   d85e6:	4b02      	ldr	r3, [pc, #8]	; (d85f0 <HAL_SPI_Set_Bit_Order+0xc>)
   d85e8:	681b      	ldr	r3, [r3, #0]
   d85ea:	689b      	ldr	r3, [r3, #8]
   d85ec:	9301      	str	r3, [sp, #4]
   d85ee:	bd08      	pop	{r3, pc}
   d85f0:	00030230 	.word	0x00030230

000d85f4 <HAL_SPI_Set_Data_Mode>:
DYNALIB_FN(3, hal_spi, HAL_SPI_Set_Data_Mode, void(HAL_SPI_Interface, uint8_t))
   d85f4:	b508      	push	{r3, lr}
   d85f6:	4b02      	ldr	r3, [pc, #8]	; (d8600 <HAL_SPI_Set_Data_Mode+0xc>)
   d85f8:	681b      	ldr	r3, [r3, #0]
   d85fa:	68db      	ldr	r3, [r3, #12]
   d85fc:	9301      	str	r3, [sp, #4]
   d85fe:	bd08      	pop	{r3, pc}
   d8600:	00030230 	.word	0x00030230

000d8604 <HAL_SPI_Set_Clock_Divider>:
DYNALIB_FN(4, hal_spi, HAL_SPI_Set_Clock_Divider, void(HAL_SPI_Interface, uint8_t))
   d8604:	b508      	push	{r3, lr}
   d8606:	4b02      	ldr	r3, [pc, #8]	; (d8610 <HAL_SPI_Set_Clock_Divider+0xc>)
   d8608:	681b      	ldr	r3, [r3, #0]
   d860a:	691b      	ldr	r3, [r3, #16]
   d860c:	9301      	str	r3, [sp, #4]
   d860e:	bd08      	pop	{r3, pc}
   d8610:	00030230 	.word	0x00030230

000d8614 <HAL_SPI_Send_Receive_Data>:
DYNALIB_FN(5, hal_spi, HAL_SPI_Send_Receive_Data, uint16_t(HAL_SPI_Interface, uint16_t))
   d8614:	b508      	push	{r3, lr}
   d8616:	4b02      	ldr	r3, [pc, #8]	; (d8620 <HAL_SPI_Send_Receive_Data+0xc>)
   d8618:	681b      	ldr	r3, [r3, #0]
   d861a:	695b      	ldr	r3, [r3, #20]
   d861c:	9301      	str	r3, [sp, #4]
   d861e:	bd08      	pop	{r3, pc}
   d8620:	00030230 	.word	0x00030230

000d8624 <HAL_SPI_Init>:
DYNALIB_FN(6, hal_spi, HAL_SPI_Is_Enabled_Old, bool(void))
DYNALIB_FN(7, hal_spi, HAL_SPI_Init, void(HAL_SPI_Interface))
   d8624:	b508      	push	{r3, lr}
   d8626:	4b02      	ldr	r3, [pc, #8]	; (d8630 <HAL_SPI_Init+0xc>)
   d8628:	681b      	ldr	r3, [r3, #0]
   d862a:	69db      	ldr	r3, [r3, #28]
   d862c:	9301      	str	r3, [sp, #4]
   d862e:	bd08      	pop	{r3, pc}
   d8630:	00030230 	.word	0x00030230

000d8634 <HAL_SPI_Is_Enabled>:
DYNALIB_FN(8, hal_spi, HAL_SPI_Is_Enabled, bool(HAL_SPI_Interface))
   d8634:	b508      	push	{r3, lr}
   d8636:	4b02      	ldr	r3, [pc, #8]	; (d8640 <HAL_SPI_Is_Enabled+0xc>)
   d8638:	681b      	ldr	r3, [r3, #0]
   d863a:	6a1b      	ldr	r3, [r3, #32]
   d863c:	9301      	str	r3, [sp, #4]
   d863e:	bd08      	pop	{r3, pc}
   d8640:	00030230 	.word	0x00030230

000d8644 <HAL_SPI_Info>:
DYNALIB_FN(9, hal_spi, HAL_SPI_Info, void(HAL_SPI_Interface, hal_spi_info_t*, void*))
   d8644:	b508      	push	{r3, lr}
   d8646:	4b02      	ldr	r3, [pc, #8]	; (d8650 <HAL_SPI_Info+0xc>)
   d8648:	681b      	ldr	r3, [r3, #0]
   d864a:	6a5b      	ldr	r3, [r3, #36]	; 0x24
   d864c:	9301      	str	r3, [sp, #4]
   d864e:	bd08      	pop	{r3, pc}
   d8650:	00030230 	.word	0x00030230

000d8654 <HAL_SPI_DMA_Transfer>:
DYNALIB_FN(10, hal_spi, HAL_SPI_DMA_Transfer, void(HAL_SPI_Interface, void*, void*, uint32_t, HAL_SPI_DMA_UserCallback))
   d8654:	b508      	push	{r3, lr}
   d8656:	4b02      	ldr	r3, [pc, #8]	; (d8660 <HAL_SPI_DMA_Transfer+0xc>)
   d8658:	681b      	ldr	r3, [r3, #0]
   d865a:	6a9b      	ldr	r3, [r3, #40]	; 0x28
   d865c:	9301      	str	r3, [sp, #4]
   d865e:	bd08      	pop	{r3, pc}
   d8660:	00030230 	.word	0x00030230

000d8664 <HAL_SPI_DMA_Transfer_Status>:
DYNALIB_FN(11, hal_spi, HAL_SPI_Begin_Ext, void(HAL_SPI_Interface, SPI_Mode, uint16_t, void*))
DYNALIB_FN(12, hal_spi, HAL_SPI_Set_Callback_On_Select, void(HAL_SPI_Interface, HAL_SPI_Select_UserCallback, void*))
DYNALIB_FN(13, hal_spi, HAL_SPI_DMA_Transfer_Cancel, void(HAL_SPI_Interface))
DYNALIB_FN(14, hal_spi, HAL_SPI_DMA_Transfer_Status, int32_t(HAL_SPI_Interface, HAL_SPI_TransferStatus*))
   d8664:	b508      	push	{r3, lr}
   d8666:	4b02      	ldr	r3, [pc, #8]	; (d8670 <HAL_SPI_DMA_Transfer_Status+0xc>)
   d8668:	681b      	ldr	r3, [r3, #0]
   d866a:	6b9b      	ldr	r3, [r3, #56]	; 0x38
   d866c:	9301      	str	r3, [sp, #4]
   d866e:	bd08      	pop	{r3, pc}
   d8670:	00030230 	.word	0x00030230

000d8674 <HAL_SPI_Set_Settings>:
DYNALIB_FN(15, hal_spi, HAL_SPI_Set_Settings, int32_t(HAL_SPI_Interface, uint8_t, uint8_t, uint8_t, uint8_t, void*))
   d8674:	b508      	push	{r3, lr}
   d8676:	4b02      	ldr	r3, [pc, #8]	; (d8680 <HAL_SPI_Set_Settings+0xc>)
   d8678:	681b      	ldr	r3, [r3, #0]
   d867a:	6bdb      	ldr	r3, [r3, #60]	; 0x3c
   d867c:	9301      	str	r3, [sp, #4]
   d867e:	bd08      	pop	{r3, pc}
   d8680:	00030230 	.word	0x00030230

000d8684 <HAL_SPI_Acquire>:
#if HAL_PLATFORM_SPI_HAL_THREAD_SAFETY
DYNALIB_FN(16, hal_spi, HAL_SPI_Acquire, int32_t(HAL_SPI_Interface, const HAL_SPI_AcquireConfig*))
   d8684:	b508      	push	{r3, lr}
   d8686:	4b02      	ldr	r3, [pc, #8]	; (d8690 <HAL_SPI_Acquire+0xc>)
   d8688:	681b      	ldr	r3, [r3, #0]
   d868a:	6c1b      	ldr	r3, [r3, #64]	; 0x40
   d868c:	9301      	str	r3, [sp, #4]
   d868e:	bd08      	pop	{r3, pc}
   d8690:	00030230 	.word	0x00030230

000d8694 <HAL_SPI_Release>:
DYNALIB_FN(17, hal_spi, HAL_SPI_Release, int32_t(HAL_SPI_Interface, void*))
   d8694:	b508      	push	{r3, lr}
   d8696:	4b02      	ldr	r3, [pc, #8]	; (d86a0 <HAL_SPI_Release+0xc>)
   d8698:	681b      	ldr	r3, [r3, #0]
   d869a:	6c5b      	ldr	r3, [r3, #68]	; 0x44
   d869c:	9301      	str	r3, [sp, #4]
   d869e:	bd08      	pop	{r3, pc}
   d86a0:	00030230 	.word	0x00030230

000d86a4 <if_index_to_name>:
DYNALIB_FN(0, hal_ifapi, if_get_list, int(struct if_list**))
DYNALIB_FN(1, hal_ifapi, if_free_list, int(struct if_list*))
DYNALIB_FN(2, hal_ifapi, if_get_name_index, int(struct if_nameindex**))
DYNALIB_FN(3, hal_ifapi, if_free_name_index, int(struct if_nameindex*))
DYNALIB_FN(4, hal_ifapi, if_name_to_index, int(const char*, uint8_t*))
DYNALIB_FN(5, hal_ifapi, if_index_to_name, int(uint8_t, char*))
   d86a4:	b508      	push	{r3, lr}
   d86a6:	4b02      	ldr	r3, [pc, #8]	; (d86b0 <if_index_to_name+0xc>)
   d86a8:	681b      	ldr	r3, [r3, #0]
   d86aa:	695b      	ldr	r3, [r3, #20]
   d86ac:	9301      	str	r3, [sp, #4]
   d86ae:	bd08      	pop	{r3, pc}
   d86b0:	0003026c 	.word	0x0003026c

000d86b4 <HAL_RNG_GetRandomNumber>:

DYNALIB_BEGIN(hal)

#if PLATFORM_ID > 3
DYNALIB_FN(0, hal, HAL_RNG_Configuration, void(void))
DYNALIB_FN(1, hal, HAL_RNG_GetRandomNumber, uint32_t(void))
   d86b4:	b508      	push	{r3, lr}
   d86b6:	4b02      	ldr	r3, [pc, #8]	; (d86c0 <HAL_RNG_GetRandomNumber+0xc>)
   d86b8:	681b      	ldr	r3, [r3, #0]
   d86ba:	685b      	ldr	r3, [r3, #4]
   d86bc:	9301      	str	r3, [sp, #4]
   d86be:	bd08      	pop	{r3, pc}
   d86c0:	00030218 	.word	0x00030218

000d86c4 <HAL_Timer_Get_Micro_Seconds>:
#define BASE_IDX 0
#endif

DYNALIB_FN(BASE_IDX + 0, hal, HAL_Delay_Milliseconds, void(uint32_t))
DYNALIB_FN(BASE_IDX + 1, hal, HAL_Delay_Microseconds, void(uint32_t))
DYNALIB_FN(BASE_IDX + 2, hal, HAL_Timer_Get_Micro_Seconds, system_tick_t(void))
   d86c4:	b508      	push	{r3, lr}
   d86c6:	4b02      	ldr	r3, [pc, #8]	; (d86d0 <HAL_Timer_Get_Micro_Seconds+0xc>)
   d86c8:	681b      	ldr	r3, [r3, #0]
   d86ca:	691b      	ldr	r3, [r3, #16]
   d86cc:	9301      	str	r3, [sp, #4]
   d86ce:	bd08      	pop	{r3, pc}
   d86d0:	00030218 	.word	0x00030218

000d86d4 <HAL_Timer_Get_Milli_Seconds>:
DYNALIB_FN(BASE_IDX + 3, hal, HAL_Timer_Get_Milli_Seconds, system_tick_t(void))
   d86d4:	b508      	push	{r3, lr}
   d86d6:	4b02      	ldr	r3, [pc, #8]	; (d86e0 <HAL_Timer_Get_Milli_Seconds+0xc>)
   d86d8:	681b      	ldr	r3, [r3, #0]
   d86da:	695b      	ldr	r3, [r3, #20]
   d86dc:	9301      	str	r3, [sp, #4]
   d86de:	bd08      	pop	{r3, pc}
   d86e0:	00030218 	.word	0x00030218

000d86e4 <HAL_RTC_Get_UnixTime>:

DYNALIB_FN(BASE_IDX + 4, hal, HAL_RTC_Configuration, void(void))
DYNALIB_FN(BASE_IDX + 5, hal, HAL_RTC_Get_UnixTime, time_t(void))
   d86e4:	b508      	push	{r3, lr}
   d86e6:	4b02      	ldr	r3, [pc, #8]	; (d86f0 <HAL_RTC_Get_UnixTime+0xc>)
   d86e8:	681b      	ldr	r3, [r3, #0]
   d86ea:	69db      	ldr	r3, [r3, #28]
   d86ec:	9301      	str	r3, [sp, #4]
   d86ee:	bd08      	pop	{r3, pc}
   d86f0:	00030218 	.word	0x00030218

000d86f4 <HAL_EEPROM_Init>:
DYNALIB_FN(BASE_IDX + 6, hal, HAL_RTC_Set_UnixTime, void(time_t))
DYNALIB_FN(BASE_IDX + 7, hal, HAL_RTC_Set_UnixAlarm, void(time_t))

DYNALIB_FN(BASE_IDX + 8, hal, HAL_EEPROM_Init, void(void))
   d86f4:	b508      	push	{r3, lr}
   d86f6:	4b02      	ldr	r3, [pc, #8]	; (d8700 <HAL_EEPROM_Init+0xc>)
   d86f8:	681b      	ldr	r3, [r3, #0]
   d86fa:	6a9b      	ldr	r3, [r3, #40]	; 0x28
   d86fc:	9301      	str	r3, [sp, #4]
   d86fe:	bd08      	pop	{r3, pc}
   d8700:	00030218 	.word	0x00030218

000d8704 <HAL_EEPROM_Get>:

DYNALIB_FN(BASE_IDX + 12, hal, HAL_disable_irq, int(void))
DYNALIB_FN(BASE_IDX + 13, hal, HAL_enable_irq, void(int))
DYNALIB_FN(BASE_IDX + 14, hal, HAL_RTC_Cancel_UnixAlarm, void(void))

DYNALIB_FN(BASE_IDX + 15, hal,HAL_EEPROM_Get, void(uint32_t, void *, size_t))
   d8704:	b508      	push	{r3, lr}
   d8706:	4b02      	ldr	r3, [pc, #8]	; (d8710 <HAL_EEPROM_Get+0xc>)
   d8708:	681b      	ldr	r3, [r3, #0]
   d870a:	6c5b      	ldr	r3, [r3, #68]	; 0x44
   d870c:	9301      	str	r3, [sp, #4]
   d870e:	bd08      	pop	{r3, pc}
   d8710:	00030218 	.word	0x00030218

000d8714 <HAL_EEPROM_Put>:
DYNALIB_FN(BASE_IDX + 16, hal,HAL_EEPROM_Put, void(uint32_t, const void *, size_t))
   d8714:	b508      	push	{r3, lr}
   d8716:	4b02      	ldr	r3, [pc, #8]	; (d8720 <HAL_EEPROM_Put+0xc>)
   d8718:	681b      	ldr	r3, [r3, #0]
   d871a:	6c9b      	ldr	r3, [r3, #72]	; 0x48
   d871c:	9301      	str	r3, [sp, #4]
   d871e:	bd08      	pop	{r3, pc}
   d8720:	00030218 	.word	0x00030218

000d8724 <HAL_RTC_Time_Is_Valid>:
DYNALIB_FN(BASE_IDX + 17, hal,HAL_EEPROM_Clear, void(void))
DYNALIB_FN(BASE_IDX + 18, hal,HAL_EEPROM_Has_Pending_Erase, bool(void))
DYNALIB_FN(BASE_IDX + 19, hal,HAL_EEPROM_Perform_Pending_Erase, void(void))
DYNALIB_FN(BASE_IDX + 20, hal, HAL_RTC_Time_Is_Valid, uint8_t(void*))
   d8724:	b508      	push	{r3, lr}
   d8726:	4b02      	ldr	r3, [pc, #8]	; (d8730 <HAL_RTC_Time_Is_Valid+0xc>)
   d8728:	681b      	ldr	r3, [r3, #0]
   d872a:	6d9b      	ldr	r3, [r3, #88]	; 0x58
   d872c:	9301      	str	r3, [sp, #4]
   d872e:	bd08      	pop	{r3, pc}
   d8730:	00030218 	.word	0x00030218

000d8734 <os_thread_is_current>:
DYNALIB_BEGIN(hal_concurrent)

#if PLATFORM_THREADING
DYNALIB_FN(0, hal_concurrent, __gthread_equal, bool(__gthread_t, __gthread_t))
DYNALIB_FN(1, hal_concurrent, os_thread_create, os_result_t(os_thread_t*, const char*, os_thread_prio_t, os_thread_fn_t, void*, size_t))
DYNALIB_FN(2, hal_concurrent, os_thread_is_current, bool(os_thread_t))
   d8734:	b508      	push	{r3, lr}
   d8736:	4b02      	ldr	r3, [pc, #8]	; (d8740 <os_thread_is_current+0xc>)
   d8738:	681b      	ldr	r3, [r3, #0]
   d873a:	689b      	ldr	r3, [r3, #8]
   d873c:	9301      	str	r3, [sp, #4]
   d873e:	bd08      	pop	{r3, pc}
   d8740:	00030248 	.word	0x00030248

000d8744 <os_thread_yield>:
DYNALIB_FN(3, hal_concurrent, os_thread_yield, os_result_t(void))
   d8744:	b508      	push	{r3, lr}
   d8746:	4b02      	ldr	r3, [pc, #8]	; (d8750 <os_thread_yield+0xc>)
   d8748:	681b      	ldr	r3, [r3, #0]
   d874a:	68db      	ldr	r3, [r3, #12]
   d874c:	9301      	str	r3, [sp, #4]
   d874e:	bd08      	pop	{r3, pc}
   d8750:	00030248 	.word	0x00030248

000d8754 <os_thread_join>:
DYNALIB_FN(4, hal_concurrent, os_thread_join, os_result_t(os_thread_t))
   d8754:	b508      	push	{r3, lr}
   d8756:	4b02      	ldr	r3, [pc, #8]	; (d8760 <os_thread_join+0xc>)
   d8758:	681b      	ldr	r3, [r3, #0]
   d875a:	691b      	ldr	r3, [r3, #16]
   d875c:	9301      	str	r3, [sp, #4]
   d875e:	bd08      	pop	{r3, pc}
   d8760:	00030248 	.word	0x00030248

000d8764 <os_thread_cleanup>:
DYNALIB_FN(5, hal_concurrent, os_thread_cleanup, os_result_t(os_thread_t))
   d8764:	b508      	push	{r3, lr}
   d8766:	4b02      	ldr	r3, [pc, #8]	; (d8770 <os_thread_cleanup+0xc>)
   d8768:	681b      	ldr	r3, [r3, #0]
   d876a:	695b      	ldr	r3, [r3, #20]
   d876c:	9301      	str	r3, [sp, #4]
   d876e:	bd08      	pop	{r3, pc}
   d8770:	00030248 	.word	0x00030248

000d8774 <os_thread_scheduling>:
DYNALIB_FN(6, hal_concurrent, os_thread_delay_until, os_result_t(system_tick_t*, system_tick_t))
DYNALIB_FN(7, hal_concurrent, os_thread_scheduling, void(bool, void*))
   d8774:	b508      	push	{r3, lr}
   d8776:	4b02      	ldr	r3, [pc, #8]	; (d8780 <os_thread_scheduling+0xc>)
   d8778:	681b      	ldr	r3, [r3, #0]
   d877a:	69db      	ldr	r3, [r3, #28]
   d877c:	9301      	str	r3, [sp, #4]
   d877e:	bd08      	pop	{r3, pc}
   d8780:	00030248 	.word	0x00030248

000d8784 <os_timer_create>:

DYNALIB_FN(8, hal_concurrent, os_timer_create, int(os_timer_t*, unsigned, void(*)(os_timer_t), void*, bool, void*))
   d8784:	b508      	push	{r3, lr}
   d8786:	4b02      	ldr	r3, [pc, #8]	; (d8790 <os_timer_create+0xc>)
   d8788:	681b      	ldr	r3, [r3, #0]
   d878a:	6a1b      	ldr	r3, [r3, #32]
   d878c:	9301      	str	r3, [sp, #4]
   d878e:	bd08      	pop	{r3, pc}
   d8790:	00030248 	.word	0x00030248

000d8794 <os_timer_destroy>:
DYNALIB_FN(9, hal_concurrent, os_timer_destroy, int(os_timer_t, void*))
   d8794:	b508      	push	{r3, lr}
   d8796:	4b02      	ldr	r3, [pc, #8]	; (d87a0 <os_timer_destroy+0xc>)
   d8798:	681b      	ldr	r3, [r3, #0]
   d879a:	6a5b      	ldr	r3, [r3, #36]	; 0x24
   d879c:	9301      	str	r3, [sp, #4]
   d879e:	bd08      	pop	{r3, pc}
   d87a0:	00030248 	.word	0x00030248

000d87a4 <os_timer_get_id>:
DYNALIB_FN(10, hal_concurrent, os_timer_get_id, int(os_timer_t, void**))
   d87a4:	b508      	push	{r3, lr}
   d87a6:	4b02      	ldr	r3, [pc, #8]	; (d87b0 <os_timer_get_id+0xc>)
   d87a8:	681b      	ldr	r3, [r3, #0]
   d87aa:	6a9b      	ldr	r3, [r3, #40]	; 0x28
   d87ac:	9301      	str	r3, [sp, #4]
   d87ae:	bd08      	pop	{r3, pc}
   d87b0:	00030248 	.word	0x00030248

000d87b4 <os_timer_change>:
DYNALIB_FN(11, hal_concurrent, os_timer_change, int(os_timer_t, os_timer_change_t, bool, unsigned, unsigned, void*))
   d87b4:	b508      	push	{r3, lr}
   d87b6:	4b02      	ldr	r3, [pc, #8]	; (d87c0 <os_timer_change+0xc>)
   d87b8:	681b      	ldr	r3, [r3, #0]
   d87ba:	6adb      	ldr	r3, [r3, #44]	; 0x2c
   d87bc:	9301      	str	r3, [sp, #4]
   d87be:	bd08      	pop	{r3, pc}
   d87c0:	00030248 	.word	0x00030248

000d87c4 <os_mutex_recursive_create>:
DYNALIB_FN(13, hal_concurrent, os_mutex_destroy, int(os_mutex_t))
DYNALIB_FN(14, hal_concurrent, os_mutex_lock, int(os_mutex_t))
DYNALIB_FN(15, hal_concurrent, os_mutex_trylock, int(os_mutex_t))
DYNALIB_FN(16, hal_concurrent, os_mutex_unlock, int(os_mutex_t))

DYNALIB_FN(17, hal_concurrent, os_mutex_recursive_create, int(os_mutex_recursive_t*))
   d87c4:	b508      	push	{r3, lr}
   d87c6:	4b02      	ldr	r3, [pc, #8]	; (d87d0 <os_mutex_recursive_create+0xc>)
   d87c8:	681b      	ldr	r3, [r3, #0]
   d87ca:	6c5b      	ldr	r3, [r3, #68]	; 0x44
   d87cc:	9301      	str	r3, [sp, #4]
   d87ce:	bd08      	pop	{r3, pc}
   d87d0:	00030248 	.word	0x00030248

000d87d4 <os_mutex_recursive_destroy>:
DYNALIB_FN(18, hal_concurrent, os_mutex_recursive_destroy, int(os_mutex_recursive_t))
   d87d4:	b508      	push	{r3, lr}
   d87d6:	4b02      	ldr	r3, [pc, #8]	; (d87e0 <os_mutex_recursive_destroy+0xc>)
   d87d8:	681b      	ldr	r3, [r3, #0]
   d87da:	6c9b      	ldr	r3, [r3, #72]	; 0x48
   d87dc:	9301      	str	r3, [sp, #4]
   d87de:	bd08      	pop	{r3, pc}
   d87e0:	00030248 	.word	0x00030248

000d87e4 <os_timer_set_id>:
DYNALIB_FN(24, hal_concurrent, os_queue_destroy, int(os_queue_t, void*))
DYNALIB_FN(25, hal_concurrent, os_queue_put, int(os_queue_t, const void* item, system_tick_t, void*))
DYNALIB_FN(26, hal_concurrent, os_queue_take, int(os_queue_t, void* item, system_tick_t, void*))
DYNALIB_FN(27, hal_concurrent, os_thread_exit, os_result_t(os_thread_t))

DYNALIB_FN(28, hal_concurrent, os_timer_set_id, int(os_timer_t, void*))
   d87e4:	b508      	push	{r3, lr}
   d87e6:	4b02      	ldr	r3, [pc, #8]	; (d87f0 <os_timer_set_id+0xc>)
   d87e8:	681b      	ldr	r3, [r3, #0]
   d87ea:	6f1b      	ldr	r3, [r3, #112]	; 0x70
   d87ec:	9301      	str	r3, [sp, #4]
   d87ee:	bd08      	pop	{r3, pc}
   d87f0:	00030248 	.word	0x00030248

000d87f4 <inet_inet_ntop>:
DYNALIB_FN(0, hal_inet, inet_inet_addr, in_addr_t(const char*))
DYNALIB_FN(1, hal_inet, inet_inet_aton, int(const char*, struct in_addr*))
DYNALIB_FN(2, hal_inet, inet_inet_network, in_addr_t(const char*))
DYNALIB_FN(3, hal_inet, inet_inet_ntoa, char*(struct in_addr))
DYNALIB_FN(4, hal_inet, inet_inet_ntoa_r, char*(struct in_addr, char*, socklen_t))
DYNALIB_FN(5, hal_inet, inet_inet_ntop, const char*(int, const void*, char*, socklen_t))
   d87f4:	b508      	push	{r3, lr}
   d87f6:	4b02      	ldr	r3, [pc, #8]	; (d8800 <inet_inet_ntop+0xc>)
   d87f8:	681b      	ldr	r3, [r3, #0]
   d87fa:	695b      	ldr	r3, [r3, #20]
   d87fc:	9301      	str	r3, [sp, #4]
   d87fe:	bd08      	pop	{r3, pc}
   d8800:	00030264 	.word	0x00030264

000d8804 <inet_htonl>:
DYNALIB_FN(6, hal_inet, inet_inet_pton, int(int, const char*, void*))
DYNALIB_FN(7, hal_inet, inet_ntohl, uint32_t(uint32_t))
DYNALIB_FN(8, hal_inet, inet_htonl, uint32_t(uint32_t))
   d8804:	b508      	push	{r3, lr}
   d8806:	4b02      	ldr	r3, [pc, #8]	; (d8810 <inet_htonl+0xc>)
   d8808:	681b      	ldr	r3, [r3, #0]
   d880a:	6a1b      	ldr	r3, [r3, #32]
   d880c:	9301      	str	r3, [sp, #4]
   d880e:	bd08      	pop	{r3, pc}
   d8810:	00030264 	.word	0x00030264

000d8814 <inet_htons>:
DYNALIB_FN(9, hal_inet, inet_ntohs, uint16_t(uint16_t))
DYNALIB_FN(10, hal_inet, inet_htons, uint16_t(uint16_t))
   d8814:	b508      	push	{r3, lr}
   d8816:	4b02      	ldr	r3, [pc, #8]	; (d8820 <inet_htons+0xc>)
   d8818:	681b      	ldr	r3, [r3, #0]
   d881a:	6a9b      	ldr	r3, [r3, #40]	; 0x28
   d881c:	9301      	str	r3, [sp, #4]
   d881e:	bd08      	pop	{r3, pc}
   d8820:	00030264 	.word	0x00030264

000d8824 <HAL_USART_Init>:
#define BASE_IDX 6 // Base index for all subsequent functions
#else
#define BASE_IDX 0
#endif

DYNALIB_FN(BASE_IDX + 0, hal_usart, HAL_USART_Init, void(HAL_USART_Serial, Ring_Buffer*, Ring_Buffer*))
   d8824:	b508      	push	{r3, lr}
   d8826:	4b02      	ldr	r3, [pc, #8]	; (d8830 <HAL_USART_Init+0xc>)
   d8828:	681b      	ldr	r3, [r3, #0]
   d882a:	681b      	ldr	r3, [r3, #0]
   d882c:	9301      	str	r3, [sp, #4]
   d882e:	bd08      	pop	{r3, pc}
   d8830:	0003023c 	.word	0x0003023c

000d8834 <HAL_USART_Write_Data>:
DYNALIB_FN(BASE_IDX + 1, hal_usart, HAL_USART_Begin, void(HAL_USART_Serial, uint32_t))
DYNALIB_FN(BASE_IDX + 2, hal_usart, HAL_USART_End, void(HAL_USART_Serial))
DYNALIB_FN(BASE_IDX + 3, hal_usart, HAL_USART_Write_Data, uint32_t(HAL_USART_Serial, uint8_t))
   d8834:	b508      	push	{r3, lr}
   d8836:	4b02      	ldr	r3, [pc, #8]	; (d8840 <HAL_USART_Write_Data+0xc>)
   d8838:	681b      	ldr	r3, [r3, #0]
   d883a:	68db      	ldr	r3, [r3, #12]
   d883c:	9301      	str	r3, [sp, #4]
   d883e:	bd08      	pop	{r3, pc}
   d8840:	0003023c 	.word	0x0003023c

000d8844 <HAL_USART_Available_Data>:
DYNALIB_FN(BASE_IDX + 4, hal_usart, HAL_USART_Available_Data, int32_t(HAL_USART_Serial))
   d8844:	b508      	push	{r3, lr}
   d8846:	4b02      	ldr	r3, [pc, #8]	; (d8850 <HAL_USART_Available_Data+0xc>)
   d8848:	681b      	ldr	r3, [r3, #0]
   d884a:	691b      	ldr	r3, [r3, #16]
   d884c:	9301      	str	r3, [sp, #4]
   d884e:	bd08      	pop	{r3, pc}
   d8850:	0003023c 	.word	0x0003023c

000d8854 <HAL_USART_Read_Data>:
DYNALIB_FN(BASE_IDX + 5, hal_usart, HAL_USART_Read_Data, int32_t(HAL_USART_Serial))
   d8854:	b508      	push	{r3, lr}
   d8856:	4b02      	ldr	r3, [pc, #8]	; (d8860 <HAL_USART_Read_Data+0xc>)
   d8858:	681b      	ldr	r3, [r3, #0]
   d885a:	695b      	ldr	r3, [r3, #20]
   d885c:	9301      	str	r3, [sp, #4]
   d885e:	bd08      	pop	{r3, pc}
   d8860:	0003023c 	.word	0x0003023c

000d8864 <HAL_USART_Peek_Data>:
DYNALIB_FN(BASE_IDX + 6, hal_usart, HAL_USART_Peek_Data, int32_t(HAL_USART_Serial))
   d8864:	b508      	push	{r3, lr}
   d8866:	4b02      	ldr	r3, [pc, #8]	; (d8870 <HAL_USART_Peek_Data+0xc>)
   d8868:	681b      	ldr	r3, [r3, #0]
   d886a:	699b      	ldr	r3, [r3, #24]
   d886c:	9301      	str	r3, [sp, #4]
   d886e:	bd08      	pop	{r3, pc}
   d8870:	0003023c 	.word	0x0003023c

000d8874 <HAL_USART_Flush_Data>:
DYNALIB_FN(BASE_IDX + 7, hal_usart, HAL_USART_Flush_Data, void(HAL_USART_Serial))
   d8874:	b508      	push	{r3, lr}
   d8876:	4b02      	ldr	r3, [pc, #8]	; (d8880 <HAL_USART_Flush_Data+0xc>)
   d8878:	681b      	ldr	r3, [r3, #0]
   d887a:	69db      	ldr	r3, [r3, #28]
   d887c:	9301      	str	r3, [sp, #4]
   d887e:	bd08      	pop	{r3, pc}
   d8880:	0003023c 	.word	0x0003023c

000d8884 <HAL_USART_Is_Enabled>:
DYNALIB_FN(BASE_IDX + 8, hal_usart, HAL_USART_Is_Enabled, bool(HAL_USART_Serial))
   d8884:	b508      	push	{r3, lr}
   d8886:	4b02      	ldr	r3, [pc, #8]	; (d8890 <HAL_USART_Is_Enabled+0xc>)
   d8888:	681b      	ldr	r3, [r3, #0]
   d888a:	6a1b      	ldr	r3, [r3, #32]
   d888c:	9301      	str	r3, [sp, #4]
   d888e:	bd08      	pop	{r3, pc}
   d8890:	0003023c 	.word	0x0003023c

000d8894 <HAL_USART_Available_Data_For_Write>:
DYNALIB_FN(BASE_IDX + 9, hal_usart, HAL_USART_Half_Duplex, void(HAL_USART_Serial, bool))
DYNALIB_FN(BASE_IDX + 10, hal_usart, HAL_USART_Available_Data_For_Write, int32_t(HAL_USART_Serial))
   d8894:	b508      	push	{r3, lr}
   d8896:	4b02      	ldr	r3, [pc, #8]	; (d88a0 <HAL_USART_Available_Data_For_Write+0xc>)
   d8898:	681b      	ldr	r3, [r3, #0]
   d889a:	6a9b      	ldr	r3, [r3, #40]	; 0x28
   d889c:	9301      	str	r3, [sp, #4]
   d889e:	bd08      	pop	{r3, pc}
   d88a0:	0003023c 	.word	0x0003023c

000d88a4 <HAL_I2C_Begin_Transmission>:
DYNALIB_FN(BASE_IDX + 1, hal_i2c, HAL_I2C_Enable_DMA_Mode, void(HAL_I2C_Interface, bool, void*))
DYNALIB_FN(BASE_IDX + 2, hal_i2c, HAL_I2C_Stretch_Clock, void(HAL_I2C_Interface, bool, void*))
DYNALIB_FN(BASE_IDX + 3, hal_i2c, HAL_I2C_Begin, void(HAL_I2C_Interface, I2C_Mode, uint8_t, void*))
DYNALIB_FN(BASE_IDX + 4, hal_i2c, HAL_I2C_End, void(HAL_I2C_Interface, void*))
DYNALIB_FN(BASE_IDX + 5, hal_i2c, HAL_I2C_Request_Data, uint32_t(HAL_I2C_Interface, uint8_t, uint8_t, uint8_t, void*))
DYNALIB_FN(BASE_IDX + 6, hal_i2c, HAL_I2C_Begin_Transmission, void(HAL_I2C_Interface, uint8_t, const HAL_I2C_Transmission_Config*))
   d88a4:	b508      	push	{r3, lr}
   d88a6:	4b02      	ldr	r3, [pc, #8]	; (d88b0 <HAL_I2C_Begin_Transmission+0xc>)
   d88a8:	681b      	ldr	r3, [r3, #0]
   d88aa:	699b      	ldr	r3, [r3, #24]
   d88ac:	9301      	str	r3, [sp, #4]
   d88ae:	bd08      	pop	{r3, pc}
   d88b0:	00030228 	.word	0x00030228

000d88b4 <HAL_I2C_End_Transmission>:
DYNALIB_FN(BASE_IDX + 7, hal_i2c, HAL_I2C_End_Transmission, uint8_t(HAL_I2C_Interface, uint8_t, void*))
   d88b4:	b508      	push	{r3, lr}
   d88b6:	4b02      	ldr	r3, [pc, #8]	; (d88c0 <HAL_I2C_End_Transmission+0xc>)
   d88b8:	681b      	ldr	r3, [r3, #0]
   d88ba:	69db      	ldr	r3, [r3, #28]
   d88bc:	9301      	str	r3, [sp, #4]
   d88be:	bd08      	pop	{r3, pc}
   d88c0:	00030228 	.word	0x00030228

000d88c4 <HAL_I2C_Write_Data>:
DYNALIB_FN(BASE_IDX + 8, hal_i2c, HAL_I2C_Write_Data, uint32_t(HAL_I2C_Interface, uint8_t, void*))
   d88c4:	b508      	push	{r3, lr}
   d88c6:	4b02      	ldr	r3, [pc, #8]	; (d88d0 <HAL_I2C_Write_Data+0xc>)
   d88c8:	681b      	ldr	r3, [r3, #0]
   d88ca:	6a1b      	ldr	r3, [r3, #32]
   d88cc:	9301      	str	r3, [sp, #4]
   d88ce:	bd08      	pop	{r3, pc}
   d88d0:	00030228 	.word	0x00030228

000d88d4 <HAL_I2C_Available_Data>:
DYNALIB_FN(BASE_IDX + 9, hal_i2c, HAL_I2C_Available_Data, int32_t(HAL_I2C_Interface, void*))
   d88d4:	b508      	push	{r3, lr}
   d88d6:	4b02      	ldr	r3, [pc, #8]	; (d88e0 <HAL_I2C_Available_Data+0xc>)
   d88d8:	681b      	ldr	r3, [r3, #0]
   d88da:	6a5b      	ldr	r3, [r3, #36]	; 0x24
   d88dc:	9301      	str	r3, [sp, #4]
   d88de:	bd08      	pop	{r3, pc}
   d88e0:	00030228 	.word	0x00030228

000d88e4 <HAL_I2C_Read_Data>:
DYNALIB_FN(BASE_IDX + 10, hal_i2c, HAL_I2C_Read_Data, int32_t(HAL_I2C_Interface, void*))
   d88e4:	b508      	push	{r3, lr}
   d88e6:	4b02      	ldr	r3, [pc, #8]	; (d88f0 <HAL_I2C_Read_Data+0xc>)
   d88e8:	681b      	ldr	r3, [r3, #0]
   d88ea:	6a9b      	ldr	r3, [r3, #40]	; 0x28
   d88ec:	9301      	str	r3, [sp, #4]
   d88ee:	bd08      	pop	{r3, pc}
   d88f0:	00030228 	.word	0x00030228

000d88f4 <HAL_I2C_Peek_Data>:
DYNALIB_FN(BASE_IDX + 11, hal_i2c, HAL_I2C_Peek_Data, int32_t(HAL_I2C_Interface, void*))
   d88f4:	b508      	push	{r3, lr}
   d88f6:	4b02      	ldr	r3, [pc, #8]	; (d8900 <HAL_I2C_Peek_Data+0xc>)
   d88f8:	681b      	ldr	r3, [r3, #0]
   d88fa:	6adb      	ldr	r3, [r3, #44]	; 0x2c
   d88fc:	9301      	str	r3, [sp, #4]
   d88fe:	bd08      	pop	{r3, pc}
   d8900:	00030228 	.word	0x00030228

000d8904 <HAL_I2C_Flush_Data>:
DYNALIB_FN(BASE_IDX + 12, hal_i2c, HAL_I2C_Flush_Data, void(HAL_I2C_Interface, void*))
   d8904:	b508      	push	{r3, lr}
   d8906:	4b02      	ldr	r3, [pc, #8]	; (d8910 <HAL_I2C_Flush_Data+0xc>)
   d8908:	681b      	ldr	r3, [r3, #0]
   d890a:	6b1b      	ldr	r3, [r3, #48]	; 0x30
   d890c:	9301      	str	r3, [sp, #4]
   d890e:	bd08      	pop	{r3, pc}
   d8910:	00030228 	.word	0x00030228

000d8914 <HAL_I2C_Is_Enabled>:
DYNALIB_FN(BASE_IDX + 13, hal_i2c, HAL_I2C_Is_Enabled, bool(HAL_I2C_Interface, void*))
   d8914:	b508      	push	{r3, lr}
   d8916:	4b02      	ldr	r3, [pc, #8]	; (d8920 <HAL_I2C_Is_Enabled+0xc>)
   d8918:	681b      	ldr	r3, [r3, #0]
   d891a:	6b5b      	ldr	r3, [r3, #52]	; 0x34
   d891c:	9301      	str	r3, [sp, #4]
   d891e:	bd08      	pop	{r3, pc}
   d8920:	00030228 	.word	0x00030228

000d8924 <HAL_I2C_Init>:
DYNALIB_FN(BASE_IDX + 14, hal_i2c, HAL_I2C_Set_Callback_On_Receive, void(HAL_I2C_Interface, void(*)(int), void*))
DYNALIB_FN(BASE_IDX + 15, hal_i2c, HAL_I2C_Set_Callback_On_Request, void(HAL_I2C_Interface, void(*)(void), void*))
DYNALIB_FN(BASE_IDX + 16, hal_i2c, HAL_I2C_Init, int(HAL_I2C_Interface, const HAL_I2C_Config*))
   d8924:	b508      	push	{r3, lr}
   d8926:	4b02      	ldr	r3, [pc, #8]	; (d8930 <HAL_I2C_Init+0xc>)
   d8928:	681b      	ldr	r3, [r3, #0]
   d892a:	6c1b      	ldr	r3, [r3, #64]	; 0x40
   d892c:	9301      	str	r3, [sp, #4]
   d892e:	bd08      	pop	{r3, pc}
   d8930:	00030228 	.word	0x00030228

000d8934 <HAL_I2C_Acquire>:
DYNALIB_FN(BASE_IDX + 17, hal_i2c, HAL_I2C_Reset, uint8_t(HAL_I2C_Interface, uint32_t, void*))
DYNALIB_FN(BASE_IDX + 18, hal_i2c, HAL_I2C_Acquire, int32_t(HAL_I2C_Interface, void*))
   d8934:	b508      	push	{r3, lr}
   d8936:	4b02      	ldr	r3, [pc, #8]	; (d8940 <HAL_I2C_Acquire+0xc>)
   d8938:	681b      	ldr	r3, [r3, #0]
   d893a:	6c9b      	ldr	r3, [r3, #72]	; 0x48
   d893c:	9301      	str	r3, [sp, #4]
   d893e:	bd08      	pop	{r3, pc}
   d8940:	00030228 	.word	0x00030228

000d8944 <HAL_I2C_Release>:
DYNALIB_FN(BASE_IDX + 19, hal_i2c, HAL_I2C_Release, int32_t(HAL_I2C_Interface, void*))
   d8944:	b508      	push	{r3, lr}
   d8946:	4b02      	ldr	r3, [pc, #8]	; (d8950 <HAL_I2C_Release+0xc>)
   d8948:	681b      	ldr	r3, [r3, #0]
   d894a:	6cdb      	ldr	r3, [r3, #76]	; 0x4c
   d894c:	9301      	str	r3, [sp, #4]
   d894e:	bd08      	pop	{r3, pc}
   d8950:	00030228 	.word	0x00030228

000d8954 <HAL_I2C_Request_Data_Ex>:
DYNALIB_FN(BASE_IDX + 20, hal_i2c, HAL_I2C_Request_Data_Ex, int32_t(HAL_I2C_Interface, const HAL_I2C_Transmission_Config*, void*))
   d8954:	b508      	push	{r3, lr}
   d8956:	4b02      	ldr	r3, [pc, #8]	; (d8960 <HAL_I2C_Request_Data_Ex+0xc>)
   d8958:	681b      	ldr	r3, [r3, #0]
   d895a:	6d1b      	ldr	r3, [r3, #80]	; 0x50
   d895c:	9301      	str	r3, [sp, #4]
   d895e:	bd08      	pop	{r3, pc}
   d8960:	00030228 	.word	0x00030228

000d8964 <sock_setsockopt>:
DYNALIB_FN(1, hal_socket, sock_bind, int(int, const struct sockaddr*, socklen_t))
DYNALIB_FN(2, hal_socket, sock_shutdown, int(int, int))
DYNALIB_FN(3, hal_socket, sock_getpeername, int(int, struct sockaddr*, socklen_t*))
DYNALIB_FN(4, hal_socket, sock_getsockname, int(int, struct sockaddr*, socklen_t*))
DYNALIB_FN(5, hal_socket, sock_getsockopt, int(int, int, int, void*, socklen_t*))
DYNALIB_FN(6, hal_socket, sock_setsockopt, int(int, int, int, const void*, socklen_t))
   d8964:	b508      	push	{r3, lr}
   d8966:	4b02      	ldr	r3, [pc, #8]	; (d8970 <sock_setsockopt+0xc>)
   d8968:	681b      	ldr	r3, [r3, #0]
   d896a:	699b      	ldr	r3, [r3, #24]
   d896c:	9301      	str	r3, [sp, #4]
   d896e:	bd08      	pop	{r3, pc}
   d8970:	00030238 	.word	0x00030238

000d8974 <sock_close>:
DYNALIB_FN(7, hal_socket, sock_close, int(int))
   d8974:	b508      	push	{r3, lr}
   d8976:	4b02      	ldr	r3, [pc, #8]	; (d8980 <sock_close+0xc>)
   d8978:	681b      	ldr	r3, [r3, #0]
   d897a:	69db      	ldr	r3, [r3, #28]
   d897c:	9301      	str	r3, [sp, #4]
   d897e:	bd08      	pop	{r3, pc}
   d8980:	00030238 	.word	0x00030238

000d8984 <sock_connect>:
DYNALIB_FN(8, hal_socket, sock_connect, int(int, const struct sockaddr*, socklen_t))
   d8984:	b508      	push	{r3, lr}
   d8986:	4b02      	ldr	r3, [pc, #8]	; (d8990 <sock_connect+0xc>)
   d8988:	681b      	ldr	r3, [r3, #0]
   d898a:	6a1b      	ldr	r3, [r3, #32]
   d898c:	9301      	str	r3, [sp, #4]
   d898e:	bd08      	pop	{r3, pc}
   d8990:	00030238 	.word	0x00030238

000d8994 <sock_recv>:
DYNALIB_FN(9, hal_socket, sock_listen, int(int, int))
DYNALIB_FN(10, hal_socket, sock_recv, int(int, void*, size_t, int))
   d8994:	b508      	push	{r3, lr}
   d8996:	4b02      	ldr	r3, [pc, #8]	; (d89a0 <sock_recv+0xc>)
   d8998:	681b      	ldr	r3, [r3, #0]
   d899a:	6a9b      	ldr	r3, [r3, #40]	; 0x28
   d899c:	9301      	str	r3, [sp, #4]
   d899e:	bd08      	pop	{r3, pc}
   d89a0:	00030238 	.word	0x00030238

000d89a4 <sock_send>:
DYNALIB_FN(11, hal_socket, sock_recvfrom, int(int, void*, size_t, int, struct sockaddr*, socklen_t*))
DYNALIB_FN(12, hal_socket, sock_send, int(int, const void*, size_t, int))
   d89a4:	b508      	push	{r3, lr}
   d89a6:	4b02      	ldr	r3, [pc, #8]	; (d89b0 <sock_send+0xc>)
   d89a8:	681b      	ldr	r3, [r3, #0]
   d89aa:	6b1b      	ldr	r3, [r3, #48]	; 0x30
   d89ac:	9301      	str	r3, [sp, #4]
   d89ae:	bd08      	pop	{r3, pc}
   d89b0:	00030238 	.word	0x00030238

000d89b4 <sock_socket>:
DYNALIB_FN(13, hal_socket, sock_sendto, int(int, const void*, size_t, int, const struct sockaddr*, socklen_t))
DYNALIB_FN(14, hal_socket, sock_socket, int(int, int, int))
   d89b4:	b508      	push	{r3, lr}
   d89b6:	4b02      	ldr	r3, [pc, #8]	; (d89c0 <sock_socket+0xc>)
   d89b8:	681b      	ldr	r3, [r3, #0]
   d89ba:	6b9b      	ldr	r3, [r3, #56]	; 0x38
   d89bc:	9301      	str	r3, [sp, #4]
   d89be:	bd08      	pop	{r3, pc}
   d89c0:	00030238 	.word	0x00030238

000d89c4 <HAL_USB_USART_Init>:
#endif

DYNALIB_BEGIN(hal_usb)

#ifdef USB_CDC_ENABLE
DYNALIB_FN(0, hal_usb, HAL_USB_USART_Init, void(HAL_USB_USART_Serial, const HAL_USB_USART_Config*))
   d89c4:	b508      	push	{r3, lr}
   d89c6:	4b02      	ldr	r3, [pc, #8]	; (d89d0 <HAL_USB_USART_Init+0xc>)
   d89c8:	681b      	ldr	r3, [r3, #0]
   d89ca:	681b      	ldr	r3, [r3, #0]
   d89cc:	9301      	str	r3, [sp, #4]
   d89ce:	bd08      	pop	{r3, pc}
   d89d0:	0003024c 	.word	0x0003024c

000d89d4 <HAL_USB_USART_Begin>:
DYNALIB_FN(1, hal_usb, HAL_USB_USART_Begin, void(HAL_USB_USART_Serial, uint32_t, void *))
   d89d4:	b508      	push	{r3, lr}
   d89d6:	4b02      	ldr	r3, [pc, #8]	; (d89e0 <HAL_USB_USART_Begin+0xc>)
   d89d8:	681b      	ldr	r3, [r3, #0]
   d89da:	685b      	ldr	r3, [r3, #4]
   d89dc:	9301      	str	r3, [sp, #4]
   d89de:	bd08      	pop	{r3, pc}
   d89e0:	0003024c 	.word	0x0003024c

000d89e4 <HAL_USB_USART_Available_Data>:
DYNALIB_FN(2, hal_usb, HAL_USB_USART_End, void(HAL_USB_USART_Serial))
DYNALIB_FN(3, hal_usb, HAL_USB_USART_Baud_Rate, unsigned int(HAL_USB_USART_Serial))
DYNALIB_FN(4, hal_usb, HAL_USB_USART_Available_Data, int32_t(HAL_USB_USART_Serial))
   d89e4:	b508      	push	{r3, lr}
   d89e6:	4b02      	ldr	r3, [pc, #8]	; (d89f0 <HAL_USB_USART_Available_Data+0xc>)
   d89e8:	681b      	ldr	r3, [r3, #0]
   d89ea:	691b      	ldr	r3, [r3, #16]
   d89ec:	9301      	str	r3, [sp, #4]
   d89ee:	bd08      	pop	{r3, pc}
   d89f0:	0003024c 	.word	0x0003024c

000d89f4 <HAL_USB_USART_Available_Data_For_Write>:
DYNALIB_FN(5, hal_usb, HAL_USB_USART_Available_Data_For_Write, int32_t(HAL_USB_USART_Serial))
   d89f4:	b508      	push	{r3, lr}
   d89f6:	4b02      	ldr	r3, [pc, #8]	; (d8a00 <HAL_USB_USART_Available_Data_For_Write+0xc>)
   d89f8:	681b      	ldr	r3, [r3, #0]
   d89fa:	695b      	ldr	r3, [r3, #20]
   d89fc:	9301      	str	r3, [sp, #4]
   d89fe:	bd08      	pop	{r3, pc}
   d8a00:	0003024c 	.word	0x0003024c

000d8a04 <HAL_USB_USART_Receive_Data>:
DYNALIB_FN(6, hal_usb, HAL_USB_USART_Receive_Data, int32_t(HAL_USB_USART_Serial, uint8_t))
   d8a04:	b508      	push	{r3, lr}
   d8a06:	4b02      	ldr	r3, [pc, #8]	; (d8a10 <HAL_USB_USART_Receive_Data+0xc>)
   d8a08:	681b      	ldr	r3, [r3, #0]
   d8a0a:	699b      	ldr	r3, [r3, #24]
   d8a0c:	9301      	str	r3, [sp, #4]
   d8a0e:	bd08      	pop	{r3, pc}
   d8a10:	0003024c 	.word	0x0003024c

000d8a14 <HAL_USB_USART_Send_Data>:
DYNALIB_FN(7, hal_usb, HAL_USB_USART_Send_Data, int32_t(HAL_USB_USART_Serial, uint8_t))
   d8a14:	b508      	push	{r3, lr}
   d8a16:	4b02      	ldr	r3, [pc, #8]	; (d8a20 <HAL_USB_USART_Send_Data+0xc>)
   d8a18:	681b      	ldr	r3, [r3, #0]
   d8a1a:	69db      	ldr	r3, [r3, #28]
   d8a1c:	9301      	str	r3, [sp, #4]
   d8a1e:	bd08      	pop	{r3, pc}
   d8a20:	0003024c 	.word	0x0003024c

000d8a24 <HAL_USB_USART_Flush_Data>:
DYNALIB_FN(8, hal_usb, HAL_USB_USART_Flush_Data, void(HAL_USB_USART_Serial))
   d8a24:	b508      	push	{r3, lr}
   d8a26:	4b02      	ldr	r3, [pc, #8]	; (d8a30 <HAL_USB_USART_Flush_Data+0xc>)
   d8a28:	681b      	ldr	r3, [r3, #0]
   d8a2a:	6a1b      	ldr	r3, [r3, #32]
   d8a2c:	9301      	str	r3, [sp, #4]
   d8a2e:	bd08      	pop	{r3, pc}
   d8a30:	0003024c 	.word	0x0003024c

000d8a34 <log_message>:
DYNALIB_FN(16, services, log_print_, void(int, int, const char*, const char*, const char*, ...)) // Deprecated
DYNALIB_FN(17, services, LED_RGB_SetChangeHandler, void(led_update_handler_fn, void*))
DYNALIB_FN(18, services, log_print_direct_, void(int, void*, const char*, ...)) // Deprecated
DYNALIB_FN(19, services, LED_GetColor, uint32_t(uint32_t, void*))

DYNALIB_FN(20, services, log_message, void(int, const char*, LogAttributes*, void*, const char*, ...))
   d8a34:	b508      	push	{r3, lr}
   d8a36:	4b02      	ldr	r3, [pc, #8]	; (d8a40 <log_message+0xc>)
   d8a38:	681b      	ldr	r3, [r3, #0]
   d8a3a:	6d1b      	ldr	r3, [r3, #80]	; 0x50
   d8a3c:	9301      	str	r3, [sp, #4]
   d8a3e:	bd08      	pop	{r3, pc}
   d8a40:	00030260 	.word	0x00030260

000d8a44 <system_mode>:
#include "system_power.h"
#endif

DYNALIB_BEGIN(system)

DYNALIB_FN(0, system, system_mode, System_Mode_TypeDef(void))
   d8a44:	b508      	push	{r3, lr}
   d8a46:	4b02      	ldr	r3, [pc, #8]	; (d8a50 <system_mode+0xc>)
   d8a48:	681b      	ldr	r3, [r3, #0]
   d8a4a:	681b      	ldr	r3, [r3, #0]
   d8a4c:	9301      	str	r3, [sp, #4]
   d8a4e:	bd08      	pop	{r3, pc}
   d8a50:	00030220 	.word	0x00030220

000d8a54 <set_system_mode>:
DYNALIB_FN(1, system, set_system_mode, void(System_Mode_TypeDef))
   d8a54:	b508      	push	{r3, lr}
   d8a56:	4b02      	ldr	r3, [pc, #8]	; (d8a60 <set_system_mode+0xc>)
   d8a58:	681b      	ldr	r3, [r3, #0]
   d8a5a:	685b      	ldr	r3, [r3, #4]
   d8a5c:	9301      	str	r3, [sp, #4]
   d8a5e:	bd08      	pop	{r3, pc}
   d8a60:	00030220 	.word	0x00030220

000d8a64 <system_delay_ms>:

DYNALIB_FN(2, system, set_ymodem_serial_flash_update_handler, void(ymodem_serial_flash_update_handler))
DYNALIB_FN(3, system, system_firmwareUpdate, bool(Stream*, void*))
DYNALIB_FN(4, system, system_fileTransfer, bool(system_file_transfer_t*, void*))

DYNALIB_FN(5, system, system_delay_ms, void(unsigned long, bool))
   d8a64:	b508      	push	{r3, lr}
   d8a66:	4b02      	ldr	r3, [pc, #8]	; (d8a70 <system_delay_ms+0xc>)
   d8a68:	681b      	ldr	r3, [r3, #0]
   d8a6a:	695b      	ldr	r3, [r3, #20]
   d8a6c:	9301      	str	r3, [sp, #4]
   d8a6e:	bd08      	pop	{r3, pc}
   d8a70:	00030220 	.word	0x00030220

000d8a74 <system_thread_set_state>:
DYNALIB_FN(6, system, system_sleep, int(Spark_Sleep_TypeDef, long, uint32_t, void*))
DYNALIB_FN(7, system, system_sleep_pin, int(uint16_t, uint16_t, long, uint32_t, void*))
DYNALIB_FN(8, system, system_subscribe_event, int(system_event_t, system_event_handler_t*, void*))
DYNALIB_FN(9, system, system_unsubscribe_event, void(system_event_t, system_event_handler_t*, void*))
DYNALIB_FN(10, system, system_button_pushed_duration, uint16_t(uint8_t, void*))
DYNALIB_FN(11, system, system_thread_set_state, void(spark::feature::State, void*))
   d8a74:	b508      	push	{r3, lr}
   d8a76:	4b02      	ldr	r3, [pc, #8]	; (d8a80 <system_thread_set_state+0xc>)
   d8a78:	681b      	ldr	r3, [r3, #0]
   d8a7a:	6adb      	ldr	r3, [r3, #44]	; 0x2c
   d8a7c:	9301      	str	r3, [sp, #4]
   d8a7e:	bd08      	pop	{r3, pc}
   d8a80:	00030220 	.word	0x00030220

000d8a84 <system_thread_get_state>:
DYNALIB_FN(18, system, Spark_Finish_Firmware_Update, int(FileTransfer::Descriptor&, uint32_t, void*))

DYNALIB_FN(19, system, application_thread_current, uint8_t(void*))
DYNALIB_FN(20, system, system_thread_current, uint8_t(void*))
DYNALIB_FN(21, system, application_thread_invoke, uint8_t(void(*)(void*), void*, void*))
DYNALIB_FN(22, system, system_thread_get_state, spark::feature::State(void*))
   d8a84:	b508      	push	{r3, lr}
   d8a86:	4b02      	ldr	r3, [pc, #8]	; (d8a90 <system_thread_get_state+0xc>)
   d8a88:	681b      	ldr	r3, [r3, #0]
   d8a8a:	6d9b      	ldr	r3, [r3, #88]	; 0x58
   d8a8c:	9301      	str	r3, [sp, #4]
   d8a8e:	bd08      	pop	{r3, pc}
   d8a90:	00030220 	.word	0x00030220

000d8a94 <system_ctrl_set_app_request_handler>:
DYNALIB_FN(BASE_IDX + 6, system, led_pattern_period, uint16_t(int, int, void*))
DYNALIB_FN(BASE_IDX + 7, system, system_set_tester_handlers, int(system_tester_handlers_t*, void*))
DYNALIB_FN(BASE_IDX + 8, system, system_format_diag_data, int(const uint16_t*, size_t, unsigned, appender_fn, void*, void*))

// Control requests
DYNALIB_FN(BASE_IDX + 9, system, system_ctrl_set_app_request_handler, int(ctrl_request_handler_fn, void*))
   d8a94:	b508      	push	{r3, lr}
   d8a96:	4b03      	ldr	r3, [pc, #12]	; (d8aa4 <system_ctrl_set_app_request_handler+0x10>)
   d8a98:	681b      	ldr	r3, [r3, #0]
   d8a9a:	f8d3 3088 	ldr.w	r3, [r3, #136]	; 0x88
   d8a9e:	9301      	str	r3, [sp, #4]
   d8aa0:	bd08      	pop	{r3, pc}
   d8aa2:	0000      	.short	0x0000
   d8aa4:	00030220 	.word	0x00030220

000d8aa8 <system_ctrl_set_result>:
DYNALIB_FN(BASE_IDX + 10, system, system_ctrl_alloc_reply_data, int(ctrl_request*, size_t, void*))
DYNALIB_FN(BASE_IDX + 11, system, system_ctrl_free_request_data, void(ctrl_request*, void*))
DYNALIB_FN(BASE_IDX + 12, system, system_ctrl_set_result, void(ctrl_request*, int, ctrl_completion_handler_fn, void*, void*))
   d8aa8:	b508      	push	{r3, lr}
   d8aaa:	4b03      	ldr	r3, [pc, #12]	; (d8ab8 <system_ctrl_set_result+0x10>)
   d8aac:	681b      	ldr	r3, [r3, #0]
   d8aae:	f8d3 3094 	ldr.w	r3, [r3, #148]	; 0x94
   d8ab2:	9301      	str	r3, [sp, #4]
   d8ab4:	bd08      	pop	{r3, pc}
   d8ab6:	0000      	.short	0x0000
   d8ab8:	00030220 	.word	0x00030220

000d8abc <network_connect>:
#endif

DYNALIB_BEGIN(system_net)

DYNALIB_FN(0, system_net, network_config, const void*(network_handle_t, uint32_t, void*))
DYNALIB_FN(1, system_net, network_connect, void(network_handle_t, uint32_t, uint32_t, void*))
   d8abc:	b508      	push	{r3, lr}
   d8abe:	4b02      	ldr	r3, [pc, #8]	; (d8ac8 <network_connect+0xc>)
   d8ac0:	681b      	ldr	r3, [r3, #0]
   d8ac2:	685b      	ldr	r3, [r3, #4]
   d8ac4:	9301      	str	r3, [sp, #4]
   d8ac6:	bd08      	pop	{r3, pc}
   d8ac8:	00030240 	.word	0x00030240

000d8acc <network_connecting>:
DYNALIB_FN(2, system_net, network_connecting, bool(network_handle_t, uint32_t, void*))
   d8acc:	b508      	push	{r3, lr}
   d8ace:	4b02      	ldr	r3, [pc, #8]	; (d8ad8 <network_connecting+0xc>)
   d8ad0:	681b      	ldr	r3, [r3, #0]
   d8ad2:	689b      	ldr	r3, [r3, #8]
   d8ad4:	9301      	str	r3, [sp, #4]
   d8ad6:	bd08      	pop	{r3, pc}
   d8ad8:	00030240 	.word	0x00030240

000d8adc <network_disconnect>:
DYNALIB_FN(3, system_net, network_disconnect, void(network_handle_t, uint32_t, void*))
   d8adc:	b508      	push	{r3, lr}
   d8ade:	4b02      	ldr	r3, [pc, #8]	; (d8ae8 <network_disconnect+0xc>)
   d8ae0:	681b      	ldr	r3, [r3, #0]
   d8ae2:	68db      	ldr	r3, [r3, #12]
   d8ae4:	9301      	str	r3, [sp, #4]
   d8ae6:	bd08      	pop	{r3, pc}
   d8ae8:	00030240 	.word	0x00030240

000d8aec <network_ready>:
DYNALIB_FN(4, system_net, network_ready, bool(network_handle_t, uint32_t, void*))
   d8aec:	b508      	push	{r3, lr}
   d8aee:	4b02      	ldr	r3, [pc, #8]	; (d8af8 <network_ready+0xc>)
   d8af0:	681b      	ldr	r3, [r3, #0]
   d8af2:	691b      	ldr	r3, [r3, #16]
   d8af4:	9301      	str	r3, [sp, #4]
   d8af6:	bd08      	pop	{r3, pc}
   d8af8:	00030240 	.word	0x00030240

000d8afc <network_on>:
DYNALIB_FN(5, system_net, network_on, void(network_handle_t, uint32_t, uint32_t, void*))
   d8afc:	b508      	push	{r3, lr}
   d8afe:	4b02      	ldr	r3, [pc, #8]	; (d8b08 <network_on+0xc>)
   d8b00:	681b      	ldr	r3, [r3, #0]
   d8b02:	695b      	ldr	r3, [r3, #20]
   d8b04:	9301      	str	r3, [sp, #4]
   d8b06:	bd08      	pop	{r3, pc}
   d8b08:	00030240 	.word	0x00030240

000d8b0c <network_off>:
DYNALIB_FN(6, system_net, network_off, void(network_handle_t, uint32_t, uint32_t, void*))
   d8b0c:	b508      	push	{r3, lr}
   d8b0e:	4b02      	ldr	r3, [pc, #8]	; (d8b18 <network_off+0xc>)
   d8b10:	681b      	ldr	r3, [r3, #0]
   d8b12:	699b      	ldr	r3, [r3, #24]
   d8b14:	9301      	str	r3, [sp, #4]
   d8b16:	bd08      	pop	{r3, pc}
   d8b18:	00030240 	.word	0x00030240

000d8b1c <network_listen>:
DYNALIB_FN(7, system_net, network_listen, void(network_handle_t, uint32_t, void*))
   d8b1c:	b508      	push	{r3, lr}
   d8b1e:	4b02      	ldr	r3, [pc, #8]	; (d8b28 <network_listen+0xc>)
   d8b20:	681b      	ldr	r3, [r3, #0]
   d8b22:	69db      	ldr	r3, [r3, #28]
   d8b24:	9301      	str	r3, [sp, #4]
   d8b26:	bd08      	pop	{r3, pc}
   d8b28:	00030240 	.word	0x00030240

000d8b2c <network_listening>:
DYNALIB_FN(8, system_net, network_listening, bool(network_handle_t, uint32_t, void*))
   d8b2c:	b508      	push	{r3, lr}
   d8b2e:	4b02      	ldr	r3, [pc, #8]	; (d8b38 <network_listening+0xc>)
   d8b30:	681b      	ldr	r3, [r3, #0]
   d8b32:	6a1b      	ldr	r3, [r3, #32]
   d8b34:	9301      	str	r3, [sp, #4]
   d8b36:	bd08      	pop	{r3, pc}
   d8b38:	00030240 	.word	0x00030240

000d8b3c <network_set_listen_timeout>:
DYNALIB_FN(9, system_net, network_has_credentials, bool(network_handle_t, uint32_t, void*))
DYNALIB_FN(10, system_net, network_set_credentials, int(network_handle_t, uint32_t, NetworkCredentials*, void*))
DYNALIB_FN(11, system_net, network_clear_credentials, bool(network_handle_t, uint32_t, NetworkCredentials*, void*))
DYNALIB_FN(12, system_net, network_set_listen_timeout, void(network_handle_t, uint16_t, void*))
   d8b3c:	b508      	push	{r3, lr}
   d8b3e:	4b02      	ldr	r3, [pc, #8]	; (d8b48 <network_set_listen_timeout+0xc>)
   d8b40:	681b      	ldr	r3, [r3, #0]
   d8b42:	6b1b      	ldr	r3, [r3, #48]	; 0x30
   d8b44:	9301      	str	r3, [sp, #4]
   d8b46:	bd08      	pop	{r3, pc}
   d8b48:	00030240 	.word	0x00030240

000d8b4c <network_get_listen_timeout>:
DYNALIB_FN(13, system_net, network_get_listen_timeout, uint16_t(network_handle_t, uint32_t, void*))
   d8b4c:	b508      	push	{r3, lr}
   d8b4e:	4b02      	ldr	r3, [pc, #8]	; (d8b58 <network_get_listen_timeout+0xc>)
   d8b50:	681b      	ldr	r3, [r3, #0]
   d8b52:	6b5b      	ldr	r3, [r3, #52]	; 0x34
   d8b54:	9301      	str	r3, [sp, #4]
   d8b56:	bd08      	pop	{r3, pc}
   d8b58:	00030240 	.word	0x00030240

000d8b5c <spark_process>:

DYNALIB_BEGIN(system_cloud)

DYNALIB_FN(0, system_cloud, spark_variable, bool(const char*, const void*, Spark_Data_TypeDef, spark_variable_t*))
DYNALIB_FN(1, system_cloud, spark_function, bool(const char*, p_user_function_int_str_t, void*))
DYNALIB_FN(2, system_cloud, spark_process, void(void))
   d8b5c:	b508      	push	{r3, lr}
   d8b5e:	4b02      	ldr	r3, [pc, #8]	; (d8b68 <spark_process+0xc>)
   d8b60:	681b      	ldr	r3, [r3, #0]
   d8b62:	689b      	ldr	r3, [r3, #8]
   d8b64:	9301      	str	r3, [sp, #4]
   d8b66:	bd08      	pop	{r3, pc}
   d8b68:	00030244 	.word	0x00030244

000d8b6c <spark_cloud_flag_connected>:
DYNALIB_FN(3, system_cloud, spark_cloud_flag_connect, void(void))
DYNALIB_FN(4, system_cloud, spark_cloud_flag_disconnect, void(void))
DYNALIB_FN(5, system_cloud, spark_cloud_flag_connected, bool(void))
   d8b6c:	b508      	push	{r3, lr}
   d8b6e:	4b02      	ldr	r3, [pc, #8]	; (d8b78 <spark_cloud_flag_connected+0xc>)
   d8b70:	681b      	ldr	r3, [r3, #0]
   d8b72:	695b      	ldr	r3, [r3, #20]
   d8b74:	9301      	str	r3, [sp, #4]
   d8b76:	bd08      	pop	{r3, pc}
   d8b78:	00030244 	.word	0x00030244

000d8b7c <spark_deviceID>:
DYNALIB_FN(6, system_cloud, system_cloud_protocol_instance, ProtocolFacade*(void))
DYNALIB_FN(7, system_cloud, spark_deviceID, String(void))
   d8b7c:	b508      	push	{r3, lr}
   d8b7e:	4b02      	ldr	r3, [pc, #8]	; (d8b88 <spark_deviceID+0xc>)
   d8b80:	681b      	ldr	r3, [r3, #0]
   d8b82:	69db      	ldr	r3, [r3, #28]
   d8b84:	9301      	str	r3, [sp, #4]
   d8b86:	bd08      	pop	{r3, pc}
   d8b88:	00030244 	.word	0x00030244

000d8b8c <spark_sync_time>:
DYNALIB_FN(8, system_cloud, spark_send_event, bool(const char*, const char*, int, uint32_t, void*))
DYNALIB_FN(9, system_cloud, spark_subscribe, bool(const char*, EventHandler, void*, Spark_Subscription_Scope_TypeDef, const char*, void*))
DYNALIB_FN(10, system_cloud, spark_unsubscribe, void(void*))
DYNALIB_FN(11, system_cloud, spark_sync_time, bool(void*))
   d8b8c:	b508      	push	{r3, lr}
   d8b8e:	4b02      	ldr	r3, [pc, #8]	; (d8b98 <spark_sync_time+0xc>)
   d8b90:	681b      	ldr	r3, [r3, #0]
   d8b92:	6adb      	ldr	r3, [r3, #44]	; 0x2c
   d8b94:	9301      	str	r3, [sp, #4]
   d8b96:	bd08      	pop	{r3, pc}
   d8b98:	00030244 	.word	0x00030244

000d8b9c <spark_sync_time_pending>:
DYNALIB_FN(12, system_cloud, spark_sync_time_pending, bool(void*))
   d8b9c:	b508      	push	{r3, lr}
   d8b9e:	4b02      	ldr	r3, [pc, #8]	; (d8ba8 <spark_sync_time_pending+0xc>)
   d8ba0:	681b      	ldr	r3, [r3, #0]
   d8ba2:	6b1b      	ldr	r3, [r3, #48]	; 0x30
   d8ba4:	9301      	str	r3, [sp, #4]
   d8ba6:	bd08      	pop	{r3, pc}
   d8ba8:	00030244 	.word	0x00030244

000d8bac <spark_set_random_seed_from_cloud_handler>:
DYNALIB_FN(13, system_cloud, spark_sync_time_last, system_tick_t(time_t*, void*))
DYNALIB_FN(14, system_cloud, spark_set_connection_property, int(unsigned, unsigned, particle::protocol::connection_properties_t*, void*))
DYNALIB_FN(15, system_cloud, spark_set_random_seed_from_cloud_handler, int(void (*handler)(unsigned int), void*))
   d8bac:	b508      	push	{r3, lr}
   d8bae:	4b02      	ldr	r3, [pc, #8]	; (d8bb8 <spark_set_random_seed_from_cloud_handler+0xc>)
   d8bb0:	681b      	ldr	r3, [r3, #0]
   d8bb2:	6bdb      	ldr	r3, [r3, #60]	; 0x3c
   d8bb4:	9301      	str	r3, [sp, #4]
   d8bb6:	bd08      	pop	{r3, pc}
   d8bb8:	00030244 	.word	0x00030244

000d8bbc <malloc>:
#include <assert.h>
#endif

DYNALIB_BEGIN(rt)

DYNALIB_FN(0, rt, malloc, void*(size_t))
   d8bbc:	b508      	push	{r3, lr}
   d8bbe:	4b02      	ldr	r3, [pc, #8]	; (d8bc8 <malloc+0xc>)
   d8bc0:	681b      	ldr	r3, [r3, #0]
   d8bc2:	681b      	ldr	r3, [r3, #0]
   d8bc4:	9301      	str	r3, [sp, #4]
   d8bc6:	bd08      	pop	{r3, pc}
   d8bc8:	0003021c 	.word	0x0003021c

000d8bcc <free>:
DYNALIB_FN(1, rt, free, void(void*))
   d8bcc:	b508      	push	{r3, lr}
   d8bce:	4b02      	ldr	r3, [pc, #8]	; (d8bd8 <free+0xc>)
   d8bd0:	681b      	ldr	r3, [r3, #0]
   d8bd2:	685b      	ldr	r3, [r3, #4]
   d8bd4:	9301      	str	r3, [sp, #4]
   d8bd6:	bd08      	pop	{r3, pc}
   d8bd8:	0003021c 	.word	0x0003021c

000d8bdc <realloc>:
DYNALIB_FN(2, rt, realloc, void*(void*, size_t))
   d8bdc:	b508      	push	{r3, lr}
   d8bde:	4b02      	ldr	r3, [pc, #8]	; (d8be8 <realloc+0xc>)
   d8be0:	681b      	ldr	r3, [r3, #0]
   d8be2:	689b      	ldr	r3, [r3, #8]
   d8be4:	9301      	str	r3, [sp, #4]
   d8be6:	bd08      	pop	{r3, pc}
   d8be8:	0003021c 	.word	0x0003021c

000d8bec <sprintf>:
DYNALIB_FN(3, rt, sprintf, int(char*, const char*, ...))
   d8bec:	b508      	push	{r3, lr}
   d8bee:	4b02      	ldr	r3, [pc, #8]	; (d8bf8 <sprintf+0xc>)
   d8bf0:	681b      	ldr	r3, [r3, #0]
   d8bf2:	68db      	ldr	r3, [r3, #12]
   d8bf4:	9301      	str	r3, [sp, #4]
   d8bf6:	bd08      	pop	{r3, pc}
   d8bf8:	0003021c 	.word	0x0003021c

000d8bfc <siscanf>:
DYNALIB_FN(4, rt, siprintf, int(char*, const char*, ...))
DYNALIB_FN(5, rt, sscanf, int(const char*, const char*, ...))
DYNALIB_FN(6, rt, siscanf, int(const char*, const char*, ...))
   d8bfc:	b508      	push	{r3, lr}
   d8bfe:	4b02      	ldr	r3, [pc, #8]	; (d8c08 <siscanf+0xc>)
   d8c00:	681b      	ldr	r3, [r3, #0]
   d8c02:	699b      	ldr	r3, [r3, #24]
   d8c04:	9301      	str	r3, [sp, #4]
   d8c06:	bd08      	pop	{r3, pc}
   d8c08:	0003021c 	.word	0x0003021c

000d8c0c <vsnprintf>:
DYNALIB_FN(7, rt, snprintf, int(char*, size_t, const char*, ...))
DYNALIB_FN(8, rt, sniprintf, int(char*, size_t, const char*, ...))
DYNALIB_FN(9, rt, vsnprintf, int(char*, size_t, const char*, va_list))
   d8c0c:	b508      	push	{r3, lr}
   d8c0e:	4b02      	ldr	r3, [pc, #8]	; (d8c18 <vsnprintf+0xc>)
   d8c10:	681b      	ldr	r3, [r3, #0]
   d8c12:	6a5b      	ldr	r3, [r3, #36]	; 0x24
   d8c14:	9301      	str	r3, [sp, #4]
   d8c16:	bd08      	pop	{r3, pc}
   d8c18:	0003021c 	.word	0x0003021c

000d8c1c <_malloc_r>:
DYNALIB_FN(10, rt, vsniprintf, int(char*, size_t, const char*, va_list))
DYNALIB_FN(11, rt, abort, void(void))
DYNALIB_FN(12, rt, _malloc_r, void*(struct _reent*, size_t))
   d8c1c:	b508      	push	{r3, lr}
   d8c1e:	4b02      	ldr	r3, [pc, #8]	; (d8c28 <_malloc_r+0xc>)
   d8c20:	681b      	ldr	r3, [r3, #0]
   d8c22:	6b1b      	ldr	r3, [r3, #48]	; 0x30
   d8c24:	9301      	str	r3, [sp, #4]
   d8c26:	bd08      	pop	{r3, pc}
   d8c28:	0003021c 	.word	0x0003021c

000d8c2c <__errno>:
DYNALIB_FN(13, rt, _free_r, void(struct _reent*, void*))
DYNALIB_FN(14, rt, _realloc_r, void*(struct _reent*, void*, size_t))
DYNALIB_FN(15, rt, __errno, int*())
   d8c2c:	b508      	push	{r3, lr}
   d8c2e:	4b02      	ldr	r3, [pc, #8]	; (d8c38 <__errno+0xc>)
   d8c30:	681b      	ldr	r3, [r3, #0]
   d8c32:	6bdb      	ldr	r3, [r3, #60]	; 0x3c
   d8c34:	9301      	str	r3, [sp, #4]
   d8c36:	bd08      	pop	{r3, pc}
   d8c38:	0003021c 	.word	0x0003021c

000d8c3c <_ZN5spark13EthernetClass9listeningEv>:
    uint16_t getListenTimeout(void) {
        return network_get_listen_timeout(*this, 0, NULL);
    }

    bool listening(void) {
        return network_listening(*this, 0, NULL);
   d8c3c:	2200      	movs	r2, #0
   d8c3e:	4611      	mov	r1, r2
   d8c40:	6840      	ldr	r0, [r0, #4]
   d8c42:	f7ff bf73 	b.w	d8b2c <network_listening>

000d8c46 <_ZN5spark13EthernetClass16getListenTimeoutEv>:
    void setListenTimeout(uint16_t timeout) {
        network_set_listen_timeout(*this, timeout, NULL);
    }

    uint16_t getListenTimeout(void) {
        return network_get_listen_timeout(*this, 0, NULL);
   d8c46:	2200      	movs	r2, #0
   d8c48:	4611      	mov	r1, r2
   d8c4a:	6840      	ldr	r0, [r0, #4]
   d8c4c:	f7ff bf7e 	b.w	d8b4c <network_get_listen_timeout>

000d8c50 <_ZN5spark13EthernetClass16setListenTimeoutEt>:
    void listen(bool begin=true) {
        network_listen(*this, begin ? 0 : 1, NULL);
    }

    void setListenTimeout(uint16_t timeout) {
        network_set_listen_timeout(*this, timeout, NULL);
   d8c50:	2200      	movs	r2, #0
   d8c52:	6840      	ldr	r0, [r0, #4]
   d8c54:	f7ff bf72 	b.w	d8b3c <network_set_listen_timeout>

000d8c58 <_ZN5spark13EthernetClass6listenEb>:
    void disconnect() {
        network_disconnect(*this, NETWORK_DISCONNECT_REASON_USER, NULL);
    }

    void listen(bool begin=true) {
        network_listen(*this, begin ? 0 : 1, NULL);
   d8c58:	2200      	movs	r2, #0
   d8c5a:	f081 0101 	eor.w	r1, r1, #1
   d8c5e:	6840      	ldr	r0, [r0, #4]
   d8c60:	f7ff bf5c 	b.w	d8b1c <network_listen>

000d8c64 <_ZN5spark13EthernetClass3offEv>:
    void on() {
        network_on(*this, 0, 0, NULL);
    }

    void off() {
        network_off(*this, 0, 0, NULL);
   d8c64:	2300      	movs	r3, #0
   d8c66:	461a      	mov	r2, r3
   d8c68:	4619      	mov	r1, r3
   d8c6a:	6840      	ldr	r0, [r0, #4]
   d8c6c:	f7ff bf4e 	b.w	d8b0c <network_off>

000d8c70 <_ZN5spark13EthernetClass2onEv>:
    EthernetClass() :
            NetworkClass(NETWORK_INTERFACE_ETHERNET) {
    }

    void on() {
        network_on(*this, 0, 0, NULL);
   d8c70:	2300      	movs	r3, #0
   d8c72:	461a      	mov	r2, r3
   d8c74:	4619      	mov	r1, r3
   d8c76:	6840      	ldr	r0, [r0, #4]
   d8c78:	f7ff bf40 	b.w	d8afc <network_on>

000d8c7c <_ZN5spark13EthernetClass5readyEv>:
    bool listening(void) {
        return network_listening(*this, 0, NULL);
    }

    bool ready() {
        return network_ready(*this, 0,  NULL);
   d8c7c:	2200      	movs	r2, #0
   d8c7e:	4611      	mov	r1, r2
   d8c80:	6840      	ldr	r0, [r0, #4]
   d8c82:	f7ff bf33 	b.w	d8aec <network_ready>

000d8c86 <_ZN5spark13EthernetClass10connectingEv>:
    void connect(unsigned flags=0) {
        network_connect(*this, flags, 0, NULL);
    }

    bool connecting(void) {
        return network_connecting(*this, 0, NULL);
   d8c86:	2200      	movs	r2, #0
   d8c88:	4611      	mov	r1, r2
   d8c8a:	6840      	ldr	r0, [r0, #4]
   d8c8c:	f7ff bf1e 	b.w	d8acc <network_connecting>

000d8c90 <_ZN5spark13EthernetClass10disconnectEv>:
    }

    void disconnect() {
        network_disconnect(*this, NETWORK_DISCONNECT_REASON_USER, NULL);
   d8c90:	2200      	movs	r2, #0
   d8c92:	2102      	movs	r1, #2
   d8c94:	6840      	ldr	r0, [r0, #4]
   d8c96:	f7ff bf21 	b.w	d8adc <network_disconnect>

000d8c9a <_ZN5spark13EthernetClass7connectEj>:
    void off() {
        network_off(*this, 0, 0, NULL);
    }

    void connect(unsigned flags=0) {
        network_connect(*this, flags, 0, NULL);
   d8c9a:	2300      	movs	r3, #0
   d8c9c:	461a      	mov	r2, r3
   d8c9e:	6840      	ldr	r0, [r0, #4]
   d8ca0:	f7ff bf0c 	b.w	d8abc <network_connect>

000d8ca4 <_GLOBAL__sub_I__ZN5spark8EthernetE>:
    static NetworkClass& from(network_interface_t nif);

    virtual IPAddress resolve(const char* name);

    explicit NetworkClass(network_interface_t iface)
            : iface_(iface) {
   d8ca4:	4b02      	ldr	r3, [pc, #8]	; (d8cb0 <_GLOBAL__sub_I__ZN5spark8EthernetE+0xc>)
   d8ca6:	2203      	movs	r2, #3
   d8ca8:	605a      	str	r2, [r3, #4]
    }

class EthernetClass : public NetworkClass {
public:
    EthernetClass() :
            NetworkClass(NETWORK_INTERFACE_ETHERNET) {
   d8caa:	4a02      	ldr	r2, [pc, #8]	; (d8cb4 <_GLOBAL__sub_I__ZN5spark8EthernetE+0x10>)
   d8cac:	601a      	str	r2, [r3, #0]
   d8cae:	4770      	bx	lr
   d8cb0:	2003e088 	.word	0x2003e088
   d8cb4:	000dbf80 	.word	0x000dbf80

000d8cb8 <_ZN8SPIClass4lockEv.isra.0>:
  }

  int lock()
  {
#if HAL_PLATFORM_SPI_HAL_THREAD_SAFETY
    return HAL_SPI_Acquire(_spi, nullptr);
   d8cb8:	2100      	movs	r1, #0
   d8cba:	f7ff bce3 	b.w	d8684 <HAL_SPI_Acquire>

000d8cbe <_ZN8SPIClass6unlockEv.isra.1>:
  }

  void unlock()
  {
#if HAL_PLATFORM_SPI_HAL_THREAD_SAFETY
    HAL_SPI_Release(_spi, nullptr);
   d8cbe:	2100      	movs	r1, #0
   d8cc0:	f7ff bce8 	b.w	d8694 <HAL_SPI_Release>

000d8cc4 <_ZN8SPIClassC1E17HAL_SPI_Interface>:
    }
    return particle::__SPISettings(info->clock, info->bit_order, info->data_mode);
}
} // namespace

SPIClass::SPIClass(HAL_SPI_Interface spi)
   d8cc4:	b510      	push	{r4, lr}
   d8cc6:	4604      	mov	r4, r0
{
    _spi = spi;
   d8cc8:	7001      	strb	r1, [r0, #0]
    HAL_SPI_Init(_spi);
   d8cca:	4608      	mov	r0, r1
   d8ccc:	f7ff fcaa 	bl	d8624 <HAL_SPI_Init>
    _dividerReference = SPI_CLK_SYSTEM; // 0 indicates the system clock
   d8cd0:	2300      	movs	r3, #0
   d8cd2:	6063      	str	r3, [r4, #4]
}
   d8cd4:	4620      	mov	r0, r4
   d8cd6:	bd10      	pop	{r4, pc}

000d8cd8 <_ZN8SPIClass5beginEv>:

void SPIClass::begin()
{
   d8cd8:	b510      	push	{r4, lr}
   d8cda:	4604      	mov	r4, r0
    // TODO: Fetch default pin from HAL
    if (!lock())
   d8cdc:	7800      	ldrb	r0, [r0, #0]
   d8cde:	f7ff ffeb 	bl	d8cb8 <_ZN8SPIClass4lockEv.isra.0>
   d8ce2:	b948      	cbnz	r0, d8cf8 <_ZN8SPIClass5beginEv+0x20>
    {
        HAL_SPI_Begin(_spi, SPI_DEFAULT_SS);
   d8ce4:	7820      	ldrb	r0, [r4, #0]
   d8ce6:	f64f 71ff 	movw	r1, #65535	; 0xffff
   d8cea:	f7ff fc73 	bl	d85d4 <HAL_SPI_Begin>
        unlock();
   d8cee:	7820      	ldrb	r0, [r4, #0]
    }
}
   d8cf0:	e8bd 4010 	ldmia.w	sp!, {r4, lr}
{
    // TODO: Fetch default pin from HAL
    if (!lock())
    {
        HAL_SPI_Begin(_spi, SPI_DEFAULT_SS);
        unlock();
   d8cf4:	f7ff bfe3 	b.w	d8cbe <_ZN8SPIClass6unlockEv.isra.1>
   d8cf8:	bd10      	pop	{r4, pc}

000d8cfa <_ZN8SPIClass11setBitOrderEh>:
        unlock();
    }
}

void SPIClass::setBitOrder(uint8_t bitOrder)
{
   d8cfa:	b538      	push	{r3, r4, r5, lr}
   d8cfc:	4604      	mov	r4, r0
    if (!lock())
   d8cfe:	7800      	ldrb	r0, [r0, #0]
        unlock();
    }
}

void SPIClass::setBitOrder(uint8_t bitOrder)
{
   d8d00:	460d      	mov	r5, r1
    if (!lock())
   d8d02:	f7ff ffd9 	bl	d8cb8 <_ZN8SPIClass4lockEv.isra.0>
   d8d06:	b940      	cbnz	r0, d8d1a <_ZN8SPIClass11setBitOrderEh+0x20>
    {
        HAL_SPI_Set_Bit_Order(_spi, bitOrder);
   d8d08:	7820      	ldrb	r0, [r4, #0]
   d8d0a:	4629      	mov	r1, r5
   d8d0c:	f7ff fc6a 	bl	d85e4 <HAL_SPI_Set_Bit_Order>
        unlock();
   d8d10:	7820      	ldrb	r0, [r4, #0]
    }
}
   d8d12:	e8bd 4038 	ldmia.w	sp!, {r3, r4, r5, lr}
void SPIClass::setBitOrder(uint8_t bitOrder)
{
    if (!lock())
    {
        HAL_SPI_Set_Bit_Order(_spi, bitOrder);
        unlock();
   d8d16:	f7ff bfd2 	b.w	d8cbe <_ZN8SPIClass6unlockEv.isra.1>
   d8d1a:	bd38      	pop	{r3, r4, r5, pc}

000d8d1c <_ZN8SPIClass11setDataModeEh>:
    }
}

void SPIClass::setDataMode(uint8_t mode)
{
   d8d1c:	b538      	push	{r3, r4, r5, lr}
   d8d1e:	4604      	mov	r4, r0
    if (!lock())
   d8d20:	7800      	ldrb	r0, [r0, #0]
        unlock();
    }
}

void SPIClass::setDataMode(uint8_t mode)
{
   d8d22:	460d      	mov	r5, r1
    if (!lock())
   d8d24:	f7ff ffc8 	bl	d8cb8 <_ZN8SPIClass4lockEv.isra.0>
   d8d28:	b940      	cbnz	r0, d8d3c <_ZN8SPIClass11setDataModeEh+0x20>
    {
        HAL_SPI_Set_Data_Mode(_spi, mode);
   d8d2a:	7820      	ldrb	r0, [r4, #0]
   d8d2c:	4629      	mov	r1, r5
   d8d2e:	f7ff fc61 	bl	d85f4 <HAL_SPI_Set_Data_Mode>
        unlock();
   d8d32:	7820      	ldrb	r0, [r4, #0]
    }
}
   d8d34:	e8bd 4038 	ldmia.w	sp!, {r3, r4, r5, lr}
void SPIClass::setDataMode(uint8_t mode)
{
    if (!lock())
    {
        HAL_SPI_Set_Data_Mode(_spi, mode);
        unlock();
   d8d38:	f7ff bfc1 	b.w	d8cbe <_ZN8SPIClass6unlockEv.isra.1>
   d8d3c:	bd38      	pop	{r3, r4, r5, pc}

000d8d3e <_ZN8SPIClass14endTransactionEv>:
}

void SPIClass::endTransaction()
{
    // Release peripheral
    unlock();
   d8d3e:	7800      	ldrb	r0, [r0, #0]
   d8d40:	f7ff bfbd 	b.w	d8cbe <_ZN8SPIClass6unlockEv.isra.1>

000d8d44 <_ZN8SPIClass19computeClockDividerEjjRhRj>:
void SPIClass::computeClockDivider(unsigned reference, unsigned targetSpeed, uint8_t& divider,
                                   unsigned& clock)
{
    clock = reference;
    uint8_t scale = 0;
    clock >>= 1; // div2 is the first
   d8d44:	0840      	lsrs	r0, r0, #1
    }
}

void SPIClass::computeClockDivider(unsigned reference, unsigned targetSpeed, uint8_t& divider,
                                   unsigned& clock)
{
   d8d46:	b530      	push	{r4, r5, lr}
    clock = reference;
    uint8_t scale = 0;
    clock >>= 1; // div2 is the first
   d8d48:	6018      	str	r0, [r3, #0]
   d8d4a:	2400      	movs	r4, #0
    while (clock > targetSpeed && scale < 7)
   d8d4c:	6818      	ldr	r0, [r3, #0]
   d8d4e:	4288      	cmp	r0, r1
   d8d50:	b2e5      	uxtb	r5, r4
   d8d52:	d906      	bls.n	d8d62 <_ZN8SPIClass19computeClockDividerEjjRhRj+0x1e>
   d8d54:	3401      	adds	r4, #1
   d8d56:	2c08      	cmp	r4, #8
   d8d58:	d002      	beq.n	d8d60 <_ZN8SPIClass19computeClockDividerEjjRhRj+0x1c>
    {
        clock >>= 1;
   d8d5a:	0840      	lsrs	r0, r0, #1
   d8d5c:	6018      	str	r0, [r3, #0]
                                   unsigned& clock)
{
    clock = reference;
    uint8_t scale = 0;
    clock >>= 1; // div2 is the first
    while (clock > targetSpeed && scale < 7)
   d8d5e:	e7f5      	b.n	d8d4c <_ZN8SPIClass19computeClockDividerEjjRhRj+0x8>
   d8d60:	2507      	movs	r5, #7
    {
        clock >>= 1;
        scale++;
    }
    divider = clock_divisors[scale];
   d8d62:	4b02      	ldr	r3, [pc, #8]	; (d8d6c <_ZN8SPIClass19computeClockDividerEjjRhRj+0x28>)
   d8d64:	5d5b      	ldrb	r3, [r3, r5]
   d8d66:	7013      	strb	r3, [r2, #0]
   d8d68:	bd30      	pop	{r4, r5, pc}
   d8d6a:	bf00      	nop
   d8d6c:	000dbfac 	.word	0x000dbfac

000d8d70 <_ZN8SPIClass16beginTransactionERKN8particle13__SPISettingsE>:
{
    return lock();
}

int32_t SPIClass::beginTransaction(const particle::__SPISettings& settings)
{
   d8d70:	e92d 43f0 	stmdb	sp!, {r4, r5, r6, r7, r8, r9, lr}
   d8d74:	4607      	mov	r7, r0
   d8d76:	b08f      	sub	sp, #60	; 0x3c
    // Lock peripheral
    CHECK(lock());
   d8d78:	7800      	ldrb	r0, [r0, #0]
{
    return lock();
}

int32_t SPIClass::beginTransaction(const particle::__SPISettings& settings)
{
   d8d7a:	460e      	mov	r6, r1
    // Lock peripheral
    CHECK(lock());
   d8d7c:	f7ff ff9c 	bl	d8cb8 <_ZN8SPIClass4lockEv.isra.0>
   d8d80:	2800      	cmp	r0, #0
   d8d82:	db62      	blt.n	d8e4a <_ZN8SPIClass16beginTransactionERKN8particle13__SPISettingsE+0xda>

    // Collect existing SPI info
    hal_spi_info_t spi_info;
    querySpiInfo(_spi, &spi_info);
   d8d84:	783c      	ldrb	r4, [r7, #0]
 * \warning This method is NOT THREADSAFE and callers will need to utilize
 *          HAL synchronization primatives.
 */
static void querySpiInfo(HAL_SPI_Interface spi, hal_spi_info_t* info)
{
    memset(info, 0, sizeof(hal_spi_info_t));
   d8d86:	2214      	movs	r2, #20
   d8d88:	2100      	movs	r1, #0
   d8d8a:	a809      	add	r0, sp, #36	; 0x24
   d8d8c:	f002 fb2a 	bl	db3e4 <memset>
    info->version = HAL_SPI_INFO_VERSION_1;
   d8d90:	230b      	movs	r3, #11
    HAL_SPI_Info(spi, info, nullptr);
   d8d92:	4620      	mov	r0, r4
   d8d94:	2200      	movs	r2, #0
   d8d96:	a909      	add	r1, sp, #36	; 0x24
 *          HAL synchronization primatives.
 */
static void querySpiInfo(HAL_SPI_Interface spi, hal_spi_info_t* info)
{
    memset(info, 0, sizeof(hal_spi_info_t));
    info->version = HAL_SPI_INFO_VERSION_1;
   d8d98:	f8ad 3024 	strh.w	r3, [sp, #36]	; 0x24
    HAL_SPI_Info(spi, info, nullptr);
   d8d9c:	f7ff fc52 	bl	d8644 <HAL_SPI_Info>
/**
 * \brief Extract SPI Settings from SPI Info Structure
 */
static particle::__SPISettings spiSettingsFromSpiInfo(hal_spi_info_t* info)
{
    if (!info || !info->enabled || info->default_settings)
   d8da0:	f89d 402d 	ldrb.w	r4, [sp, #45]	; 0x2d
   d8da4:	b154      	cbz	r4, d8dbc <_ZN8SPIClass16beginTransactionERKN8particle13__SPISettingsE+0x4c>
   d8da6:	f89d 502c 	ldrb.w	r5, [sp, #44]	; 0x2c
   d8daa:	b935      	cbnz	r5, d8dba <_ZN8SPIClass16beginTransactionERKN8particle13__SPISettingsE+0x4a>
    {
        return particle::__SPISettings();
    }
    return particle::__SPISettings(info->clock, info->bit_order, info->data_mode);
   d8dac:	f8dd 8030 	ldr.w	r8, [sp, #48]	; 0x30
   d8db0:	f89d 9034 	ldrb.w	r9, [sp, #52]	; 0x34
   d8db4:	f89d 4035 	ldrb.w	r4, [sp, #53]	; 0x35
   d8db8:	e003      	b.n	d8dc2 <_ZN8SPIClass16beginTransactionERKN8particle13__SPISettingsE+0x52>
      dataMode_{dataMode}
  {
  }

  __SPISettings()
  {
   d8dba:	2400      	movs	r4, #0
   d8dbc:	46a1      	mov	r9, r4
   d8dbe:	46a0      	mov	r8, r4
   d8dc0:	2501      	movs	r5, #1
   d8dc2:	7933      	ldrb	r3, [r6, #4]
  }

  bool operator==(const __SPISettings& other) const
  {
    if (default_ && other.default_)
   d8dc4:	b105      	cbz	r5, d8dc8 <_ZN8SPIClass16beginTransactionERKN8particle13__SPISettingsE+0x58>
   d8dc6:	b9bb      	cbnz	r3, d8df8 <_ZN8SPIClass16beginTransactionERKN8particle13__SPISettingsE+0x88>
      return true;

    if (default_ == other.default_ &&
   d8dc8:	429d      	cmp	r5, r3
   d8dca:	d10b      	bne.n	d8de4 <_ZN8SPIClass16beginTransactionERKN8particle13__SPISettingsE+0x74>
   d8dcc:	68b2      	ldr	r2, [r6, #8]
   d8dce:	4542      	cmp	r2, r8
   d8dd0:	d108      	bne.n	d8de4 <_ZN8SPIClass16beginTransactionERKN8particle13__SPISettingsE+0x74>
        clock_ == other.clock_ &&
        bitOrder_ == other.bitOrder_ &&
   d8dd2:	f88d 9020 	strb.w	r9, [sp, #32]
   d8dd6:	f88d 4021 	strb.w	r4, [sp, #33]	; 0x21
   d8dda:	f8bd 1020 	ldrh.w	r1, [sp, #32]
   d8dde:	89b2      	ldrh	r2, [r6, #12]
   d8de0:	4291      	cmp	r1, r2
   d8de2:	d009      	beq.n	d8df8 <_ZN8SPIClass16beginTransactionERKN8particle13__SPISettingsE+0x88>
    particle::__SPISettings spi_settings = spiSettingsFromSpiInfo(&spi_info);

    // Reconfigure SPI peripheral (if necessary)
    if (settings != spi_settings)
    {
        if (settings.default_)
   d8de4:	b153      	cbz	r3, d8dfc <_ZN8SPIClass16beginTransactionERKN8particle13__SPISettingsE+0x8c>
        {
            HAL_SPI_Set_Settings(_spi, settings.default_, 0, 0, 0, nullptr);
   d8de6:	2400      	movs	r4, #0
   d8de8:	7838      	ldrb	r0, [r7, #0]
   d8dea:	9401      	str	r4, [sp, #4]
   d8dec:	9400      	str	r4, [sp, #0]
   d8dee:	4623      	mov	r3, r4
   d8df0:	4622      	mov	r2, r4
   d8df2:	2101      	movs	r1, #1

            // Ensure inequality aside from computed clock value
            if (!(spi_settings <= settings && clock == spi_settings.clock_))
            {
                HAL_SPI_Set_Settings(_spi, settings.default_, divisor, settings.bitOrder_,
                                     settings.dataMode_, nullptr);
   d8df4:	f7ff fc3e 	bl	d8674 <HAL_SPI_Set_Settings>
            }
        }
    }

    return 0;
   d8df8:	2000      	movs	r0, #0
   d8dfa:	e026      	b.n	d8e4a <_ZN8SPIClass16beginTransactionERKN8particle13__SPISettingsE+0xda>
            HAL_SPI_Set_Settings(_spi, settings.default_, 0, 0, 0, nullptr);
        }
        else
        {
            // Compute valid clock value and clock divider from supplied clock value
            uint8_t divisor = 0;
   d8dfc:	f88d 300f 	strb.w	r3, [sp, #15]
            unsigned int clock; // intentionally left uninitialized
            computeClockDivider((unsigned int)spi_info.system_clock, settings.clock_, divisor,
                                clock);
   d8e00:	68b1      	ldr	r1, [r6, #8]
   d8e02:	980a      	ldr	r0, [sp, #40]	; 0x28
   d8e04:	ab04      	add	r3, sp, #16
   d8e06:	f10d 020f 	add.w	r2, sp, #15
   d8e0a:	f7ff ff9b 	bl	d8d44 <_ZN8SPIClass19computeClockDividerEjjRhRj>
   d8e0e:	7931      	ldrb	r1, [r6, #4]
    return false;
  }

  bool operator<=(const __SPISettings& other) const
  {
    if (default_ && other.default_)
   d8e10:	b105      	cbz	r5, d8e14 <_ZN8SPIClass16beginTransactionERKN8particle13__SPISettingsE+0xa4>
   d8e12:	b9b1      	cbnz	r1, d8e42 <_ZN8SPIClass16beginTransactionERKN8particle13__SPISettingsE+0xd2>
      return true;

    if (default_ == other.default_ &&
   d8e14:	42a9      	cmp	r1, r5
   d8e16:	d008      	beq.n	d8e2a <_ZN8SPIClass16beginTransactionERKN8particle13__SPISettingsE+0xba>

            // Ensure inequality aside from computed clock value
            if (!(spi_settings <= settings && clock == spi_settings.clock_))
            {
                HAL_SPI_Set_Settings(_spi, settings.default_, divisor, settings.bitOrder_,
                                     settings.dataMode_, nullptr);
   d8e18:	2400      	movs	r4, #0
   d8e1a:	7838      	ldrb	r0, [r7, #0]
   d8e1c:	9401      	str	r4, [sp, #4]
   d8e1e:	7b74      	ldrb	r4, [r6, #13]
   d8e20:	7b33      	ldrb	r3, [r6, #12]
   d8e22:	f89d 200f 	ldrb.w	r2, [sp, #15]
   d8e26:	9400      	str	r4, [sp, #0]
   d8e28:	e7e4      	b.n	d8df4 <_ZN8SPIClass16beginTransactionERKN8particle13__SPISettingsE+0x84>
   d8e2a:	68b3      	ldr	r3, [r6, #8]
   d8e2c:	4543      	cmp	r3, r8
   d8e2e:	d3f3      	bcc.n	d8e18 <_ZN8SPIClass16beginTransactionERKN8particle13__SPISettingsE+0xa8>
        clock_ <= other.clock_ &&
        bitOrder_ == other.bitOrder_ &&
   d8e30:	f88d 9020 	strb.w	r9, [sp, #32]
   d8e34:	f88d 4021 	strb.w	r4, [sp, #33]	; 0x21
   d8e38:	f8bd 2020 	ldrh.w	r2, [sp, #32]
   d8e3c:	89b3      	ldrh	r3, [r6, #12]
   d8e3e:	429a      	cmp	r2, r3
   d8e40:	d1ea      	bne.n	d8e18 <_ZN8SPIClass16beginTransactionERKN8particle13__SPISettingsE+0xa8>
            unsigned int clock; // intentionally left uninitialized
            computeClockDivider((unsigned int)spi_info.system_clock, settings.clock_, divisor,
                                clock);

            // Ensure inequality aside from computed clock value
            if (!(spi_settings <= settings && clock == spi_settings.clock_))
   d8e42:	9b04      	ldr	r3, [sp, #16]
   d8e44:	4543      	cmp	r3, r8
   d8e46:	d1e7      	bne.n	d8e18 <_ZN8SPIClass16beginTransactionERKN8particle13__SPISettingsE+0xa8>
   d8e48:	e7d6      	b.n	d8df8 <_ZN8SPIClass16beginTransactionERKN8particle13__SPISettingsE+0x88>
            }
        }
    }

    return 0;
}
   d8e4a:	b00f      	add	sp, #60	; 0x3c
   d8e4c:	e8bd 83f0 	ldmia.w	sp!, {r4, r5, r6, r7, r8, r9, pc}

000d8e50 <_ZN8SPIClass13setClockSpeedEjj>:
    }
    divider = clock_divisors[scale];
}

unsigned SPIClass::setClockSpeed(unsigned value, unsigned value_scale)
{
   d8e50:	e92d 41f0 	stmdb	sp!, {r4, r5, r6, r7, r8, lr}
   d8e54:	b088      	sub	sp, #32
    unsigned clock = 0;
   d8e56:	2300      	movs	r3, #0
    }
    divider = clock_divisors[scale];
}

unsigned SPIClass::setClockSpeed(unsigned value, unsigned value_scale)
{
   d8e58:	4604      	mov	r4, r0
    unsigned clock = 0;

    // actual speed is the system clock divided by some scalar
    unsigned targetSpeed = value * value_scale;

    if (!lock())
   d8e5a:	7800      	ldrb	r0, [r0, #0]
    divider = clock_divisors[scale];
}

unsigned SPIClass::setClockSpeed(unsigned value, unsigned value_scale)
{
    unsigned clock = 0;
   d8e5c:	9302      	str	r3, [sp, #8]
    }
    divider = clock_divisors[scale];
}

unsigned SPIClass::setClockSpeed(unsigned value, unsigned value_scale)
{
   d8e5e:	460e      	mov	r6, r1
   d8e60:	4617      	mov	r7, r2
    unsigned clock = 0;

    // actual speed is the system clock divided by some scalar
    unsigned targetSpeed = value * value_scale;

    if (!lock())
   d8e62:	f7ff ff29 	bl	d8cb8 <_ZN8SPIClass4lockEv.isra.0>
   d8e66:	4605      	mov	r5, r0
   d8e68:	bb00      	cbnz	r0, d8eac <_ZN8SPIClass13setClockSpeedEjj+0x5c>
    {
        // Query SPI info
        hal_spi_info_t info;
        querySpiInfo(_spi, &info);
   d8e6a:	f894 8000 	ldrb.w	r8, [r4]
 * \warning This method is NOT THREADSAFE and callers will need to utilize
 *          HAL synchronization primatives.
 */
static void querySpiInfo(HAL_SPI_Interface spi, hal_spi_info_t* info)
{
    memset(info, 0, sizeof(hal_spi_info_t));
   d8e6e:	4601      	mov	r1, r0
   d8e70:	2214      	movs	r2, #20
   d8e72:	a803      	add	r0, sp, #12
   d8e74:	f002 fab6 	bl	db3e4 <memset>
    info->version = HAL_SPI_INFO_VERSION_1;
   d8e78:	230b      	movs	r3, #11
    HAL_SPI_Info(spi, info, nullptr);
   d8e7a:	462a      	mov	r2, r5
   d8e7c:	a903      	add	r1, sp, #12
   d8e7e:	4640      	mov	r0, r8
 *          HAL synchronization primatives.
 */
static void querySpiInfo(HAL_SPI_Interface spi, hal_spi_info_t* info)
{
    memset(info, 0, sizeof(hal_spi_info_t));
    info->version = HAL_SPI_INFO_VERSION_1;
   d8e80:	f8ad 300c 	strh.w	r3, [sp, #12]
    HAL_SPI_Info(spi, info, nullptr);
   d8e84:	f7ff fbde 	bl	d8644 <HAL_SPI_Info>
        hal_spi_info_t info;
        querySpiInfo(_spi, &info);

        // Calculate clock divider
        uint8_t divisor = 0;
        computeClockDivider(info.system_clock, targetSpeed, divisor, clock);
   d8e88:	ab02      	add	r3, sp, #8
   d8e8a:	f10d 0207 	add.w	r2, sp, #7
   d8e8e:	fb07 f106 	mul.w	r1, r7, r6
   d8e92:	9804      	ldr	r0, [sp, #16]
        // Query SPI info
        hal_spi_info_t info;
        querySpiInfo(_spi, &info);

        // Calculate clock divider
        uint8_t divisor = 0;
   d8e94:	f88d 5007 	strb.w	r5, [sp, #7]
        computeClockDivider(info.system_clock, targetSpeed, divisor, clock);
   d8e98:	f7ff ff54 	bl	d8d44 <_ZN8SPIClass19computeClockDividerEjjRhRj>

        // Update SPI peripheral
        HAL_SPI_Set_Clock_Divider(_spi, divisor);
   d8e9c:	7820      	ldrb	r0, [r4, #0]
   d8e9e:	f89d 1007 	ldrb.w	r1, [sp, #7]
   d8ea2:	f7ff fbaf 	bl	d8604 <HAL_SPI_Set_Clock_Divider>
        unlock();
   d8ea6:	7820      	ldrb	r0, [r4, #0]
   d8ea8:	f7ff ff09 	bl	d8cbe <_ZN8SPIClass6unlockEv.isra.1>
    }

    return clock;
}
   d8eac:	9802      	ldr	r0, [sp, #8]
   d8eae:	b008      	add	sp, #32
   d8eb0:	e8bd 81f0 	ldmia.w	sp!, {r4, r5, r6, r7, r8, pc}

000d8eb4 <_ZN8SPIClass15setClockDividerEh>:
        unlock();
    }
}

void SPIClass::setClockDivider(uint8_t rate)
{
   d8eb4:	b538      	push	{r3, r4, r5, lr}
   d8eb6:	4604      	mov	r4, r0
    if (!lock())
   d8eb8:	7800      	ldrb	r0, [r0, #0]
        unlock();
    }
}

void SPIClass::setClockDivider(uint8_t rate)
{
   d8eba:	460d      	mov	r5, r1
    if (!lock())
   d8ebc:	f7ff fefc 	bl	d8cb8 <_ZN8SPIClass4lockEv.isra.0>
   d8ec0:	b9c8      	cbnz	r0, d8ef6 <_ZN8SPIClass15setClockDividerEh+0x42>
    {
        if (_dividerReference)
   d8ec2:	6861      	ldr	r1, [r4, #4]
   d8ec4:	b171      	cbz	r1, d8ee4 <_ZN8SPIClass15setClockDividerEh+0x30>
uint8_t divisorShiftScale(uint8_t divider)
{
    unsigned result = 0;
    for (; result < arraySize(clock_divisors); result++)
    {
        if (clock_divisors[result] == divider)
   d8ec6:	4b0c      	ldr	r3, [pc, #48]	; (d8ef8 <_ZN8SPIClass15setClockDividerEh+0x44>)
   d8ec8:	5cc2      	ldrb	r2, [r0, r3]
   d8eca:	42aa      	cmp	r2, r5
   d8ecc:	d002      	beq.n	d8ed4 <_ZN8SPIClass15setClockDividerEh+0x20>
 * Calculates how far a clock value should be right-shifted
 */
uint8_t divisorShiftScale(uint8_t divider)
{
    unsigned result = 0;
    for (; result < arraySize(clock_divisors); result++)
   d8ece:	3001      	adds	r0, #1
   d8ed0:	2808      	cmp	r0, #8
   d8ed2:	d1f9      	bne.n	d8ec8 <_ZN8SPIClass15setClockDividerEh+0x14>
        if (_dividerReference)
        {
            // determine the clock speed
            uint8_t scale = divisorShiftScale(rate);
            unsigned targetSpeed = _dividerReference >> scale;
            setClockSpeed(targetSpeed);
   d8ed4:	3001      	adds	r0, #1
   d8ed6:	b2c0      	uxtb	r0, r0
   d8ed8:	40c1      	lsrs	r1, r0
   d8eda:	2201      	movs	r2, #1
   d8edc:	4620      	mov	r0, r4
   d8ede:	f7ff ffb7 	bl	d8e50 <_ZN8SPIClass13setClockSpeedEjj>
   d8ee2:	e003      	b.n	d8eec <_ZN8SPIClass15setClockDividerEh+0x38>
        }
        else
        {
            HAL_SPI_Set_Clock_Divider(_spi, rate);
   d8ee4:	4629      	mov	r1, r5
   d8ee6:	7820      	ldrb	r0, [r4, #0]
   d8ee8:	f7ff fb8c 	bl	d8604 <HAL_SPI_Set_Clock_Divider>
        }
        unlock();
   d8eec:	7820      	ldrb	r0, [r4, #0]
    }
}
   d8eee:	e8bd 4038 	ldmia.w	sp!, {r3, r4, r5, lr}
        }
        else
        {
            HAL_SPI_Set_Clock_Divider(_spi, rate);
        }
        unlock();
   d8ef2:	f7ff bee4 	b.w	d8cbe <_ZN8SPIClass6unlockEv.isra.1>
   d8ef6:	bd38      	pop	{r3, r4, r5, pc}
   d8ef8:	000dbfac 	.word	0x000dbfac

000d8efc <_ZN8SPIClass8transferEh>:

    return clock;
}

byte SPIClass::transfer(byte _data)
{
   d8efc:	b508      	push	{r3, lr}
    return static_cast<byte>(HAL_SPI_Send_Receive_Data(_spi, _data));
   d8efe:	7800      	ldrb	r0, [r0, #0]
   d8f00:	f7ff fb88 	bl	d8614 <HAL_SPI_Send_Receive_Data>
}
   d8f04:	b2c0      	uxtb	r0, r0
   d8f06:	bd08      	pop	{r3, pc}

000d8f08 <_ZN8SPIClass8transferEPvS0_jPFvvE>:

void SPIClass::transfer(void* tx_buffer, void* rx_buffer, size_t length,
                        wiring_spi_dma_transfercomplete_callback_t user_callback)
{
   d8f08:	b530      	push	{r4, r5, lr}
   d8f0a:	b087      	sub	sp, #28
   d8f0c:	4604      	mov	r4, r0
   d8f0e:	9d0a      	ldr	r5, [sp, #40]	; 0x28
    HAL_SPI_DMA_Transfer(_spi, tx_buffer, rx_buffer, length, user_callback);
   d8f10:	7800      	ldrb	r0, [r0, #0]
   d8f12:	9500      	str	r5, [sp, #0]
   d8f14:	f7ff fb9e 	bl	d8654 <HAL_SPI_DMA_Transfer>
    if (user_callback == NULL)
   d8f18:	b93d      	cbnz	r5, d8f2a <_ZN8SPIClass8transferEPvS0_jPFvvE+0x22>
    {
        HAL_SPI_TransferStatus st;
        do
        {
            HAL_SPI_DMA_Transfer_Status(_spi, &st);
   d8f1a:	a902      	add	r1, sp, #8
   d8f1c:	7820      	ldrb	r0, [r4, #0]
   d8f1e:	f7ff fba1 	bl	d8664 <HAL_SPI_DMA_Transfer_Status>
{
    HAL_SPI_DMA_Transfer(_spi, tx_buffer, rx_buffer, length, user_callback);
    if (user_callback == NULL)
    {
        HAL_SPI_TransferStatus st;
        do
   d8f22:	f89d 3014 	ldrb.w	r3, [sp, #20]
   d8f26:	07db      	lsls	r3, r3, #31
   d8f28:	d4f7      	bmi.n	d8f1a <_ZN8SPIClass8transferEPvS0_jPFvvE+0x12>
        {
            HAL_SPI_DMA_Transfer_Status(_spi, &st);
        } while (st.transfer_ongoing);
    }
}
   d8f2a:	b007      	add	sp, #28
   d8f2c:	bd30      	pop	{r4, r5, pc}

000d8f2e <_ZN8SPIClass9isEnabledEv>:
bool SPIClass::isEnabled()
{
    // XXX: pinAvailable() will call this method potentially even from
    // interrupt context. `enabled` flag in HAL is usually just a volatile
    // variable, so it's fine not to acquire the lock here.
    return HAL_SPI_Is_Enabled(_spi);
   d8f2e:	7800      	ldrb	r0, [r0, #0]
   d8f30:	f7ff bb80 	b.w	d8634 <HAL_SPI_Is_Enabled>

000d8f34 <_ZN17SystemSleepResult22freeWakeupSourceMemoryEv.isra.2>:
    operator SleepResult() {
        return toSleepResult();
    }

private:
    void freeWakeupSourceMemory() {
   d8f34:	b510      	push	{r4, lr}
   d8f36:	4604      	mov	r4, r0
        if (wakeupSource_) {
   d8f38:	6800      	ldr	r0, [r0, #0]
   d8f3a:	b118      	cbz	r0, d8f44 <_ZN17SystemSleepResult22freeWakeupSourceMemoryEv.isra.2+0x10>
            free(wakeupSource_);
   d8f3c:	f7ff fe46 	bl	d8bcc <free>
            wakeupSource_ = nullptr;
   d8f40:	2300      	movs	r3, #0
   d8f42:	6023      	str	r3, [r4, #0]
   d8f44:	bd10      	pop	{r4, pc}

000d8f46 <_ZN11SystemClassD1Ev>:
    system_error_t error_;
    SleepResult compatResult_;
};


class SystemClass {
   d8f46:	b510      	push	{r4, lr}
   d8f48:	4604      	mov	r4, r0
        }
        return *this;
    }

    ~SystemSleepResult() {
        freeWakeupSourceMemory();
   d8f4a:	f7ff fff3 	bl	d8f34 <_ZN17SystemSleepResult22freeWakeupSourceMemoryEv.isra.2>
    system_error_t error_;
    SleepResult compatResult_;
};


class SystemClass {
   d8f4e:	4620      	mov	r0, r4
   d8f50:	bd10      	pop	{r4, pc}
	...

000d8f54 <_GLOBAL__sub_I_System>:
    return wokenUpByRtc();
}

system_error_t SleepResult::error() const {
    return err_;
   d8f54:	b510      	push	{r4, lr}

class SystemSleepResult {
public:
    SystemSleepResult()
            : wakeupSource_(nullptr),
              error_(SYSTEM_ERROR_NONE) {
   d8f56:	4c09      	ldr	r4, [pc, #36]	; (d8f7c <_GLOBAL__sub_I_System+0x28>)
   d8f58:	2000      	movs	r0, #0
    WAKEUP_REASON_PIN_OR_RTC = 3,
    WAKEUP_REASON_UNKNOWN = 4
};

struct SleepResult {
    SleepResult() {}
   d8f5a:	f64f 73ff 	movw	r3, #65535	; 0xffff

class SystemSleepResult {
public:
    SystemSleepResult()
            : wakeupSource_(nullptr),
              error_(SYSTEM_ERROR_NONE) {
   d8f5e:	6020      	str	r0, [r4, #0]
   d8f60:	80a0      	strh	r0, [r4, #4]
    WAKEUP_REASON_PIN_OR_RTC = 3,
    WAKEUP_REASON_UNKNOWN = 4
};

struct SleepResult {
    SleepResult() {}
   d8f62:	71a0      	strb	r0, [r4, #6]
   d8f64:	8120      	strh	r0, [r4, #8]
   d8f66:	8163      	strh	r3, [r4, #10]

class SystemClass {
public:

    SystemClass(System_Mode_TypeDef mode = DEFAULT) {
        set_system_mode(mode);
   d8f68:	f7ff fd74 	bl	d8a54 <set_system_mode>

#if Wiring_LogConfig
extern void(*log_process_ctrl_request_callback)(ctrl_request* req);
#endif

SystemClass System;
   d8f6c:	4620      	mov	r0, r4
   d8f6e:	4a04      	ldr	r2, [pc, #16]	; (d8f80 <_GLOBAL__sub_I_System+0x2c>)
   d8f70:	4904      	ldr	r1, [pc, #16]	; (d8f84 <_GLOBAL__sub_I_System+0x30>)
    return wokenUpByRtc();
}

system_error_t SleepResult::error() const {
    return err_;
   d8f72:	e8bd 4010 	ldmia.w	sp!, {r4, lr}

#if Wiring_LogConfig
extern void(*log_process_ctrl_request_callback)(ctrl_request* req);
#endif

SystemClass System;
   d8f76:	f001 bb91 	b.w	da69c <__aeabi_atexit>
   d8f7a:	bf00      	nop
   d8f7c:	2003e090 	.word	0x2003e090
   d8f80:	2003d9bc 	.word	0x2003d9bc
   d8f84:	000d8f47 	.word	0x000d8f47

000d8f88 <_ZN6StringD1Ev>:
	init();
	char buf[33];
	dtoa(value, decimalPlaces, buf);
        *this = buf;
}
String::~String()
   d8f88:	b510      	push	{r4, lr}
   d8f8a:	4604      	mov	r4, r0
{
	free(buffer);
   d8f8c:	6800      	ldr	r0, [r0, #0]
   d8f8e:	f7ff fe1d 	bl	d8bcc <free>
}
   d8f92:	4620      	mov	r0, r4
   d8f94:	bd10      	pop	{r4, pc}

000d8f96 <_ZN6String10invalidateEv>:
	len = 0;
	flags = 0;
}

void String::invalidate(void)
{
   d8f96:	b510      	push	{r4, lr}
   d8f98:	4604      	mov	r4, r0
	if (buffer) free(buffer);
   d8f9a:	6800      	ldr	r0, [r0, #0]
   d8f9c:	b108      	cbz	r0, d8fa2 <_ZN6String10invalidateEv+0xc>
   d8f9e:	f7ff fe15 	bl	d8bcc <free>
	buffer = NULL;
   d8fa2:	2300      	movs	r3, #0
   d8fa4:	6023      	str	r3, [r4, #0]
	capacity = len = 0;
   d8fa6:	60a3      	str	r3, [r4, #8]
   d8fa8:	6063      	str	r3, [r4, #4]
   d8faa:	bd10      	pop	{r4, pc}

000d8fac <_ZN6String12changeBufferEj>:
	}
	return 0;
}

unsigned char String::changeBuffer(unsigned int maxStrLen)
{
   d8fac:	b538      	push	{r3, r4, r5, lr}
   d8fae:	4604      	mov	r4, r0
   d8fb0:	460d      	mov	r5, r1
	char *newbuffer = (char *)realloc(buffer, maxStrLen + 1);
   d8fb2:	6800      	ldr	r0, [r0, #0]
   d8fb4:	3101      	adds	r1, #1
   d8fb6:	f7ff fe11 	bl	d8bdc <realloc>
	if (newbuffer) {
   d8fba:	b110      	cbz	r0, d8fc2 <_ZN6String12changeBufferEj+0x16>
		buffer = newbuffer;
		capacity = maxStrLen;
   d8fbc:	e884 0021 	stmia.w	r4, {r0, r5}
		return 1;
   d8fc0:	2001      	movs	r0, #1
	}
	return 0;
}
   d8fc2:	bd38      	pop	{r3, r4, r5, pc}

000d8fc4 <_ZN6String7reserveEj>:
	buffer = NULL;
	capacity = len = 0;
}

unsigned char String::reserve(unsigned int size)
{
   d8fc4:	b510      	push	{r4, lr}
	if (buffer && capacity >= size) return 1;
   d8fc6:	6803      	ldr	r3, [r0, #0]
	buffer = NULL;
	capacity = len = 0;
}

unsigned char String::reserve(unsigned int size)
{
   d8fc8:	4604      	mov	r4, r0
	if (buffer && capacity >= size) return 1;
   d8fca:	b113      	cbz	r3, d8fd2 <_ZN6String7reserveEj+0xe>
   d8fcc:	6843      	ldr	r3, [r0, #4]
   d8fce:	428b      	cmp	r3, r1
   d8fd0:	d207      	bcs.n	d8fe2 <_ZN6String7reserveEj+0x1e>
	if (changeBuffer(size)) {
   d8fd2:	4620      	mov	r0, r4
   d8fd4:	f7ff ffea 	bl	d8fac <_ZN6String12changeBufferEj>
   d8fd8:	b120      	cbz	r0, d8fe4 <_ZN6String7reserveEj+0x20>
		if (len == 0) buffer[0] = 0;
   d8fda:	68a3      	ldr	r3, [r4, #8]
   d8fdc:	b90b      	cbnz	r3, d8fe2 <_ZN6String7reserveEj+0x1e>
   d8fde:	6822      	ldr	r2, [r4, #0]
   d8fe0:	7013      	strb	r3, [r2, #0]
   d8fe2:	2001      	movs	r0, #1
		return 1;
	}
	return 0;
}
   d8fe4:	bd10      	pop	{r4, pc}

000d8fe6 <_ZN6String4copyEPKcj>:
/*********************************************/
/*  Copy and Move                            */
/*********************************************/

String & String::copy(const char *cstr, unsigned int length)
{
   d8fe6:	b570      	push	{r4, r5, r6, lr}
   d8fe8:	460e      	mov	r6, r1
	if (!reserve(length)) {
   d8fea:	4611      	mov	r1, r2
/*********************************************/
/*  Copy and Move                            */
/*********************************************/

String & String::copy(const char *cstr, unsigned int length)
{
   d8fec:	4604      	mov	r4, r0
   d8fee:	4615      	mov	r5, r2
	if (!reserve(length)) {
   d8ff0:	f7ff ffe8 	bl	d8fc4 <_ZN6String7reserveEj>
   d8ff4:	b918      	cbnz	r0, d8ffe <_ZN6String4copyEPKcj+0x18>
		invalidate();
   d8ff6:	4620      	mov	r0, r4
   d8ff8:	f7ff ffcd 	bl	d8f96 <_ZN6String10invalidateEv>
		return *this;
   d8ffc:	e009      	b.n	d9012 <_ZN6String4copyEPKcj+0x2c>
	}
	len = length;
	memcpy(buffer, cstr, length);
   d8ffe:	462a      	mov	r2, r5
   d9000:	4631      	mov	r1, r6
{
	if (!reserve(length)) {
		invalidate();
		return *this;
	}
	len = length;
   d9002:	60a5      	str	r5, [r4, #8]
	memcpy(buffer, cstr, length);
   d9004:	6820      	ldr	r0, [r4, #0]
   d9006:	f002 f9e2 	bl	db3ce <memcpy>
	buffer[len] = 0;
   d900a:	6822      	ldr	r2, [r4, #0]
   d900c:	68a3      	ldr	r3, [r4, #8]
   d900e:	2100      	movs	r1, #0
   d9010:	54d1      	strb	r1, [r2, r3]
	return *this;
}
   d9012:	4620      	mov	r0, r4
   d9014:	bd70      	pop	{r4, r5, r6, pc}

000d9016 <_ZN6StringC1EPK19__FlashStringHelper>:
{
	init();
	*this = value;
}

String::String(const __FlashStringHelper *pstr)
   d9016:	b538      	push	{r3, r4, r5, lr}
/*  Memory Management                        */
/*********************************************/

inline void String::init(void)
{
	buffer = NULL;
   d9018:	2300      	movs	r3, #0
{
	init();
	*this = value;
}

String::String(const __FlashStringHelper *pstr)
   d901a:	4604      	mov	r4, r0
/*  Memory Management                        */
/*********************************************/

inline void String::init(void)
{
	buffer = NULL;
   d901c:	6003      	str	r3, [r0, #0]
	capacity = 0;
   d901e:	6043      	str	r3, [r0, #4]
	len = 0;
   d9020:	6083      	str	r3, [r0, #8]
	flags = 0;
   d9022:	7303      	strb	r3, [r0, #12]

String::String(const __FlashStringHelper *pstr)
{
	init();
	const char* cstr = reinterpret_cast<const char*>(pstr);
	if (cstr) copy(cstr, strlen(cstr));
   d9024:	460d      	mov	r5, r1
   d9026:	b139      	cbz	r1, d9038 <_ZN6StringC1EPK19__FlashStringHelper+0x22>
   d9028:	4608      	mov	r0, r1
   d902a:	f002 fa2b 	bl	db484 <strlen>
   d902e:	4629      	mov	r1, r5
   d9030:	4602      	mov	r2, r0
   d9032:	4620      	mov	r0, r4
   d9034:	f7ff ffd7 	bl	d8fe6 <_ZN6String4copyEPKcj>
}
   d9038:	4620      	mov	r0, r4
   d903a:	bd38      	pop	{r3, r4, r5, pc}

000d903c <_ZN6String4moveERS_>:
    return copy(reinterpret_cast<const char*>(pstr), length);
}

#ifdef __GXX_EXPERIMENTAL_CXX0X__
void String::move(String &rhs)
{
   d903c:	b538      	push	{r3, r4, r5, lr}
   d903e:	4605      	mov	r5, r0
	if (buffer) {
   d9040:	6800      	ldr	r0, [r0, #0]
    return copy(reinterpret_cast<const char*>(pstr), length);
}

#ifdef __GXX_EXPERIMENTAL_CXX0X__
void String::move(String &rhs)
{
   d9042:	460c      	mov	r4, r1
	if (buffer) {
   d9044:	b160      	cbz	r0, d9060 <_ZN6String4moveERS_+0x24>
		if (capacity >= rhs.len) {
   d9046:	686a      	ldr	r2, [r5, #4]
   d9048:	688b      	ldr	r3, [r1, #8]
   d904a:	429a      	cmp	r2, r3
   d904c:	d306      	bcc.n	d905c <_ZN6String4moveERS_+0x20>
			strcpy(buffer, rhs.buffer);
   d904e:	6809      	ldr	r1, [r1, #0]
   d9050:	f002 fa10 	bl	db474 <strcpy>
			len = rhs.len;
   d9054:	68a3      	ldr	r3, [r4, #8]
   d9056:	60ab      	str	r3, [r5, #8]
			rhs.len = 0;
   d9058:	2300      	movs	r3, #0
   d905a:	e00a      	b.n	d9072 <_ZN6String4moveERS_+0x36>
			return;
		} else {
			free(buffer);
   d905c:	f7ff fdb6 	bl	d8bcc <free>
		}
	}
	buffer = rhs.buffer;
   d9060:	6823      	ldr	r3, [r4, #0]
   d9062:	602b      	str	r3, [r5, #0]
	capacity = rhs.capacity;
   d9064:	6863      	ldr	r3, [r4, #4]
   d9066:	606b      	str	r3, [r5, #4]
	len = rhs.len;
   d9068:	68a3      	ldr	r3, [r4, #8]
   d906a:	60ab      	str	r3, [r5, #8]
	rhs.buffer = NULL;
   d906c:	2300      	movs	r3, #0
   d906e:	6023      	str	r3, [r4, #0]
	rhs.capacity = 0;
   d9070:	6063      	str	r3, [r4, #4]
	rhs.len = 0;
   d9072:	60a3      	str	r3, [r4, #8]
   d9074:	bd38      	pop	{r3, r4, r5, pc}

000d9076 <_ZN6StringaSERKS_>:
}
#endif

String & String::operator = (const String &rhs)
{
	if (this == &rhs) return *this;
   d9076:	4288      	cmp	r0, r1
	rhs.len = 0;
}
#endif

String & String::operator = (const String &rhs)
{
   d9078:	b510      	push	{r4, lr}
   d907a:	460b      	mov	r3, r1
   d907c:	4604      	mov	r4, r0
	if (this == &rhs) return *this;
   d907e:	d007      	beq.n	d9090 <_ZN6StringaSERKS_+0x1a>

	if (rhs.buffer) copy(rhs.buffer, rhs.len);
   d9080:	6809      	ldr	r1, [r1, #0]
   d9082:	b119      	cbz	r1, d908c <_ZN6StringaSERKS_+0x16>
   d9084:	689a      	ldr	r2, [r3, #8]
   d9086:	f7ff ffae 	bl	d8fe6 <_ZN6String4copyEPKcj>
   d908a:	e001      	b.n	d9090 <_ZN6StringaSERKS_+0x1a>
	else invalidate();
   d908c:	f7ff ff83 	bl	d8f96 <_ZN6String10invalidateEv>

	return *this;
}
   d9090:	4620      	mov	r0, r4
   d9092:	bd10      	pop	{r4, pc}

000d9094 <_ZN6StringaSEOS_>:
}

#ifdef __GXX_EXPERIMENTAL_CXX0X__
String & String::operator = (String &&rval)
{
	if (this != &rval) move(rval);
   d9094:	4288      	cmp	r0, r1
    return *this;
}

#ifdef __GXX_EXPERIMENTAL_CXX0X__
String & String::operator = (String &&rval)
{
   d9096:	b510      	push	{r4, lr}
   d9098:	4604      	mov	r4, r0
	if (this != &rval) move(rval);
   d909a:	d001      	beq.n	d90a0 <_ZN6StringaSEOS_+0xc>
   d909c:	f7ff ffce 	bl	d903c <_ZN6String4moveERS_>
	return *this;
}
   d90a0:	4620      	mov	r0, r4
   d90a2:	bd10      	pop	{r4, pc}

000d90a4 <_ZN6StringaSEPKc>:
	return *this;
}
#endif

String & String::operator = (const char *cstr)
{
   d90a4:	b538      	push	{r3, r4, r5, lr}
   d90a6:	4605      	mov	r5, r0
	if (cstr) copy(cstr, strlen(cstr));
   d90a8:	460c      	mov	r4, r1
   d90aa:	b141      	cbz	r1, d90be <_ZN6StringaSEPKc+0x1a>
   d90ac:	4608      	mov	r0, r1
   d90ae:	f002 f9e9 	bl	db484 <strlen>
   d90b2:	4621      	mov	r1, r4
   d90b4:	4602      	mov	r2, r0
   d90b6:	4628      	mov	r0, r5
   d90b8:	f7ff ff95 	bl	d8fe6 <_ZN6String4copyEPKcj>
   d90bc:	e001      	b.n	d90c2 <_ZN6StringaSEPKc+0x1e>
	else invalidate();
   d90be:	f7ff ff6a 	bl	d8f96 <_ZN6String10invalidateEv>

	return *this;
}
   d90c2:	4628      	mov	r0, r5
   d90c4:	bd38      	pop	{r3, r4, r5, pc}

000d90c6 <_ZN6String6concatEPKcj>:
{
	return concat(s.buffer, s.len);
}

unsigned char String::concat(const char *cstr, unsigned int length)
{
   d90c6:	b570      	push	{r4, r5, r6, lr}
   d90c8:	4604      	mov	r4, r0
	unsigned int newlen = len + length;
	if (!cstr) return 0;
   d90ca:	460e      	mov	r6, r1
   d90cc:	b909      	cbnz	r1, d90d2 <_ZN6String6concatEPKcj+0xc>
   d90ce:	2000      	movs	r0, #0
   d90d0:	bd70      	pop	{r4, r5, r6, pc}
	if (length == 0) return 1;
   d90d2:	b16a      	cbz	r2, d90f0 <_ZN6String6concatEPKcj+0x2a>
	return concat(s.buffer, s.len);
}

unsigned char String::concat(const char *cstr, unsigned int length)
{
	unsigned int newlen = len + length;
   d90d4:	6883      	ldr	r3, [r0, #8]
   d90d6:	18d5      	adds	r5, r2, r3
	if (!cstr) return 0;
	if (length == 0) return 1;
	if (!reserve(newlen)) return 0;
   d90d8:	4629      	mov	r1, r5
   d90da:	f7ff ff73 	bl	d8fc4 <_ZN6String7reserveEj>
   d90de:	2800      	cmp	r0, #0
   d90e0:	d0f5      	beq.n	d90ce <_ZN6String6concatEPKcj+0x8>
	strcpy(buffer + len, cstr);
   d90e2:	6820      	ldr	r0, [r4, #0]
   d90e4:	68a3      	ldr	r3, [r4, #8]
   d90e6:	4631      	mov	r1, r6
   d90e8:	4418      	add	r0, r3
   d90ea:	f002 f9c3 	bl	db474 <strcpy>
	len = newlen;
   d90ee:	60a5      	str	r5, [r4, #8]

unsigned char String::concat(const char *cstr, unsigned int length)
{
	unsigned int newlen = len + length;
	if (!cstr) return 0;
	if (length == 0) return 1;
   d90f0:	2001      	movs	r0, #1
	if (!reserve(newlen)) return 0;
	strcpy(buffer + len, cstr);
	len = newlen;
	return 1;
}
   d90f2:	bd70      	pop	{r4, r5, r6, pc}

000d90f4 <_ZplRK15StringSumHelperRK6String>:
/*********************************************/
/*  Concatenate                              */
/*********************************************/

StringSumHelper & operator + (const StringSumHelper &lhs, const String &rhs)
{
   d90f4:	b510      	push	{r4, lr}
	StringSumHelper &a = const_cast<StringSumHelper&>(lhs);
	if (!a.concat(rhs.buffer, rhs.len)) a.invalidate();
   d90f6:	688a      	ldr	r2, [r1, #8]
   d90f8:	6809      	ldr	r1, [r1, #0]
/*********************************************/
/*  Concatenate                              */
/*********************************************/

StringSumHelper & operator + (const StringSumHelper &lhs, const String &rhs)
{
   d90fa:	4604      	mov	r4, r0
	StringSumHelper &a = const_cast<StringSumHelper&>(lhs);
	if (!a.concat(rhs.buffer, rhs.len)) a.invalidate();
   d90fc:	f7ff ffe3 	bl	d90c6 <_ZN6String6concatEPKcj>
   d9100:	b910      	cbnz	r0, d9108 <_ZplRK15StringSumHelperRK6String+0x14>
   d9102:	4620      	mov	r0, r4
   d9104:	f7ff ff47 	bl	d8f96 <_ZN6String10invalidateEv>
	return a;
}
   d9108:	4620      	mov	r0, r4
   d910a:	bd10      	pop	{r4, pc}

000d910c <_ZN14RecursiveMutexD1Ev>:
    RecursiveMutex() : handle_(nullptr)
    {
        os_mutex_recursive_create(&handle_);
    }

    ~RecursiveMutex() {
   d910c:	b510      	push	{r4, lr}
   d910e:	4604      	mov	r4, r0
        dispose();
    }

    void dispose()
    {
        if (handle_) {
   d9110:	6800      	ldr	r0, [r0, #0]
   d9112:	b108      	cbz	r0, d9118 <_ZN14RecursiveMutexD1Ev+0xc>
            os_mutex_recursive_destroy(handle_);
   d9114:	f7ff fb5e 	bl	d87d4 <os_mutex_recursive_destroy>
        os_mutex_recursive_create(&handle_);
    }

    ~RecursiveMutex() {
        dispose();
    }
   d9118:	4620      	mov	r0, r4
   d911a:	bd10      	pop	{r4, pc}

000d911c <_GLOBAL__sub_I__ZN8particle3ble13WiringBleLock6mutex_E>:
BleCharacteristic BleLocalDevice::addCharacteristic(const String& desc, EnumFlags<BleCharacteristicProperty> properties, BleOnDataReceivedCallback callback, void* context) {
    WiringBleLock lk;
    return addCharacteristic(desc.c_str(), properties, callback, context);
}

} /* namespace particle */
   d911c:	b510      	push	{r4, lr}
    /**
     * Creates a shared mutex.
     */
    RecursiveMutex(os_mutex_recursive_t handle) : handle_(handle) {}

    RecursiveMutex() : handle_(nullptr)
   d911e:	4c06      	ldr	r4, [pc, #24]	; (d9138 <_GLOBAL__sub_I__ZN8particle3ble13WiringBleLock6mutex_E+0x1c>)
   d9120:	2300      	movs	r3, #0
    {
        os_mutex_recursive_create(&handle_);
   d9122:	4620      	mov	r0, r4
    /**
     * Creates a shared mutex.
     */
    RecursiveMutex(os_mutex_recursive_t handle) : handle_(handle) {}

    RecursiveMutex() : handle_(nullptr)
   d9124:	6023      	str	r3, [r4, #0]
    {
        os_mutex_recursive_create(&handle_);
   d9126:	f7ff fb4d 	bl	d87c4 <os_mutex_recursive_create>
private:
    bool locked_;
    static RecursiveMutex mutex_;
};

RecursiveMutex WiringBleLock::mutex_;
   d912a:	4620      	mov	r0, r4
   d912c:	4a03      	ldr	r2, [pc, #12]	; (d913c <_GLOBAL__sub_I__ZN8particle3ble13WiringBleLock6mutex_E+0x20>)
   d912e:	4904      	ldr	r1, [pc, #16]	; (d9140 <_GLOBAL__sub_I__ZN8particle3ble13WiringBleLock6mutex_E+0x24>)
BleCharacteristic BleLocalDevice::addCharacteristic(const String& desc, EnumFlags<BleCharacteristicProperty> properties, BleOnDataReceivedCallback callback, void* context) {
    WiringBleLock lk;
    return addCharacteristic(desc.c_str(), properties, callback, context);
}

} /* namespace particle */
   d9130:	e8bd 4010 	ldmia.w	sp!, {r4, lr}
private:
    bool locked_;
    static RecursiveMutex mutex_;
};

RecursiveMutex WiringBleLock::mutex_;
   d9134:	f001 bab2 	b.w	da69c <__aeabi_atexit>
   d9138:	2003e09c 	.word	0x2003e09c
   d913c:	2003d9bc 	.word	0x2003d9bc
   d9140:	000d910d 	.word	0x000d910d

000d9144 <_ZN5Print5writeEPKhj>:

// Public Methods //////////////////////////////////////////////////////////////

/* default implementation: may be overridden */
size_t Print::write(const uint8_t *buffer, size_t size)
{
   d9144:	b5f8      	push	{r3, r4, r5, r6, r7, lr}
   d9146:	4606      	mov	r6, r0
   d9148:	460d      	mov	r5, r1
   d914a:	188f      	adds	r7, r1, r2
  size_t n = 0;
   d914c:	2400      	movs	r4, #0
  while (size--) {
   d914e:	42bd      	cmp	r5, r7
   d9150:	d00c      	beq.n	d916c <_ZN5Print5writeEPKhj+0x28>
     int chunk = write(*buffer++);
   d9152:	6833      	ldr	r3, [r6, #0]
   d9154:	f815 1b01 	ldrb.w	r1, [r5], #1
   d9158:	689b      	ldr	r3, [r3, #8]
   d915a:	4630      	mov	r0, r6
   d915c:	4798      	blx	r3
     if (chunk>=0)
   d915e:	2800      	cmp	r0, #0
   d9160:	db01      	blt.n	d9166 <_ZN5Print5writeEPKhj+0x22>
         n += chunk;
   d9162:	4404      	add	r4, r0

/* default implementation: may be overridden */
size_t Print::write(const uint8_t *buffer, size_t size)
{
  size_t n = 0;
  while (size--) {
   d9164:	e7f3      	b.n	d914e <_ZN5Print5writeEPKhj+0xa>
     int chunk = write(*buffer++);
   d9166:	2c00      	cmp	r4, #0
   d9168:	bf08      	it	eq
   d916a:	4604      	moveq	r4, r0
             n = chunk;
         break;
     }
  }
  return n;
}
   d916c:	4620      	mov	r0, r4
   d916e:	bdf8      	pop	{r3, r4, r5, r6, r7, pc}

000d9170 <_ZN5Print5printEPKc>:
   d9170:	b508      	push	{r3, lr}
   d9172:	f7fe f9f3 	bl	d755c <_ZN5Print5writeEPKc>
   d9176:	bd08      	pop	{r3, pc}

000d9178 <_ZN5Print5printEc>:
  return write(str);
}

size_t Print::print(char c)
{
  return write(c);
   d9178:	6803      	ldr	r3, [r0, #0]
   d917a:	689b      	ldr	r3, [r3, #8]
   d917c:	4718      	bx	r3

000d917e <_ZN5Print7printlnEv>:
{
  return print(reinterpret_cast<const char*>(str));
}

size_t Print::println(void)
{
   d917e:	b538      	push	{r3, r4, r5, lr}
  size_t n = print('\r');
   d9180:	210d      	movs	r1, #13
{
  return print(reinterpret_cast<const char*>(str));
}

size_t Print::println(void)
{
   d9182:	4605      	mov	r5, r0
  size_t n = print('\r');
   d9184:	f7ff fff8 	bl	d9178 <_ZN5Print5printEc>
  n += print('\n');
   d9188:	210a      	movs	r1, #10
  return print(reinterpret_cast<const char*>(str));
}

size_t Print::println(void)
{
  size_t n = print('\r');
   d918a:	4604      	mov	r4, r0
  n += print('\n');
   d918c:	4628      	mov	r0, r5
   d918e:	f7ff fff3 	bl	d9178 <_ZN5Print5printEc>
  return n;
}
   d9192:	4420      	add	r0, r4
   d9194:	bd38      	pop	{r3, r4, r5, pc}

000d9196 <_ZN5Print7printlnEPKc>:

size_t Print::println(const char c[])
{
   d9196:	b538      	push	{r3, r4, r5, lr}
   d9198:	4605      	mov	r5, r0
  return n;
}

size_t Print::print(const char str[])
{
  return write(str);
   d919a:	f7fe f9df 	bl	d755c <_ZN5Print5writeEPKc>
   d919e:	4604      	mov	r4, r0
}

size_t Print::println(const char c[])
{
  size_t n = print(c);
  n += println();
   d91a0:	4628      	mov	r0, r5
   d91a2:	f7ff ffec 	bl	d917e <_ZN5Print7printlnEv>
  return n;
}
   d91a6:	4420      	add	r0, r4
   d91a8:	bd38      	pop	{r3, r4, r5, pc}

000d91aa <_ZN5Print11printNumberEmh>:
  return println(reinterpret_cast<const char*>(str));
}

// Private Methods /////////////////////////////////////////////////////////////

size_t Print::printNumber(unsigned long n, uint8_t base) {
   d91aa:	b530      	push	{r4, r5, lr}
   d91ac:	b08b      	sub	sp, #44	; 0x2c
   d91ae:	460b      	mov	r3, r1
  char buf[8 * sizeof(n) + 1]; // Assumes 8-bit chars plus zero byte.
  char *str = &buf[sizeof(buf) - 1];

  *str = '\0';
   d91b0:	2100      	movs	r1, #0
   d91b2:	f88d 1024 	strb.w	r1, [sp, #36]	; 0x24

  // prevent crash if called with base == 1
  if (base < 2) base = 10;
   d91b6:	2a01      	cmp	r2, #1
   d91b8:	bf98      	it	ls
   d91ba:	220a      	movls	r2, #10
   d91bc:	f10d 0423 	add.w	r4, sp, #35	; 0x23

  do {
   decltype(n) m = n;
   n /= base;
   d91c0:	fbb3 f5f2 	udiv	r5, r3, r2
   char c = m - base * n;
   d91c4:	fb05 3312 	mls	r3, r5, r2, r3
   d91c8:	f003 03ff 	and.w	r3, r3, #255	; 0xff
   *--str = c < 10 ? c + '0' : c + 'A' - 10;
   d91cc:	2b09      	cmp	r3, #9
   d91ce:	bf94      	ite	ls
   d91d0:	3330      	addls	r3, #48	; 0x30
   d91d2:	3337      	addhi	r3, #55	; 0x37
   d91d4:	b2db      	uxtb	r3, r3
   d91d6:	4621      	mov	r1, r4
   d91d8:	f804 3901 	strb.w	r3, [r4], #-1
   d91dc:	462b      	mov	r3, r5
  *str = '\0';

  // prevent crash if called with base == 1
  if (base < 2) base = 10;

  do {
   d91de:	2d00      	cmp	r5, #0
   d91e0:	d1ee      	bne.n	d91c0 <_ZN5Print11printNumberEmh+0x16>
   n /= base;
   char c = m - base * n;
   *--str = c < 10 ? c + '0' : c + 'A' - 10;
  } while(n);

  return write(str);
   d91e2:	f7fe f9bb 	bl	d755c <_ZN5Print5writeEPKc>
}
   d91e6:	b00b      	add	sp, #44	; 0x2c
   d91e8:	bd30      	pop	{r4, r5, pc}

000d91ea <_ZN5Print11printf_implEbPKcz>:

  return n;
}

size_t Print::printf_impl(bool newline, const char* format, ...)
{
   d91ea:	b40c      	push	{r2, r3}
   d91ec:	e92d 43f0 	stmdb	sp!, {r4, r5, r6, r7, r8, r9, lr}
   d91f0:	b087      	sub	sp, #28
   d91f2:	af00      	add	r7, sp, #0
   d91f4:	f107 0438 	add.w	r4, r7, #56	; 0x38
   d91f8:	4605      	mov	r5, r0
   d91fa:	f854 9b04 	ldr.w	r9, [r4], #4
    const int bufsize = 20;
    char test[bufsize];
    va_list marker;
    va_start(marker, format);
   d91fe:	603c      	str	r4, [r7, #0]

  return n;
}

size_t Print::printf_impl(bool newline, const char* format, ...)
{
   d9200:	460e      	mov	r6, r1
    const int bufsize = 20;
    char test[bufsize];
    va_list marker;
    va_start(marker, format);
    size_t n = vsnprintf(test, bufsize, format, marker);
   d9202:	4623      	mov	r3, r4
   d9204:	464a      	mov	r2, r9
   d9206:	2114      	movs	r1, #20
   d9208:	1d38      	adds	r0, r7, #4
   d920a:	f7ff fcff 	bl	d8c0c <vsnprintf>
    va_end(marker);

    if (n<bufsize)
   d920e:	2813      	cmp	r0, #19
   d9210:	d805      	bhi.n	d921e <_ZN5Print11printf_implEbPKcz+0x34>
  return n;
}

size_t Print::print(const char str[])
{
  return write(str);
   d9212:	1d39      	adds	r1, r7, #4
   d9214:	4628      	mov	r0, r5
   d9216:	f7fe f9a1 	bl	d755c <_ZN5Print5writeEPKc>
   d921a:	4604      	mov	r4, r0
   d921c:	e013      	b.n	d9246 <_ZN5Print11printf_implEbPKcz+0x5c>
    {
        n = print(test);
    }
    else
    {
        char bigger[n+1];
   d921e:	f100 0308 	add.w	r3, r0, #8
   d9222:	f023 0307 	bic.w	r3, r3, #7
        va_start(marker, format);
        n = vsnprintf(bigger, n+1, format, marker);
        va_end(marker);
        n = print(bigger);
   d9226:	46e8      	mov	r8, sp
    {
        n = print(test);
    }
    else
    {
        char bigger[n+1];
   d9228:	ebad 0d03 	sub.w	sp, sp, r3
        va_start(marker, format);
        n = vsnprintf(bigger, n+1, format, marker);
   d922c:	1c41      	adds	r1, r0, #1
   d922e:	4623      	mov	r3, r4
   d9230:	464a      	mov	r2, r9
   d9232:	4668      	mov	r0, sp
        n = print(test);
    }
    else
    {
        char bigger[n+1];
        va_start(marker, format);
   d9234:	603c      	str	r4, [r7, #0]
        n = vsnprintf(bigger, n+1, format, marker);
   d9236:	f7ff fce9 	bl	d8c0c <vsnprintf>
  return n;
}

size_t Print::print(const char str[])
{
  return write(str);
   d923a:	4669      	mov	r1, sp
   d923c:	4628      	mov	r0, r5
   d923e:	f7fe f98d 	bl	d755c <_ZN5Print5writeEPKc>
   d9242:	4604      	mov	r4, r0
   d9244:	46c5      	mov	sp, r8
        va_start(marker, format);
        n = vsnprintf(bigger, n+1, format, marker);
        va_end(marker);
        n = print(bigger);
    }
    if (newline)
   d9246:	b11e      	cbz	r6, d9250 <_ZN5Print11printf_implEbPKcz+0x66>
        n += println();
   d9248:	4628      	mov	r0, r5
   d924a:	f7ff ff98 	bl	d917e <_ZN5Print7printlnEv>
   d924e:	4404      	add	r4, r0
    return n;
}
   d9250:	4620      	mov	r0, r4
   d9252:	371c      	adds	r7, #28
   d9254:	46bd      	mov	sp, r7
   d9256:	e8bd 43f0 	ldmia.w	sp!, {r4, r5, r6, r7, r8, r9, lr}
   d925a:	b002      	add	sp, #8
   d925c:	4770      	bx	lr
	...

000d9260 <_GLOBAL__sub_I__ZN5spark3LogE>:
    // This handler doesn't support direct logging
}

// spark::Logger
inline spark::Logger::Logger(const char *name) :
        name_(name) {
   d9260:	4b01      	ldr	r3, [pc, #4]	; (d9268 <_GLOBAL__sub_I__ZN5spark3LogE+0x8>)
   d9262:	4a02      	ldr	r2, [pc, #8]	; (d926c <_GLOBAL__sub_I__ZN5spark3LogE+0xc>)
   d9264:	601a      	str	r2, [r3, #0]
   d9266:	4770      	bx	lr
   d9268:	2003e0a0 	.word	0x2003e0a0
   d926c:	000dc027 	.word	0x000dc027

000d9270 <_ZL22Refresh_UnixTime_Cachel>:
}
*/

/* Refresh Unix/RTC time cache */
static void Refresh_UnixTime_Cache(time_t unix_time)
{
   d9270:	b5f0      	push	{r4, r5, r6, r7, lr}
    unix_time += time_zone_cache;
   d9272:	4b14      	ldr	r3, [pc, #80]	; (d92c4 <_ZL22Refresh_UnixTime_Cachel+0x54>)
    unix_time += dst_current_cache;
    if(unix_time != unix_time_cache)
   d9274:	4f14      	ldr	r7, [pc, #80]	; (d92c8 <_ZL22Refresh_UnixTime_Cachel+0x58>)
*/

/* Refresh Unix/RTC time cache */
static void Refresh_UnixTime_Cache(time_t unix_time)
{
    unix_time += time_zone_cache;
   d9276:	681e      	ldr	r6, [r3, #0]
    unix_time += dst_current_cache;
   d9278:	4b14      	ldr	r3, [pc, #80]	; (d92cc <_ZL22Refresh_UnixTime_Cachel+0x5c>)
*/

/* Refresh Unix/RTC time cache */
static void Refresh_UnixTime_Cache(time_t unix_time)
{
    unix_time += time_zone_cache;
   d927a:	4406      	add	r6, r0
    unix_time += dst_current_cache;
   d927c:	6818      	ldr	r0, [r3, #0]
    if(unix_time != unix_time_cache)
   d927e:	683b      	ldr	r3, [r7, #0]

/* Refresh Unix/RTC time cache */
static void Refresh_UnixTime_Cache(time_t unix_time)
{
    unix_time += time_zone_cache;
    unix_time += dst_current_cache;
   d9280:	4406      	add	r6, r0
    if(unix_time != unix_time_cache)
   d9282:	429e      	cmp	r6, r3
}
*/

/* Refresh Unix/RTC time cache */
static void Refresh_UnixTime_Cache(time_t unix_time)
{
   d9284:	b08b      	sub	sp, #44	; 0x2c
    unix_time += time_zone_cache;
    unix_time += dst_current_cache;
    if(unix_time != unix_time_cache)
   d9286:	d01b      	beq.n	d92c0 <_ZL22Refresh_UnixTime_Cachel+0x50>
   d9288:	a80a      	add	r0, sp, #40	; 0x28
static struct tm Convert_UnixTime_To_CalendarTime(time_t unix_time)
{
	struct tm *calendar_time;
	calendar_time = localtime(&unix_time);
	calendar_time->tm_year += 1900;
	return *calendar_time;
   d928a:	ad01      	add	r5, sp, #4
   d928c:	f840 6d28 	str.w	r6, [r0, #-40]!

/* Convert Unix/RTC time to Calendar time */
static struct tm Convert_UnixTime_To_CalendarTime(time_t unix_time)
{
	struct tm *calendar_time;
	calendar_time = localtime(&unix_time);
   d9290:	f001 ff96 	bl	db1c0 <localtime>
	calendar_time->tm_year += 1900;
   d9294:	6943      	ldr	r3, [r0, #20]
   d9296:	f203 736c 	addw	r3, r3, #1900	; 0x76c
   d929a:	6143      	str	r3, [r0, #20]
	return *calendar_time;
   d929c:	4604      	mov	r4, r0
   d929e:	cc0f      	ldmia	r4!, {r0, r1, r2, r3}
   d92a0:	c50f      	stmia	r5!, {r0, r1, r2, r3}
   d92a2:	cc0f      	ldmia	r4!, {r0, r1, r2, r3}
   d92a4:	c50f      	stmia	r5!, {r0, r1, r2, r3}
   d92a6:	f8d4 e000 	ldr.w	lr, [r4]
   d92aa:	f8c5 e000 	str.w	lr, [r5]
{
    unix_time += time_zone_cache;
    unix_time += dst_current_cache;
    if(unix_time != unix_time_cache)
    {
            calendar_time_cache = Convert_UnixTime_To_CalendarTime(unix_time);
   d92ae:	ad01      	add	r5, sp, #4
   d92b0:	cd0f      	ldmia	r5!, {r0, r1, r2, r3}
   d92b2:	4c07      	ldr	r4, [pc, #28]	; (d92d0 <_ZL22Refresh_UnixTime_Cachel+0x60>)
   d92b4:	c40f      	stmia	r4!, {r0, r1, r2, r3}
   d92b6:	cd0f      	ldmia	r5!, {r0, r1, r2, r3}
   d92b8:	c40f      	stmia	r4!, {r0, r1, r2, r3}
            unix_time_cache = unix_time;
   d92ba:	603e      	str	r6, [r7, #0]
{
    unix_time += time_zone_cache;
    unix_time += dst_current_cache;
    if(unix_time != unix_time_cache)
    {
            calendar_time_cache = Convert_UnixTime_To_CalendarTime(unix_time);
   d92bc:	f8c4 e000 	str.w	lr, [r4]
            unix_time_cache = unix_time;
    }
}
   d92c0:	b00b      	add	sp, #44	; 0x2c
   d92c2:	bdf0      	pop	{r4, r5, r6, r7, pc}
   d92c4:	2003e0d4 	.word	0x2003e0d4
   d92c8:	2003e0d0 	.word	0x2003e0d0
   d92cc:	2003e0cc 	.word	0x2003e0cc
   d92d0:	2003e0a4 	.word	0x2003e0a4

000d92d4 <_ZN10CloudClass12syncTimeDoneEv.isra.1>:
    bool syncTimePending(void)
    {
        return connected() && spark_sync_time_pending(nullptr);
    }

    bool syncTimeDone(void)
   d92d4:	b508      	push	{r3, lr}
    {
        return !spark_sync_time_pending(nullptr) || disconnected();
   d92d6:	2000      	movs	r0, #0
   d92d8:	f7ff fc60 	bl	d8b9c <spark_sync_time_pending>
   d92dc:	b128      	cbz	r0, d92ea <_ZN10CloudClass12syncTimeDoneEv.isra.1+0x16>
    static void sleep(Spark_Sleep_TypeDef sleepMode, long seconds=0) __attribute__ ((deprecated("Please use System.sleep() instead.")))
    { SystemClass::sleep(sleepMode, seconds); }
    static void sleep(uint16_t wakeUpPin, InterruptMode edgeTriggerMode, long seconds=0) __attribute__ ((deprecated("Please use System.sleep() instead.")))
    { SystemClass::sleep(wakeUpPin, edgeTriggerMode, seconds); }

    static bool connected(void) { return spark_cloud_flag_connected(); }
   d92de:	f7ff fc45 	bl	d8b6c <spark_cloud_flag_connected>
        return connected() && spark_sync_time_pending(nullptr);
    }

    bool syncTimeDone(void)
    {
        return !spark_sync_time_pending(nullptr) || disconnected();
   d92e2:	f080 0001 	eor.w	r0, r0, #1
   d92e6:	b2c0      	uxtb	r0, r0
   d92e8:	bd08      	pop	{r3, pc}
   d92ea:	2001      	movs	r0, #1
    }
   d92ec:	bd08      	pop	{r3, pc}

000d92ee <_ZN9TimeClass7isValidEv>:
    strftime(buf, 50, format_str, calendar_time);
    return String(buf);
}

bool TimeClass::isValid()
{
   d92ee:	b510      	push	{r4, lr}
    bool rtcstate = HAL_RTC_Time_Is_Valid(nullptr);
   d92f0:	2000      	movs	r0, #0
   d92f2:	f7ff fa17 	bl	d8724 <HAL_RTC_Time_Is_Valid>
    if (rtcstate)
   d92f6:	4604      	mov	r4, r0
   d92f8:	b968      	cbnz	r0, d9316 <_ZN9TimeClass7isValidEv+0x28>
    }

    static System_Mode_TypeDef mode(void) {
        return system_mode();
   d92fa:	f7ff fba3 	bl	d8a44 <system_mode>
        return rtcstate;
    if (System.mode() == AUTOMATIC && system_thread_get_state(nullptr) == spark::feature::DISABLED)
   d92fe:	2801      	cmp	r0, #1
   d9300:	d10b      	bne.n	d931a <_ZN9TimeClass7isValidEv+0x2c>
   d9302:	4620      	mov	r0, r4
   d9304:	f7ff fbbe 	bl	d8a84 <system_thread_get_state>
   d9308:	b938      	cbnz	r0, d931a <_ZN9TimeClass7isValidEv+0x2c>
    {
        waitUntil(Particle.syncTimeDone);
   d930a:	f7ff ffe3 	bl	d92d4 <_ZN10CloudClass12syncTimeDoneEv.isra.1>


    static uint32_t freeMemory();

    template<typename Condition, typename While> static bool waitConditionWhile(Condition _condition, While _while) {
        while (_while() && !_condition()) {
   d930e:	b930      	cbnz	r0, d931e <_ZN9TimeClass7isValidEv+0x30>
            spark_process();
   d9310:	f7ff fc24 	bl	d8b5c <spark_process>
   d9314:	e7f9      	b.n	d930a <_ZN9TimeClass7isValidEv+0x1c>

bool TimeClass::isValid()
{
    bool rtcstate = HAL_RTC_Time_Is_Valid(nullptr);
    if (rtcstate)
        return rtcstate;
   d9316:	2001      	movs	r0, #1
   d9318:	bd10      	pop	{r4, pc}
    if (System.mode() == AUTOMATIC && system_thread_get_state(nullptr) == spark::feature::DISABLED)
    {
        waitUntil(Particle.syncTimeDone);
        return HAL_RTC_Time_Is_Valid(nullptr);
    }
    return rtcstate;
   d931a:	2000      	movs	r0, #0
   d931c:	bd10      	pop	{r4, pc}
    bool rtcstate = HAL_RTC_Time_Is_Valid(nullptr);
    if (rtcstate)
        return rtcstate;
    if (System.mode() == AUTOMATIC && system_thread_get_state(nullptr) == spark::feature::DISABLED)
    {
        waitUntil(Particle.syncTimeDone);
   d931e:	f7ff ffd9 	bl	d92d4 <_ZN10CloudClass12syncTimeDoneEv.isra.1>
        return HAL_RTC_Time_Is_Valid(nullptr);
   d9322:	2000      	movs	r0, #0
   d9324:	f7ff f9fe 	bl	d8724 <HAL_RTC_Time_Is_Valid>
   d9328:	3000      	adds	r0, #0
   d932a:	bf18      	it	ne
   d932c:	2001      	movne	r0, #1
    }
    return rtcstate;
}
   d932e:	bd10      	pop	{r4, pc}

000d9330 <_ZN9TimeClass3nowEv>:
	return calendar_time_cache.tm_year;
}

/* return the current time as seconds since Jan 1 1970 */
time_t TimeClass::now()
{
   d9330:	b508      	push	{r3, lr}
    (void)isValid();
   d9332:	f7ff ffdc 	bl	d92ee <_ZN9TimeClass7isValidEv>
	return HAL_RTC_Get_UnixTime();
}
   d9336:	e8bd 4008 	ldmia.w	sp!, {r3, lr}

/* return the current time as seconds since Jan 1 1970 */
time_t TimeClass::now()
{
    (void)isValid();
	return HAL_RTC_Get_UnixTime();
   d933a:	f7ff b9d3 	b.w	d86e4 <HAL_RTC_Get_UnixTime>
	...

000d9340 <_ZN9TimeClass4hourEv>:

const char* TimeClass::format_spec = TIME_FORMAT_DEFAULT;

/* current hour */
int TimeClass::hour()
{
   d9340:	b508      	push	{r3, lr}
	return hour(now());
   d9342:	f7ff fff5 	bl	d9330 <_ZN9TimeClass3nowEv>
}

/* the hour for the given time */
int TimeClass::hour(time_t t)
{
	Refresh_UnixTime_Cache(t);
   d9346:	f7ff ff93 	bl	d9270 <_ZL22Refresh_UnixTime_Cachel>

/* current hour */
int TimeClass::hour()
{
	return hour(now());
}
   d934a:	4b01      	ldr	r3, [pc, #4]	; (d9350 <_ZN9TimeClass4hourEv+0x10>)
   d934c:	6898      	ldr	r0, [r3, #8]
   d934e:	bd08      	pop	{r3, pc}
   d9350:	2003e0a4 	.word	0x2003e0a4

000d9354 <_GLOBAL__sub_I_TIME_FORMAT_DEFAULT>:
            calendar_time_cache = Convert_UnixTime_To_CalendarTime(unix_time);
            unix_time_cache = unix_time;
    }
}

const char* TimeClass::format_spec = TIME_FORMAT_DEFAULT;
   d9354:	4b02      	ldr	r3, [pc, #8]	; (d9360 <_GLOBAL__sub_I_TIME_FORMAT_DEFAULT+0xc>)
   d9356:	681a      	ldr	r2, [r3, #0]
   d9358:	4b02      	ldr	r3, [pc, #8]	; (d9364 <_GLOBAL__sub_I_TIME_FORMAT_DEFAULT+0x10>)
   d935a:	601a      	str	r2, [r3, #0]
   d935c:	4770      	bx	lr
   d935e:	bf00      	nop
   d9360:	2003d904 	.word	0x2003d904
   d9364:	2003e0c8 	.word	0x2003e0c8

000d9368 <delay>:
    return (value - fromStart) * (toEnd - toStart) / (fromEnd - fromStart) + toStart;
}

void delay(unsigned long ms)
{
    system_delay_ms(ms, false);
   d9368:	2100      	movs	r1, #0
   d936a:	f7ff bb7b 	b.w	d8a64 <system_delay_ms>

000d936e <_ZN8RGBClassD1Ev>:
#include "rgbled.h"

typedef void (raw_rgb_change_handler_t)(uint8_t, uint8_t, uint8_t);
typedef std::function<raw_rgb_change_handler_t> wiring_rgb_change_handler_t;

class RGBClass {
   d936e:	b510      	push	{r4, lr}
   d9370:	4604      	mov	r4, r0
   d9372:	f7fb ffa7 	bl	d52c4 <_ZNSt14_Function_baseD1Ev>
   d9376:	4620      	mov	r0, r4
   d9378:	bd10      	pop	{r4, pc}
	...

000d937c <_GLOBAL__sub_I_RGB>:
	{
	  _Base::_M_init_functor(__functor, std::__addressof(__f.get()));
	}
      };

    _Function_base() : _M_manager(nullptr) { }
   d937c:	4803      	ldr	r0, [pc, #12]	; (d938c <_GLOBAL__sub_I_RGB+0x10>)
#include "spark_wiring_rgb.h"
#include "spark_wiring_interrupts.h"

#include "core_hal.h"

RGBClass RGB;
   d937e:	4a04      	ldr	r2, [pc, #16]	; (d9390 <_GLOBAL__sub_I_RGB+0x14>)
   d9380:	4904      	ldr	r1, [pc, #16]	; (d9394 <_GLOBAL__sub_I_RGB+0x18>)
   d9382:	2300      	movs	r3, #0
   d9384:	6083      	str	r3, [r0, #8]
   d9386:	f001 b989 	b.w	da69c <__aeabi_atexit>
   d938a:	bf00      	nop
   d938c:	2003e0d8 	.word	0x2003e0d8
   d9390:	2003d9bc 	.word	0x2003d9bc
   d9394:	000d936f 	.word	0x000d936f

000d9398 <_ZNK14CellularSignal19getAccessTechnologyEv>:
}

hal_net_access_tech_t CellularSignal::getAccessTechnology() const
{
    return static_cast<hal_net_access_tech_t>(sig_.rat);
}
   d9398:	7d00      	ldrb	r0, [r0, #20]
   d939a:	4770      	bx	lr

000d939c <_ZNK14CellularSignal16getStrengthValueEv>:
    return -1.0f;
}

float CellularSignal::getStrengthValue() const
{
    if (sig_.rat != NET_ACCESS_TECHNOLOGY_NONE && sig_.rssi != std::numeric_limits<int32_t>::min()) {
   d939c:	7d03      	ldrb	r3, [r0, #20]
   d939e:	b11b      	cbz	r3, d93a8 <_ZNK14CellularSignal16getStrengthValueEv+0xc>
   d93a0:	6983      	ldr	r3, [r0, #24]
   d93a2:	f1b3 4f00 	cmp.w	r3, #2147483648	; 0x80000000
   d93a6:	d102      	bne.n	d93ae <_ZNK14CellularSignal16getStrengthValueEv+0x12>
        return (float)sig_.rssi / 100.0f;
    }

    return 0.0f;
   d93a8:	ed9f 0a05 	vldr	s0, [pc, #20]	; d93c0 <_ZNK14CellularSignal16getStrengthValueEv+0x24>
   d93ac:	4770      	bx	lr
}

float CellularSignal::getStrengthValue() const
{
    if (sig_.rat != NET_ACCESS_TECHNOLOGY_NONE && sig_.rssi != std::numeric_limits<int32_t>::min()) {
        return (float)sig_.rssi / 100.0f;
   d93ae:	ee07 3a90 	vmov	s15, r3
   d93b2:	ed9f 7a04 	vldr	s14, [pc, #16]	; d93c4 <_ZNK14CellularSignal16getStrengthValueEv+0x28>
   d93b6:	eef8 7ae7 	vcvt.f32.s32	s15, s15
   d93ba:	ee87 0a87 	vdiv.f32	s0, s15, s14
    }

    return 0.0f;
}
   d93be:	4770      	bx	lr
   d93c0:	00000000 	.word	0x00000000
   d93c4:	42c80000 	.word	0x42c80000

000d93c8 <_ZNK14CellularSignal15getQualityValueEv>:
    return -1.0f;
}

float CellularSignal::getQualityValue() const
{
    if (sig_.rat != NET_ACCESS_TECHNOLOGY_NONE && sig_.qual != std::numeric_limits<int32_t>::min()) {
   d93c8:	7d03      	ldrb	r3, [r0, #20]
   d93ca:	b11b      	cbz	r3, d93d4 <_ZNK14CellularSignal15getQualityValueEv+0xc>
   d93cc:	6a03      	ldr	r3, [r0, #32]
   d93ce:	f1b3 4f00 	cmp.w	r3, #2147483648	; 0x80000000
   d93d2:	d102      	bne.n	d93da <_ZNK14CellularSignal15getQualityValueEv+0x12>
        return (float)sig_.qual / 100.0f;
    }

    return 0.0f;
   d93d4:	ed9f 0a05 	vldr	s0, [pc, #20]	; d93ec <_ZNK14CellularSignal15getQualityValueEv+0x24>
   d93d8:	4770      	bx	lr
}

float CellularSignal::getQualityValue() const
{
    if (sig_.rat != NET_ACCESS_TECHNOLOGY_NONE && sig_.qual != std::numeric_limits<int32_t>::min()) {
        return (float)sig_.qual / 100.0f;
   d93da:	ee07 3a90 	vmov	s15, r3
   d93de:	ed9f 7a04 	vldr	s14, [pc, #16]	; d93f0 <_ZNK14CellularSignal15getQualityValueEv+0x28>
   d93e2:	eef8 7ae7 	vcvt.f32.s32	s15, s15
   d93e6:	ee87 0a87 	vdiv.f32	s0, s15, s14
    }

    return 0.0f;
}
   d93ea:	4770      	bx	lr
   d93ec:	00000000 	.word	0x00000000
   d93f0:	42c80000 	.word	0x42c80000

000d93f4 <_ZNK14CellularSignal10getQualityEv>:
    return 0.0f;
}

float CellularSignal::getQuality() const
{
    if (sig_.rat != NET_ACCESS_TECHNOLOGY_NONE && sig_.quality >= 0) {
   d93f4:	7d03      	ldrb	r3, [r0, #20]
   d93f6:	b17b      	cbz	r3, d9418 <_ZNK14CellularSignal10getQualityEv+0x24>
   d93f8:	6a43      	ldr	r3, [r0, #36]	; 0x24
   d93fa:	2b00      	cmp	r3, #0
   d93fc:	db0c      	blt.n	d9418 <_ZNK14CellularSignal10getQualityEv+0x24>
        return (float)sig_.quality / 65535.0f * 100.0f;
   d93fe:	ee07 3a90 	vmov	s15, r3
   d9402:	eddf 6a07 	vldr	s13, [pc, #28]	; d9420 <_ZNK14CellularSignal10getQualityEv+0x2c>
   d9406:	ed9f 0a07 	vldr	s0, [pc, #28]	; d9424 <_ZNK14CellularSignal10getQualityEv+0x30>
   d940a:	eeb8 7ae7 	vcvt.f32.s32	s14, s15
   d940e:	eec7 7a26 	vdiv.f32	s15, s14, s13
   d9412:	ee27 0a80 	vmul.f32	s0, s15, s0
   d9416:	4770      	bx	lr
    }

    return -1.0f;
   d9418:	eebf 0a00 	vmov.f32	s0, #240	; 0xbf800000 -1.0
}
   d941c:	4770      	bx	lr
   d941e:	bf00      	nop
   d9420:	477fff00 	.word	0x477fff00
   d9424:	42c80000 	.word	0x42c80000

000d9428 <_ZNK14CellularSignal11getStrengthEv>:
    return static_cast<hal_net_access_tech_t>(sig_.rat);
}

float CellularSignal::getStrength() const
{
    if (sig_.rat != NET_ACCESS_TECHNOLOGY_NONE && sig_.strength >= 0) {
   d9428:	7d03      	ldrb	r3, [r0, #20]
   d942a:	b17b      	cbz	r3, d944c <_ZNK14CellularSignal11getStrengthEv+0x24>
   d942c:	69c3      	ldr	r3, [r0, #28]
   d942e:	2b00      	cmp	r3, #0
   d9430:	db0c      	blt.n	d944c <_ZNK14CellularSignal11getStrengthEv+0x24>
        return (float)sig_.strength / 65535.0f * 100.0f;
   d9432:	ee07 3a90 	vmov	s15, r3
   d9436:	eddf 6a07 	vldr	s13, [pc, #28]	; d9454 <_ZNK14CellularSignal11getStrengthEv+0x2c>
   d943a:	ed9f 0a07 	vldr	s0, [pc, #28]	; d9458 <_ZNK14CellularSignal11getStrengthEv+0x30>
   d943e:	eeb8 7ae7 	vcvt.f32.s32	s14, s15
   d9442:	eec7 7a26 	vdiv.f32	s15, s14, s13
   d9446:	ee27 0a80 	vmul.f32	s0, s15, s0
   d944a:	4770      	bx	lr
    }

    return -1.0f;
   d944c:	eebf 0a00 	vmov.f32	s0, #240	; 0xbf800000 -1.0
}
   d9450:	4770      	bx	lr
   d9452:	bf00      	nop
   d9454:	477fff00 	.word	0x477fff00
   d9458:	42c80000 	.word	0x42c80000

000d945c <_ZN5Print5printIiLi0EEEjT_i>:

};

template <typename T, std::enable_if_t<std::is_integral<T>::value || std::is_convertible<T, unsigned long long>::value ||
    std::is_convertible<T, long long>::value, int>>
size_t Print::print(T n, int base)
   d945c:	e92d 41f0 	stmdb	sp!, {r4, r5, r6, r7, r8, lr}
   d9460:	4607      	mov	r7, r0
   d9462:	460c      	mov	r4, r1
{
    if (base == 0) {
   d9464:	4615      	mov	r5, r2
   d9466:	b92a      	cbnz	r2, d9474 <_ZN5Print5printIiLi0EEEjT_i+0x18>
        return write(n);
   d9468:	6803      	ldr	r3, [r0, #0]
   d946a:	b2c9      	uxtb	r1, r1
   d946c:	689b      	ldr	r3, [r3, #8]
        } else {
            val = n;
        }
        return printNumber(val, base) + t;
    }
}
   d946e:	e8bd 41f0 	ldmia.w	sp!, {r4, r5, r6, r7, r8, lr}
template <typename T, std::enable_if_t<std::is_integral<T>::value || std::is_convertible<T, unsigned long long>::value ||
    std::is_convertible<T, long long>::value, int>>
size_t Print::print(T n, int base)
{
    if (base == 0) {
        return write(n);
   d9472:	4718      	bx	r3
    } else {
        size_t t = 0;
        using PrintNumberType = typename PrintNumberTypeSelector<T>::type;
        PrintNumberType val;
        if (n < 0 && base == 10) {
   d9474:	2900      	cmp	r1, #0
   d9476:	da07      	bge.n	d9488 <_ZN5Print5printIiLi0EEEjT_i+0x2c>
   d9478:	2a0a      	cmp	r2, #10
   d947a:	d105      	bne.n	d9488 <_ZN5Print5printIiLi0EEEjT_i+0x2c>
            t = print('-');
   d947c:	212d      	movs	r1, #45	; 0x2d
   d947e:	f7ff fe7b 	bl	d9178 <_ZN5Print5printEc>
            val = -n;
   d9482:	4261      	negs	r1, r4
    } else {
        size_t t = 0;
        using PrintNumberType = typename PrintNumberTypeSelector<T>::type;
        PrintNumberType val;
        if (n < 0 && base == 10) {
            t = print('-');
   d9484:	4606      	mov	r6, r0
            val = -n;
   d9486:	e001      	b.n	d948c <_ZN5Print5printIiLi0EEEjT_i+0x30>
        } else {
            val = n;
   d9488:	4621      	mov	r1, r4
size_t Print::print(T n, int base)
{
    if (base == 0) {
        return write(n);
    } else {
        size_t t = 0;
   d948a:	2600      	movs	r6, #0
            t = print('-');
            val = -n;
        } else {
            val = n;
        }
        return printNumber(val, base) + t;
   d948c:	b2ea      	uxtb	r2, r5
   d948e:	4638      	mov	r0, r7
   d9490:	f7ff fe8b 	bl	d91aa <_ZN5Print11printNumberEmh>
    }
}
   d9494:	4430      	add	r0, r6
   d9496:	e8bd 81f0 	ldmia.w	sp!, {r4, r5, r6, r7, r8, pc}

000d949a <_ZNK14CellularSignal7printToER5Print>:

    return 0.0f;
}

size_t CellularSignal::printTo(Print& p) const
{
   d949a:	b570      	push	{r4, r5, r6, lr}
   d949c:	460d      	mov	r5, r1
   d949e:	4606      	mov	r6, r0
    size_t n = 0;
    n += p.print((*this).rssi, DEC);
   d94a0:	220a      	movs	r2, #10
   d94a2:	6881      	ldr	r1, [r0, #8]
   d94a4:	4628      	mov	r0, r5
   d94a6:	f7ff ffd9 	bl	d945c <_ZN5Print5printIiLi0EEEjT_i>
    n += p.print(',');
   d94aa:	212c      	movs	r1, #44	; 0x2c
}

size_t CellularSignal::printTo(Print& p) const
{
    size_t n = 0;
    n += p.print((*this).rssi, DEC);
   d94ac:	4604      	mov	r4, r0
    n += p.print(',');
   d94ae:	4628      	mov	r0, r5
   d94b0:	f7ff fe62 	bl	d9178 <_ZN5Print5printEc>
    n += p.print((*this).qual, DEC);
   d94b4:	220a      	movs	r2, #10

size_t CellularSignal::printTo(Print& p) const
{
    size_t n = 0;
    n += p.print((*this).rssi, DEC);
    n += p.print(',');
   d94b6:	4404      	add	r4, r0
    n += p.print((*this).qual, DEC);
   d94b8:	68f1      	ldr	r1, [r6, #12]
   d94ba:	4628      	mov	r0, r5
   d94bc:	f7ff ffce 	bl	d945c <_ZN5Print5printIiLi0EEEjT_i>
    return n;
}
   d94c0:	4420      	add	r0, r4
   d94c2:	bd70      	pop	{r4, r5, r6, pc}

000d94c4 <_ZThn4_NK14CellularSignal7printToER5Print>:
    virtual float getStrength() const;
    virtual float getStrengthValue() const;
    virtual float getQuality() const;
    virtual float getQualityValue() const;

    virtual size_t printTo(Print& p) const;
   d94c4:	f1a0 0004 	sub.w	r0, r0, #4
   d94c8:	f7ff bfe7 	b.w	d949a <_ZNK14CellularSignal7printToER5Print>

000d94cc <_ZN9FuelGauge4lockEv>:
    i2c_.write(LSB);
    i2c_.endTransmission(true);
}

bool FuelGauge::lock() {
    return i2c_.lock();
   d94cc:	6800      	ldr	r0, [r0, #0]
   d94ce:	f000 bba2 	b.w	d9c16 <_ZN7TwoWire4lockEv>

000d94d2 <_ZN9FuelGaugeC1ER7TwoWireb>:
FuelGauge::FuelGauge(bool _lock)
        : FuelGauge(*fuelWireInstance(), _lock)
{
}

FuelGauge::FuelGauge(TwoWire& i2c, bool _lock)
   d94d2:	b510      	push	{r4, lr}
   d94d4:	4604      	mov	r4, r0
    : i2c_(i2c),
      lock_(_lock) {
   d94d6:	6001      	str	r1, [r0, #0]
   d94d8:	7102      	strb	r2, [r0, #4]

    if (lock_) {
   d94da:	b10a      	cbz	r2, d94e0 <_ZN9FuelGaugeC1ER7TwoWireb+0xe>
        lock();
   d94dc:	f7ff fff6 	bl	d94cc <_ZN9FuelGauge4lockEv>
    }
}
   d94e0:	4620      	mov	r0, r4
   d94e2:	bd10      	pop	{r4, pc}

000d94e4 <_ZN9FuelGaugeC1Eb>:
    return &Wire;
}

} // anonymous

FuelGauge::FuelGauge(bool _lock)
   d94e4:	b538      	push	{r3, r4, r5, lr}
   d94e6:	4604      	mov	r4, r0
   d94e8:	460d      	mov	r5, r1
        default: {
            return &Wire;
        }
#if Wiring_Wire1
        case HAL_I2C_INTERFACE2: {
            return &Wire1;
   d94ea:	f001 f8b1 	bl	da650 <_Z20__fetch_global_Wire1v>
}

} // anonymous

FuelGauge::FuelGauge(bool _lock)
        : FuelGauge(*fuelWireInstance(), _lock)
   d94ee:	462a      	mov	r2, r5
   d94f0:	4601      	mov	r1, r0
   d94f2:	4620      	mov	r0, r4
   d94f4:	f7ff ffed 	bl	d94d2 <_ZN9FuelGaugeC1ER7TwoWireb>
{
}
   d94f8:	4620      	mov	r0, r4
   d94fa:	bd38      	pop	{r3, r4, r5, pc}

000d94fc <_ZN9FuelGauge6unlockEv>:
bool FuelGauge::lock() {
    return i2c_.lock();
}

bool FuelGauge::unlock() {
	return i2c_.unlock();
   d94fc:	6800      	ldr	r0, [r0, #0]
   d94fe:	f000 bb93 	b.w	d9c28 <_ZN7TwoWire6unlockEv>

000d9502 <_ZN9FuelGaugeD1Ev>:
    if (lock_) {
        lock();
    }
}

FuelGauge::~FuelGauge()
   d9502:	b510      	push	{r4, lr}
{
    if (lock_) {
   d9504:	7903      	ldrb	r3, [r0, #4]
    if (lock_) {
        lock();
    }
}

FuelGauge::~FuelGauge()
   d9506:	4604      	mov	r4, r0
{
    if (lock_) {
   d9508:	b10b      	cbz	r3, d950e <_ZN9FuelGaugeD1Ev+0xc>
        unlock();
   d950a:	f7ff fff7 	bl	d94fc <_ZN9FuelGauge6unlockEv>
    }
}
   d950e:	4620      	mov	r0, r4
   d9510:	bd10      	pop	{r4, pc}

000d9512 <_ZN9FuelGauge12readRegisterEhRhS0_>:
void FuelGauge::readConfigRegister(byte &MSB, byte &LSB) {
	readRegister(CONFIG_REGISTER, MSB, LSB);
}


void FuelGauge::readRegister(byte startAddress, byte &MSB, byte &LSB) {
   d9512:	b5f8      	push	{r3, r4, r5, r6, r7, lr}
   d9514:	4604      	mov	r4, r0
   d9516:	4616      	mov	r6, r2
   d9518:	461d      	mov	r5, r3
   d951a:	460f      	mov	r7, r1
    {
    public:
      typedef _Mutex mutex_type;

      explicit lock_guard(mutex_type& __m) : _M_device(__m)
      { _M_device.lock(); }
   d951c:	f7ff ffd6 	bl	d94cc <_ZN9FuelGauge4lockEv>
    std::lock_guard<FuelGauge> l(*this);
    i2c_.beginTransmission(MAX17043_ADDRESS);
   d9520:	6820      	ldr	r0, [r4, #0]
   d9522:	2136      	movs	r1, #54	; 0x36
   d9524:	f000 fb6c 	bl	d9c00 <_ZN7TwoWire17beginTransmissionEi>
    i2c_.write(startAddress);
   d9528:	6820      	ldr	r0, [r4, #0]
   d952a:	6803      	ldr	r3, [r0, #0]
   d952c:	4639      	mov	r1, r7
   d952e:	689b      	ldr	r3, [r3, #8]
   d9530:	4798      	blx	r3
    i2c_.endTransmission(true);
   d9532:	2101      	movs	r1, #1
   d9534:	6820      	ldr	r0, [r4, #0]
   d9536:	f000 fb66 	bl	d9c06 <_ZN7TwoWire15endTransmissionEh>

    i2c_.requestFrom(MAX17043_ADDRESS, 2, true);
   d953a:	2202      	movs	r2, #2
   d953c:	2136      	movs	r1, #54	; 0x36
   d953e:	2301      	movs	r3, #1
   d9540:	6820      	ldr	r0, [r4, #0]
   d9542:	f000 fb47 	bl	d9bd4 <_ZN7TwoWire11requestFromEhjh>
    MSB = i2c_.read();
   d9546:	6820      	ldr	r0, [r4, #0]
   d9548:	6803      	ldr	r3, [r0, #0]
   d954a:	695b      	ldr	r3, [r3, #20]
   d954c:	4798      	blx	r3
   d954e:	7030      	strb	r0, [r6, #0]
    LSB = i2c_.read();
   d9550:	6820      	ldr	r0, [r4, #0]
   d9552:	6803      	ldr	r3, [r0, #0]
   d9554:	695b      	ldr	r3, [r3, #20]
   d9556:	4798      	blx	r3
   d9558:	7028      	strb	r0, [r5, #0]

      lock_guard(mutex_type& __m, adopt_lock_t) : _M_device(__m)
      { } // calling thread owns mutex

      ~lock_guard()
      { _M_device.unlock(); }
   d955a:	4620      	mov	r0, r4
}
   d955c:	e8bd 40f8 	ldmia.w	sp!, {r3, r4, r5, r6, r7, lr}
   d9560:	f7ff bfcc 	b.w	d94fc <_ZN9FuelGauge6unlockEv>

000d9564 <_ZN9FuelGauge6getSoCEv>:
	readRegister(VCELL_REGISTER, MSB, LSB);
	return detail::_getVCell(MSB, LSB);
}

// Read and return the state of charge of the cell
float FuelGauge::getSoC() {
   d9564:	b507      	push	{r0, r1, r2, lr}

	byte MSB = 0;
	byte LSB = 0;
   d9566:	ab02      	add	r3, sp, #8
}

// Read and return the state of charge of the cell
float FuelGauge::getSoC() {

	byte MSB = 0;
   d9568:	2200      	movs	r2, #0
	byte LSB = 0;
   d956a:	f803 2d01 	strb.w	r2, [r3, #-1]!
}

// Read and return the state of charge of the cell
float FuelGauge::getSoC() {

	byte MSB = 0;
   d956e:	f88d 2006 	strb.w	r2, [sp, #6]
	byte LSB = 0;

	readRegister(SOC_REGISTER, MSB, LSB);
   d9572:	2104      	movs	r1, #4
   d9574:	f10d 0206 	add.w	r2, sp, #6
   d9578:	f7ff ffcb 	bl	d9512 <_ZN9FuelGauge12readRegisterEhRhS0_>
	// Converts SOC_REGISTER reading to state of charge of the cell as a percentage
	float _getSoC(byte MSB, byte LSB) {
		// MSB is the whole number
		// LSB is the decimal, resolution in units 1/256%
		float decimal = LSB / 256.0;
		return MSB + decimal;
   d957c:	f89d 0007 	ldrb.w	r0, [sp, #7]
   d9580:	f001 fb48 	bl	dac14 <__aeabi_i2d>
   d9584:	2200      	movs	r2, #0
   d9586:	4b09      	ldr	r3, [pc, #36]	; (d95ac <_ZN9FuelGauge6getSoCEv+0x48>)
   d9588:	f001 fbaa 	bl	dace0 <__aeabi_dmul>
   d958c:	f001 fdba 	bl	db104 <__aeabi_d2f>
   d9590:	f89d 3006 	ldrb.w	r3, [sp, #6]
   d9594:	ee00 3a10 	vmov	s0, r3
	byte MSB = 0;
	byte LSB = 0;

	readRegister(SOC_REGISTER, MSB, LSB);
	return detail::_getSoC(MSB, LSB);
}
   d9598:	ee07 0a90 	vmov	s15, r0
	// Converts SOC_REGISTER reading to state of charge of the cell as a percentage
	float _getSoC(byte MSB, byte LSB) {
		// MSB is the whole number
		// LSB is the decimal, resolution in units 1/256%
		float decimal = LSB / 256.0;
		return MSB + decimal;
   d959c:	eeb8 0ac0 	vcvt.f32.s32	s0, s0
	byte MSB = 0;
	byte LSB = 0;

	readRegister(SOC_REGISTER, MSB, LSB);
	return detail::_getSoC(MSB, LSB);
}
   d95a0:	ee37 0a80 	vadd.f32	s0, s15, s0
   d95a4:	b003      	add	sp, #12
   d95a6:	f85d fb04 	ldr.w	pc, [sp], #4
   d95aa:	bf00      	nop
   d95ac:	3f700000 	.word	0x3f700000

000d95b0 <serialEventRun>:

/**
 * Provides background processing of serial data.
 */
void serialEventRun()
{
   d95b0:	b508      	push	{r3, lr}
    if (serialEvent && Serial.available()>0)
   d95b2:	4b0c      	ldr	r3, [pc, #48]	; (d95e4 <serialEventRun+0x34>)
   d95b4:	b133      	cbz	r3, d95c4 <serialEventRun+0x14>
   d95b6:	f000 f977 	bl	d98a8 <_Z16_fetch_usbserialv>
   d95ba:	6803      	ldr	r3, [r0, #0]
   d95bc:	691b      	ldr	r3, [r3, #16]
   d95be:	4798      	blx	r3
   d95c0:	2800      	cmp	r0, #0
   d95c2:	dc09      	bgt.n	d95d8 <serialEventRun+0x28>
        serialEvent();

    if (serialEvent1 && Serial1.available()>0)
   d95c4:	4b08      	ldr	r3, [pc, #32]	; (d95e8 <serialEventRun+0x38>)
   d95c6:	b163      	cbz	r3, d95e2 <serialEventRun+0x32>
   d95c8:	f000 fa84 	bl	d9ad4 <_Z22__fetch_global_Serial1v>
   d95cc:	6803      	ldr	r3, [r0, #0]
   d95ce:	691b      	ldr	r3, [r3, #16]
   d95d0:	4798      	blx	r3
   d95d2:	2800      	cmp	r0, #0
   d95d4:	dc03      	bgt.n	d95de <serialEventRun+0x2e>
   d95d6:	bd08      	pop	{r3, pc}
 * Provides background processing of serial data.
 */
void serialEventRun()
{
    if (serialEvent && Serial.available()>0)
        serialEvent();
   d95d8:	f3af 8000 	nop.w
   d95dc:	e7f2      	b.n	d95c4 <serialEventRun+0x14>

    if (serialEvent1 && Serial1.available()>0)
        serialEvent1();
   d95de:	f3af 8000 	nop.w
   d95e2:	bd08      	pop	{r3, pc}
	...

000d95ec <_post_loop>:
#if Wiring_Serial5
void serialEvent5() __attribute__((weak));
#endif

void _post_loop()
{
   d95ec:	b508      	push	{r3, lr}
	serialEventRun();
   d95ee:	f7ff ffdf 	bl	d95b0 <serialEventRun>
		return !timeout_fn;
	}

	static inline system_tick_t current_time()
	{
		return HAL_Timer_Get_Milli_Seconds();
   d95f2:	f7ff f86f 	bl	d86d4 <HAL_Timer_Get_Milli_Seconds>
	/**
	 * Lifesign that the application is still working normally.
	 */
	static void checkin()
	{
		last_checkin = current_time();
   d95f6:	4b01      	ldr	r3, [pc, #4]	; (d95fc <_post_loop+0x10>)
   d95f8:	6018      	str	r0, [r3, #0]
   d95fa:	bd08      	pop	{r3, pc}
   d95fc:	2003e4c4 	.word	0x2003e4c4

000d9600 <_Z33system_initialize_user_backup_ramv>:
 * the dynamically linked application module.
 */
void system_initialize_user_backup_ram()
{
    size_t len = &link_global_retained_end-&link_global_retained_start;
    memcpy(&link_global_retained_start, &link_global_retained_initial_values, len);
   d9600:	4802      	ldr	r0, [pc, #8]	; (d960c <_Z33system_initialize_user_backup_ramv+0xc>)
   d9602:	4a03      	ldr	r2, [pc, #12]	; (d9610 <_Z33system_initialize_user_backup_ramv+0x10>)
   d9604:	4903      	ldr	r1, [pc, #12]	; (d9614 <_Z33system_initialize_user_backup_ramv+0x14>)
   d9606:	1a12      	subs	r2, r2, r0
   d9608:	f001 bee1 	b.w	db3ce <memcpy>
   d960c:	2003f400 	.word	0x2003f400
   d9610:	2003f404 	.word	0x2003f404
   d9614:	000dc550 	.word	0x000dc550

000d9618 <_Z27ctrl_request_custom_handlerP12ctrl_request>:
bool __backup_ram_was_valid() { return false; }

#endif

// Default handler for CTRL_REQUEST_APP_CUSTOM requests
void __attribute((weak)) ctrl_request_custom_handler(ctrl_request* req) {
   d9618:	b507      	push	{r0, r1, r2, lr}
    system_ctrl_set_result(req, SYSTEM_ERROR_NOT_SUPPORTED, nullptr, nullptr, nullptr);
   d961a:	2300      	movs	r3, #0
   d961c:	9300      	str	r3, [sp, #0]
   d961e:	461a      	mov	r2, r3
   d9620:	f06f 0177 	mvn.w	r1, #119	; 0x77
   d9624:	f7ff fa40 	bl	d8aa8 <system_ctrl_set_result>
}
   d9628:	b003      	add	sp, #12
   d962a:	f85d fb04 	ldr.w	pc, [sp], #4
	...

000d9630 <_ZL20ctrl_request_handlerP12ctrl_request>:
// Callback invoked to process a logging configuration request
void(*log_process_ctrl_request_callback)(ctrl_request* req) = nullptr;
#endif

// Application handler for control requests
static void ctrl_request_handler(ctrl_request* req) {
   d9630:	b507      	push	{r0, r1, r2, lr}
    switch (req->type) {
   d9632:	8843      	ldrh	r3, [r0, #2]
   d9634:	2b0a      	cmp	r3, #10
   d9636:	d008      	beq.n	d964a <_ZL20ctrl_request_handlerP12ctrl_request+0x1a>
   d9638:	2b50      	cmp	r3, #80	; 0x50
   d963a:	d109      	bne.n	d9650 <_ZL20ctrl_request_handlerP12ctrl_request+0x20>
#if Wiring_LogConfig
    case CTRL_REQUEST_LOG_CONFIG: {
        if (log_process_ctrl_request_callback) {
   d963c:	4b09      	ldr	r3, [pc, #36]	; (d9664 <_ZL20ctrl_request_handlerP12ctrl_request+0x34>)
   d963e:	681b      	ldr	r3, [r3, #0]
   d9640:	b13b      	cbz	r3, d9652 <_ZL20ctrl_request_handlerP12ctrl_request+0x22>
    }
    default:
        system_ctrl_set_result(req, SYSTEM_ERROR_NOT_SUPPORTED, nullptr, nullptr, nullptr);
        break;
    }
}
   d9642:	b003      	add	sp, #12
   d9644:	f85d eb04 	ldr.w	lr, [sp], #4
static void ctrl_request_handler(ctrl_request* req) {
    switch (req->type) {
#if Wiring_LogConfig
    case CTRL_REQUEST_LOG_CONFIG: {
        if (log_process_ctrl_request_callback) {
            log_process_ctrl_request_callback(req);
   d9648:	4718      	bx	r3
        }
        break;
    }
#endif
    case CTRL_REQUEST_APP_CUSTOM: {
        ctrl_request_custom_handler(req);
   d964a:	f7ff ffe5 	bl	d9618 <_Z27ctrl_request_custom_handlerP12ctrl_request>
        break;
   d964e:	e006      	b.n	d965e <_ZL20ctrl_request_handlerP12ctrl_request+0x2e>
    }
    default:
        system_ctrl_set_result(req, SYSTEM_ERROR_NOT_SUPPORTED, nullptr, nullptr, nullptr);
   d9650:	2300      	movs	r3, #0
   d9652:	9300      	str	r3, [sp, #0]
   d9654:	461a      	mov	r2, r3
   d9656:	f06f 0177 	mvn.w	r1, #119	; 0x77
   d965a:	f7ff fa25 	bl	d8aa8 <system_ctrl_set_result>
        break;
    }
}
   d965e:	b003      	add	sp, #12
   d9660:	f85d fb04 	ldr.w	pc, [sp], #4
   d9664:	2003e0e8 	.word	0x2003e0e8

000d9668 <module_user_init_hook>:

void module_user_init_hook()
{
   d9668:	b538      	push	{r3, r4, r5, lr}
#if HAL_PLATFORM_BACKUP_RAM
    backup_ram_was_valid_ =  __backup_sram_signature==signature;
   d966a:	4c10      	ldr	r4, [pc, #64]	; (d96ac <module_user_init_hook+0x44>)
   d966c:	4d10      	ldr	r5, [pc, #64]	; (d96b0 <module_user_init_hook+0x48>)
   d966e:	6823      	ldr	r3, [r4, #0]
   d9670:	42ab      	cmp	r3, r5
   d9672:	4b10      	ldr	r3, [pc, #64]	; (d96b4 <module_user_init_hook+0x4c>)
   d9674:	bf0c      	ite	eq
   d9676:	2201      	moveq	r2, #1
   d9678:	2200      	movne	r2, #0
   d967a:	701a      	strb	r2, [r3, #0]
    if (!backup_ram_was_valid_) {
   d967c:	d002      	beq.n	d9684 <module_user_init_hook+0x1c>
        system_initialize_user_backup_ram();
   d967e:	f7ff ffbf 	bl	d9600 <_Z33system_initialize_user_backup_ramv>
        __backup_sram_signature = signature;
   d9682:	6025      	str	r5, [r4, #0]
    }
#endif

#if HAL_PLATFORM_RNG
    // Initialize the default stdlib PRNG using hardware RNG as a seed
    const uint32_t seed = HAL_RNG_GetRandomNumber();
   d9684:	f7ff f816 	bl	d86b4 <HAL_RNG_GetRandomNumber>
   d9688:	4604      	mov	r4, r0
    srand(seed);
   d968a:	f001 feb3 	bl	db3f4 <srand>

    // If the user defines random_seed_from_cloud, call it with a seed value
    // generated by a hardware RNG as well.
    if (random_seed_from_cloud) {
   d968e:	4b0a      	ldr	r3, [pc, #40]	; (d96b8 <module_user_init_hook+0x50>)
   d9690:	b113      	cbz	r3, d9698 <module_user_init_hook+0x30>
        random_seed_from_cloud(seed);
   d9692:	4620      	mov	r0, r4
   d9694:	f3af 8000 	nop.w
    }
#endif
    // Register the random_seed_from_cloud handler
    spark_set_random_seed_from_cloud_handler(&random_seed_from_cloud, nullptr);
   d9698:	2100      	movs	r1, #0
   d969a:	4807      	ldr	r0, [pc, #28]	; (d96b8 <module_user_init_hook+0x50>)
   d969c:	f7ff fa86 	bl	d8bac <spark_set_random_seed_from_cloud_handler>

    // Register application handler for the control requests
    system_ctrl_set_app_request_handler(ctrl_request_handler, nullptr);
   d96a0:	2100      	movs	r1, #0
   d96a2:	4806      	ldr	r0, [pc, #24]	; (d96bc <module_user_init_hook+0x54>)
}
   d96a4:	e8bd 4038 	ldmia.w	sp!, {r3, r4, r5, lr}
#endif
    // Register the random_seed_from_cloud handler
    spark_set_random_seed_from_cloud_handler(&random_seed_from_cloud, nullptr);

    // Register application handler for the control requests
    system_ctrl_set_app_request_handler(ctrl_request_handler, nullptr);
   d96a8:	f7ff b9f4 	b.w	d8a94 <system_ctrl_set_app_request_handler>
   d96ac:	2003f400 	.word	0x2003f400
   d96b0:	9a271c1e 	.word	0x9a271c1e
   d96b4:	2003e0ec 	.word	0x2003e0ec
   d96b8:	00000000 	.word	0x00000000
   d96bc:	000d9631 	.word	0x000d9631

000d96c0 <_ZN9IPAddressD1Ev>:
    IPAddress(uint8_t first_octet, uint8_t second_octet, uint8_t third_octet, uint8_t fourth_octet);
    IPAddress(uint32_t address);
    IPAddress(const uint8_t* address);
    IPAddress(const HAL_IPAddress& address);

    virtual ~IPAddress() {}
   d96c0:	4770      	bx	lr

000d96c2 <_ZN9IPAddressD0Ev>:
   d96c2:	b510      	push	{r4, lr}
   d96c4:	2118      	movs	r1, #24
   d96c6:	4604      	mov	r4, r0
   d96c8:	f000 fff6 	bl	da6b8 <_ZdlPvj>
   d96cc:	4620      	mov	r0, r4
   d96ce:	bd10      	pop	{r4, pc}

000d96d0 <_ZNK9IPAddress7printToER5Print>:
#endif // Wiring_IPv6
	return address.ipv4==that.address.ipv4;
}

size_t IPAddress::printTo(Print& p) const
{
   d96d0:	b5f0      	push	{r4, r5, r6, r7, lr}
#if Wiring_IPv6
#if HAL_USE_INET_HAL_POSIX
	if (address.v==6) {
   d96d2:	7d03      	ldrb	r3, [r0, #20]
   d96d4:	2b06      	cmp	r3, #6
#endif // Wiring_IPv6
	return address.ipv4==that.address.ipv4;
}

size_t IPAddress::printTo(Print& p) const
{
   d96d6:	b08d      	sub	sp, #52	; 0x34
   d96d8:	460e      	mov	r6, r1
   d96da:	f100 0704 	add.w	r7, r0, #4
   d96de:	f04f 0400 	mov.w	r4, #0
#if Wiring_IPv6
#if HAL_USE_INET_HAL_POSIX
	if (address.v==6) {
   d96e2:	d002      	beq.n	d96ea <_ZNK9IPAddress7printToER5Print+0x1a>
   d96e4:	f100 0508 	add.w	r5, r0, #8
   d96e8:	e018      	b.n	d971c <_ZNK9IPAddress7printToER5Print+0x4c>
		char buf[INET6_ADDRSTRLEN+1];
		buf[0] = 0;
   d96ea:	ad0c      	add	r5, sp, #48	; 0x30
		inet_inet_ntop(AF_INET6, address.ipv6, buf, sizeof(buf));
   d96ec:	4639      	mov	r1, r7
{
#if Wiring_IPv6
#if HAL_USE_INET_HAL_POSIX
	if (address.v==6) {
		char buf[INET6_ADDRSTRLEN+1];
		buf[0] = 0;
   d96ee:	f805 4d30 	strb.w	r4, [r5, #-48]!
		inet_inet_ntop(AF_INET6, address.ipv6, buf, sizeof(buf));
   d96f2:	232f      	movs	r3, #47	; 0x2f
   d96f4:	462a      	mov	r2, r5
   d96f6:	200a      	movs	r0, #10
   d96f8:	f7ff f87c 	bl	d87f4 <inet_inet_ntop>
    void clearWriteError() { setWriteError(0); }

    virtual size_t write(uint8_t) = 0;
    size_t write(const char *str) {
      if (str == NULL) return 0;
      return write((const uint8_t *)str, strlen(str));
   d96fc:	4628      	mov	r0, r5
   d96fe:	f001 fec1 	bl	db484 <strlen>
   d9702:	6833      	ldr	r3, [r6, #0]
   d9704:	4602      	mov	r2, r0
   d9706:	68db      	ldr	r3, [r3, #12]
   d9708:	4629      	mov	r1, r5
   d970a:	4630      	mov	r0, r6
   d970c:	4798      	blx	r3
   d970e:	e00f      	b.n	d9730 <_ZNK9IPAddress7printToER5Print+0x60>
#endif // HAL_USE_INET_HAL_POSIX
#endif // Wiring_IPv6
    size_t n = 0;
    for (int i = 0; i < 4; i++)
    {
        if (n)
   d9710:	b124      	cbz	r4, d971c <_ZNK9IPAddress7printToER5Print+0x4c>
            n += p.print('.');
   d9712:	212e      	movs	r1, #46	; 0x2e
   d9714:	4630      	mov	r0, r6
   d9716:	f7ff fd2f 	bl	d9178 <_ZN5Print5printEc>
   d971a:	4404      	add	r4, r0
            t = print('-');
            val = -n;
        } else {
            val = n;
        }
        return printNumber(val, base) + t;
   d971c:	f815 1d01 	ldrb.w	r1, [r5, #-1]!
   d9720:	220a      	movs	r2, #10
   d9722:	4630      	mov	r0, r6
   d9724:	f7ff fd41 	bl	d91aa <_ZN5Print11printNumberEmh>
#else
#pragma message "HAL_USE_INET_HAL_POSIX is required for IPv6 support in IPAddress::printTo()"
#endif // HAL_USE_INET_HAL_POSIX
#endif // Wiring_IPv6
    size_t n = 0;
    for (int i = 0; i < 4; i++)
   d9728:	42bd      	cmp	r5, r7
    {
        if (n)
            n += p.print('.');
        n += p.print((*this)[i], DEC);
   d972a:	4404      	add	r4, r0
#else
#pragma message "HAL_USE_INET_HAL_POSIX is required for IPv6 support in IPAddress::printTo()"
#endif // HAL_USE_INET_HAL_POSIX
#endif // Wiring_IPv6
    size_t n = 0;
    for (int i = 0; i < 4; i++)
   d972c:	d1f0      	bne.n	d9710 <_ZNK9IPAddress7printToER5Print+0x40>
    {
        if (n)
            n += p.print('.');
        n += p.print((*this)[i], DEC);
   d972e:	4620      	mov	r0, r4
    }
    return n;
}
   d9730:	b00d      	add	sp, #52	; 0x34
   d9732:	bdf0      	pop	{r4, r5, r6, r7, pc}

000d9734 <_ZN9IPAddressC1Ev>:

#if HAL_USE_INET_HAL_POSIX
#include <arpa/inet.h>
#endif // HAL_USE_INET_HAL_POSIX

IPAddress::IPAddress()
   d9734:	b510      	push	{r4, lr}
   d9736:	4b05      	ldr	r3, [pc, #20]	; (d974c <_ZN9IPAddressC1Ev+0x18>)
   d9738:	4604      	mov	r4, r0
        return address;
    }

    virtual size_t printTo(Print& p) const;

    void clear() { memset(&address, 0, sizeof (address)); }
   d973a:	2211      	movs	r2, #17
   d973c:	f840 3b04 	str.w	r3, [r0], #4
   d9740:	2100      	movs	r1, #0
   d9742:	f001 fe4f 	bl	db3e4 <memset>
{
    clear();
}
   d9746:	4620      	mov	r0, r4
   d9748:	bd10      	pop	{r4, pc}
   d974a:	bf00      	nop
   d974c:	000dc0f8 	.word	0x000dc0f8

000d9750 <_ZN9IPAddressC1ERK16_HAL_IPAddress_t>:

IPAddress::IPAddress(const HAL_IPAddress& address)
   d9750:	4603      	mov	r3, r0
   d9752:	4a07      	ldr	r2, [pc, #28]	; (d9770 <_ZN9IPAddressC1ERK16_HAL_IPAddress_t+0x20>)
   d9754:	b510      	push	{r4, lr}
   d9756:	f843 2b04 	str.w	r2, [r3], #4
{
    memcpy(&this->address, &address, sizeof(address));
   d975a:	f101 0210 	add.w	r2, r1, #16
   d975e:	f851 4b04 	ldr.w	r4, [r1], #4
   d9762:	f843 4b04 	str.w	r4, [r3], #4
   d9766:	4291      	cmp	r1, r2
   d9768:	d1f9      	bne.n	d975e <_ZN9IPAddressC1ERK16_HAL_IPAddress_t+0xe>
   d976a:	780a      	ldrb	r2, [r1, #0]
   d976c:	701a      	strb	r2, [r3, #0]
}
   d976e:	bd10      	pop	{r4, pc}
   d9770:	000dc0f8 	.word	0x000dc0f8

000d9774 <_ZNK9IPAddresscvbEv>:
{
    *this = address;
}

IPAddress::operator bool() const
{
   d9774:	7d03      	ldrb	r3, [r0, #20]
#if Wiring_IPv6
    if (version() == 4) {
   d9776:	2b04      	cmp	r3, #4
   d9778:	d101      	bne.n	d977e <_ZNK9IPAddresscvbEv+0xa>
        return address.ipv4 != 0;
   d977a:	6840      	ldr	r0, [r0, #4]
   d977c:	e008      	b.n	d9790 <_ZNK9IPAddresscvbEv+0x1c>
    } else if (version() == 6) {
   d977e:	2b06      	cmp	r3, #6
   d9780:	d10a      	bne.n	d9798 <_ZNK9IPAddresscvbEv+0x24>
        return address.ipv6[0] != 0 || address.ipv6[1] != 0 || address.ipv6[2] != 0 || address.ipv6[3] != 0;
   d9782:	6843      	ldr	r3, [r0, #4]
   d9784:	b953      	cbnz	r3, d979c <_ZNK9IPAddresscvbEv+0x28>
   d9786:	6883      	ldr	r3, [r0, #8]
   d9788:	b943      	cbnz	r3, d979c <_ZNK9IPAddresscvbEv+0x28>
   d978a:	68c3      	ldr	r3, [r0, #12]
   d978c:	b933      	cbnz	r3, d979c <_ZNK9IPAddresscvbEv+0x28>
   d978e:	6900      	ldr	r0, [r0, #16]
   d9790:	3000      	adds	r0, #0
   d9792:	bf18      	it	ne
   d9794:	2001      	movne	r0, #1
   d9796:	4770      	bx	lr
    } else {
        return false;
   d9798:	2000      	movs	r0, #0
   d979a:	4770      	bx	lr
{
#if Wiring_IPv6
    if (version() == 4) {
        return address.ipv4 != 0;
    } else if (version() == 6) {
        return address.ipv6[0] != 0 || address.ipv6[1] != 0 || address.ipv6[2] != 0 || address.ipv6[3] != 0;
   d979c:	2001      	movs	r0, #1
        return false;
    }
#else
    return address.ipv4!=0;
#endif
}
   d979e:	4770      	bx	lr

000d97a0 <_ZN9IPAddress8set_ipv4Ehhhh>:

void IPAddress::set_ipv4(uint8_t b0, uint8_t b1, uint8_t b2, uint8_t b3)
{
   d97a0:	b510      	push	{r4, lr}
    address.ipv4 = b0<<24 | b1 << 16 | b2 << 8 | b3;
   d97a2:	f89d 4008 	ldrb.w	r4, [sp, #8]
   d97a6:	ea44 2303 	orr.w	r3, r4, r3, lsl #8
   d97aa:	ea43 4202 	orr.w	r2, r3, r2, lsl #16
   d97ae:	ea42 6101 	orr.w	r1, r2, r1, lsl #24
        return &address;
    }

    inline void setVersion(uint8_t version) {
#if HAL_IPv6
        address.v = version;
   d97b2:	2304      	movs	r3, #4
   d97b4:	6041      	str	r1, [r0, #4]
   d97b6:	7503      	strb	r3, [r0, #20]
   d97b8:	bd10      	pop	{r4, pc}

000d97ba <_ZN9IPAddressaSEPKh>:
    setVersion(4);
}

IPAddress& IPAddress::operator=(const uint8_t* address)
{
   d97ba:	b537      	push	{r0, r1, r2, r4, r5, lr}
    set_ipv4(address[0], address[1], address[2], address[3]);
   d97bc:	780d      	ldrb	r5, [r1, #0]
   d97be:	788b      	ldrb	r3, [r1, #2]
   d97c0:	784a      	ldrb	r2, [r1, #1]
   d97c2:	78c9      	ldrb	r1, [r1, #3]
   d97c4:	9100      	str	r1, [sp, #0]
   d97c6:	4629      	mov	r1, r5
   d97c8:	f7ff ffea 	bl	d97a0 <_ZN9IPAddress8set_ipv4Ehhhh>
    return *this;
}
   d97cc:	b003      	add	sp, #12
   d97ce:	bd30      	pop	{r4, r5, pc}

000d97d0 <_ZN9IPAddressC1EPKh>:
IPAddress::IPAddress(uint32_t address)
{
    *this = address;
}

IPAddress::IPAddress(const uint8_t* address)
   d97d0:	b510      	push	{r4, lr}
   d97d2:	4b03      	ldr	r3, [pc, #12]	; (d97e0 <_ZN9IPAddressC1EPKh+0x10>)
   d97d4:	6003      	str	r3, [r0, #0]
   d97d6:	4604      	mov	r4, r0
{
    *this = address;
   d97d8:	f7ff ffef 	bl	d97ba <_ZN9IPAddressaSEPKh>
}
   d97dc:	4620      	mov	r0, r4
   d97de:	bd10      	pop	{r4, pc}
   d97e0:	000dc0f8 	.word	0x000dc0f8

000d97e4 <_ZN9USBSerial14blockOnOverrunEb>:
  HAL_USB_USART_Flush_Data(_serial);
}

void USBSerial::blockOnOverrun(bool block)
{
  _blocking = block;
   d97e4:	7441      	strb	r1, [r0, #17]
   d97e6:	4770      	bx	lr

000d97e8 <_ZN9USBSerialD1Ev>:
#include "usb_hal.h"
#include "system_task.h"
#include "spark_wiring_startup.h"
#include "concurrent_hal.h"

class USBSerial : public Stream
   d97e8:	4770      	bx	lr

000d97ea <_ZN9USBSerial4readEv>:
}


// Read data from buffer
int USBSerial::read()
{
   d97ea:	b508      	push	{r3, lr}
	return std::max(-1, (int)HAL_USB_USART_Receive_Data(_serial, false));
   d97ec:	2100      	movs	r1, #0
   d97ee:	7c00      	ldrb	r0, [r0, #16]
   d97f0:	f7ff f908 	bl	d8a04 <HAL_USB_USART_Receive_Data>
}
   d97f4:	ea30 0020 	bics.w	r0, r0, r0, asr #32
   d97f8:	bf28      	it	cs
   d97fa:	f04f 30ff 	movcs.w	r0, #4294967295
   d97fe:	bd08      	pop	{r3, pc}

000d9800 <_ZN9USBSerial4peekEv>:
{
  _blocking = block;
}

int USBSerial::peek()
{
   d9800:	b508      	push	{r3, lr}
	return std::max(-1, (int)HAL_USB_USART_Receive_Data(_serial, true));
   d9802:	2101      	movs	r1, #1
   d9804:	7c00      	ldrb	r0, [r0, #16]
   d9806:	f7ff f8fd 	bl	d8a04 <HAL_USB_USART_Receive_Data>
}
   d980a:	ea30 0020 	bics.w	r0, r0, r0, asr #32
   d980e:	bf28      	it	cs
   d9810:	f04f 30ff 	movcs.w	r0, #4294967295
   d9814:	bd08      	pop	{r3, pc}

000d9816 <_ZN9USBSerial17availableForWriteEv>:
{
	return std::max(-1, (int)HAL_USB_USART_Receive_Data(_serial, false));
}

int USBSerial::availableForWrite()
{
   d9816:	b508      	push	{r3, lr}
  return std::max(0, (int)HAL_USB_USART_Available_Data_For_Write(_serial));
   d9818:	7c00      	ldrb	r0, [r0, #16]
   d981a:	f7ff f8eb 	bl	d89f4 <HAL_USB_USART_Available_Data_For_Write>
}
   d981e:	ea20 70e0 	bic.w	r0, r0, r0, asr #31
   d9822:	bd08      	pop	{r3, pc}

000d9824 <_ZN9USBSerial9availableEv>:

int USBSerial::available()
{
   d9824:	b508      	push	{r3, lr}
	return std::max(0, (int)HAL_USB_USART_Available_Data(_serial));
   d9826:	7c00      	ldrb	r0, [r0, #16]
   d9828:	f7ff f8dc 	bl	d89e4 <HAL_USB_USART_Available_Data>
}
   d982c:	ea20 70e0 	bic.w	r0, r0, r0, asr #31
   d9830:	bd08      	pop	{r3, pc}

000d9832 <_ZN9USBSerial5flushEv>:
  return 0;
}

void USBSerial::flush()
{
  HAL_USB_USART_Flush_Data(_serial);
   d9832:	7c00      	ldrb	r0, [r0, #16]
   d9834:	f7ff b8f6 	b.w	d8a24 <HAL_USB_USART_Flush_Data>

000d9838 <_ZN9USBSerialD0Ev>:
   d9838:	b510      	push	{r4, lr}
   d983a:	2114      	movs	r1, #20
   d983c:	4604      	mov	r4, r0
   d983e:	f000 ff3b 	bl	da6b8 <_ZdlPvj>
   d9842:	4620      	mov	r0, r4
   d9844:	bd10      	pop	{r4, pc}

000d9846 <_ZN9USBSerial5writeEh>:
{
	return std::max(0, (int)HAL_USB_USART_Available_Data(_serial));
}

size_t USBSerial::write(uint8_t byte)
{
   d9846:	b538      	push	{r3, r4, r5, lr}
   d9848:	4604      	mov	r4, r0
  if (HAL_USB_USART_Available_Data_For_Write(_serial) > 0 || _blocking) {
   d984a:	7c00      	ldrb	r0, [r0, #16]
{
	return std::max(0, (int)HAL_USB_USART_Available_Data(_serial));
}

size_t USBSerial::write(uint8_t byte)
{
   d984c:	460d      	mov	r5, r1
  if (HAL_USB_USART_Available_Data_For_Write(_serial) > 0 || _blocking) {
   d984e:	f7ff f8d1 	bl	d89f4 <HAL_USB_USART_Available_Data_For_Write>
   d9852:	2800      	cmp	r0, #0
   d9854:	dc01      	bgt.n	d985a <_ZN9USBSerial5writeEh+0x14>
   d9856:	7c60      	ldrb	r0, [r4, #17]
   d9858:	b128      	cbz	r0, d9866 <_ZN9USBSerial5writeEh+0x20>
    return std::max(0, (int)HAL_USB_USART_Send_Data(_serial, byte));
   d985a:	4629      	mov	r1, r5
   d985c:	7c20      	ldrb	r0, [r4, #16]
   d985e:	f7ff f8d9 	bl	d8a14 <HAL_USB_USART_Send_Data>
   d9862:	ea20 70e0 	bic.w	r0, r0, r0, asr #31
  }
  return 0;
}
   d9866:	bd38      	pop	{r3, r4, r5, pc}

000d9868 <_ZN9USBSerialC1E20HAL_USB_USART_SerialRK20HAL_USB_USART_Config>:

  HAL_USB_USART_Config conf = acquireSerialBuffer();
  HAL_USB_USART_Init(_serial, &conf);
}

USBSerial::USBSerial(HAL_USB_USART_Serial serial, const HAL_USB_USART_Config& conf)
   d9868:	b510      	push	{r4, lr}
   d986a:	4604      	mov	r4, r0
  protected:
    void setWriteError(int err = 1) { write_error = err; }
    size_t printf_impl(bool newline, const char* format, ...);

  public:
    Print() : write_error(0) {}
   d986c:	2300      	movs	r3, #0
   d986e:	6063      	str	r3, [r4, #4]
    virtual int available() = 0;
    virtual int read() = 0;
    virtual int peek() = 0;
    virtual void flush() = 0;

    Stream() {_timeout=1000;}
   d9870:	f44f 737a 	mov.w	r3, #1000	; 0x3e8
   d9874:	60a3      	str	r3, [r4, #8]
   d9876:	4b05      	ldr	r3, [pc, #20]	; (d988c <_ZN9USBSerialC1E20HAL_USB_USART_SerialRK20HAL_USB_USART_Config+0x24>)
   d9878:	6023      	str	r3, [r4, #0]
{
  _serial = serial;
  _blocking = true;
   d987a:	2301      	movs	r3, #1

  HAL_USB_USART_Config conf = acquireSerialBuffer();
  HAL_USB_USART_Init(_serial, &conf);
}

USBSerial::USBSerial(HAL_USB_USART_Serial serial, const HAL_USB_USART_Config& conf)
   d987c:	4608      	mov	r0, r1
{
  _serial = serial;
   d987e:	7421      	strb	r1, [r4, #16]
  _blocking = true;
   d9880:	7463      	strb	r3, [r4, #17]

  HAL_USB_USART_Init(_serial, &conf);
   d9882:	4611      	mov	r1, r2
   d9884:	f7ff f89e 	bl	d89c4 <HAL_USB_USART_Init>
}
   d9888:	4620      	mov	r0, r4
   d988a:	bd10      	pop	{r4, pc}
   d988c:	000dc10c 	.word	0x000dc10c

000d9890 <_ZN9USBSerial5beginEl>:
// Public methods
//

void USBSerial::begin(long speed)
{
    HAL_USB_USART_Begin(_serial, speed, NULL);
   d9890:	2200      	movs	r2, #0
   d9892:	7c00      	ldrb	r0, [r0, #16]
   d9894:	f7ff b89e 	b.w	d89d4 <HAL_USB_USART_Begin>

000d9898 <_Z19acquireSerialBufferv>:

// Preinstantiate Objects //////////////////////////////////////////////////////
#ifdef SPARK_USB_SERIAL

HAL_USB_USART_Config __attribute__((weak)) acquireSerialBuffer()
{
   d9898:	b510      	push	{r4, lr}
  HAL_USB_USART_Config conf = {0};
   d989a:	2214      	movs	r2, #20

// Preinstantiate Objects //////////////////////////////////////////////////////
#ifdef SPARK_USB_SERIAL

HAL_USB_USART_Config __attribute__((weak)) acquireSerialBuffer()
{
   d989c:	4604      	mov	r4, r0
  HAL_USB_USART_Config conf = {0};
   d989e:	2100      	movs	r1, #0
   d98a0:	f001 fda0 	bl	db3e4 <memset>
  conf.rx_buffer_size = USB_RX_BUFFER_SIZE;
  conf.tx_buffer_size = USB_TX_BUFFER_SIZE;
#endif

  return conf;
}
   d98a4:	4620      	mov	r0, r4
   d98a6:	bd10      	pop	{r4, pc}

000d98a8 <_Z16_fetch_usbserialv>:

USBSerial& _fetch_usbserial()
{
   d98a8:	b530      	push	{r4, r5, lr}
  HAL_USB_USART_Config conf = acquireSerialBuffer();
	static USBSerial _usbserial(HAL_USB_USART_SERIAL, conf);
   d98aa:	4d0e      	ldr	r5, [pc, #56]	; (d98e4 <_Z16_fetch_usbserialv+0x3c>)

  return conf;
}

USBSerial& _fetch_usbserial()
{
   d98ac:	b087      	sub	sp, #28
  HAL_USB_USART_Config conf = acquireSerialBuffer();
   d98ae:	a801      	add	r0, sp, #4
   d98b0:	f7ff fff2 	bl	d9898 <_Z19acquireSerialBufferv>
	static USBSerial _usbserial(HAL_USB_USART_SERIAL, conf);
   d98b4:	6829      	ldr	r1, [r5, #0]
   d98b6:	f011 0401 	ands.w	r4, r1, #1
   d98ba:	d110      	bne.n	d98de <_Z16_fetch_usbserialv+0x36>
   d98bc:	4628      	mov	r0, r5
   d98be:	f7fa fbf4 	bl	d40aa <__cxa_guard_acquire>
   d98c2:	b160      	cbz	r0, d98de <_Z16_fetch_usbserialv+0x36>
   d98c4:	aa01      	add	r2, sp, #4
   d98c6:	4621      	mov	r1, r4
   d98c8:	4807      	ldr	r0, [pc, #28]	; (d98e8 <_Z16_fetch_usbserialv+0x40>)
   d98ca:	f7ff ffcd 	bl	d9868 <_ZN9USBSerialC1E20HAL_USB_USART_SerialRK20HAL_USB_USART_Config>
   d98ce:	4628      	mov	r0, r5
   d98d0:	f7fa fbf0 	bl	d40b4 <__cxa_guard_release>
   d98d4:	4a05      	ldr	r2, [pc, #20]	; (d98ec <_Z16_fetch_usbserialv+0x44>)
   d98d6:	4906      	ldr	r1, [pc, #24]	; (d98f0 <_Z16_fetch_usbserialv+0x48>)
   d98d8:	4803      	ldr	r0, [pc, #12]	; (d98e8 <_Z16_fetch_usbserialv+0x40>)
   d98da:	f000 fedf 	bl	da69c <__aeabi_atexit>
	return _usbserial;
}
   d98de:	4802      	ldr	r0, [pc, #8]	; (d98e8 <_Z16_fetch_usbserialv+0x40>)
   d98e0:	b007      	add	sp, #28
   d98e2:	bd30      	pop	{r4, r5, pc}
   d98e4:	2003e0f0 	.word	0x2003e0f0
   d98e8:	2003e0f4 	.word	0x2003e0f4
   d98ec:	2003d9bc 	.word	0x2003d9bc
   d98f0:	000d97e9 	.word	0x000d97e9

000d98f4 <_Z26call_raw_interrupt_handlerPv>:
}

void call_raw_interrupt_handler(void* data)
{
    raw_interrupt_handler_t handler = raw_interrupt_handler_t(data);
    handler();
   d98f4:	4700      	bx	r0
	...

000d98f8 <_Z15attachInterrupttPFvvE13InterruptModeah>:
    }
    return handler!=NULL;
}

bool attachInterrupt(uint16_t pin, raw_interrupt_handler_t handler, InterruptMode mode, int8_t priority, uint8_t subpriority)
{
   d98f8:	b5f0      	push	{r4, r5, r6, r7, lr}
   d98fa:	b085      	sub	sp, #20
   d98fc:	461c      	mov	r4, r3
   d98fe:	460e      	mov	r6, r1
   d9900:	4617      	mov	r7, r2
   d9902:	4605      	mov	r5, r0
    HAL_Interrupts_Detach(pin);
   d9904:	f7fe fe4e 	bl	d85a4 <HAL_Interrupts_Detach>
    HAL_InterruptExtraConfiguration extra = {0};
   d9908:	2000      	movs	r0, #0
 *******************************************************************************/

HAL_InterruptExtraConfiguration* configure_interrupt(HAL_InterruptExtraConfiguration& extra, int8_t priority, uint8_t subpriority)
{
  extra.version = HAL_INTERRUPT_EXTRA_CONFIGURATION_VERSION_1;
  if (priority >= 0) {
   d990a:	4284      	cmp	r4, r0
 * Return         : true if function handler was allocated, false otherwise.
 *******************************************************************************/

HAL_InterruptExtraConfiguration* configure_interrupt(HAL_InterruptExtraConfiguration& extra, int8_t priority, uint8_t subpriority)
{
  extra.version = HAL_INTERRUPT_EXTRA_CONFIGURATION_VERSION_1;
   d990c:	f04f 0304 	mov.w	r3, #4
}

bool attachInterrupt(uint16_t pin, raw_interrupt_handler_t handler, InterruptMode mode, int8_t priority, uint8_t subpriority)
{
    HAL_Interrupts_Detach(pin);
    HAL_InterruptExtraConfiguration extra = {0};
   d9910:	9003      	str	r0, [sp, #12]
 * Return         : true if function handler was allocated, false otherwise.
 *******************************************************************************/

HAL_InterruptExtraConfiguration* configure_interrupt(HAL_InterruptExtraConfiguration& extra, int8_t priority, uint8_t subpriority)
{
  extra.version = HAL_INTERRUPT_EXTRA_CONFIGURATION_VERSION_1;
   d9912:	f88d 300c 	strb.w	r3, [sp, #12]
  if (priority >= 0) {
    extra.IRQChannelPreemptionPriority = (uint8_t)priority;
    extra.IRQChannelSubPriority = subpriority;
   d9916:	bfa5      	ittet	ge
   d9918:	f89d 3028 	ldrbge.w	r3, [sp, #40]	; 0x28
   d991c:	f88d 300e 	strbge.w	r3, [sp, #14]
    return &extra;
  }
  return nullptr;
   d9920:	4603      	movlt	r3, r0
{
  extra.version = HAL_INTERRUPT_EXTRA_CONFIGURATION_VERSION_1;
  if (priority >= 0) {
    extra.IRQChannelPreemptionPriority = (uint8_t)priority;
    extra.IRQChannelSubPriority = subpriority;
    return &extra;
   d9922:	ab03      	addge	r3, sp, #12

bool attachInterrupt(uint16_t pin, raw_interrupt_handler_t handler, InterruptMode mode, int8_t priority, uint8_t subpriority)
{
    HAL_Interrupts_Detach(pin);
    HAL_InterruptExtraConfiguration extra = {0};
    if (SYSTEM_ERROR_NONE != HAL_Interrupts_Attach(pin, call_raw_interrupt_handler, (void*)handler, mode, configure_interrupt(extra, priority, subpriority))) {
   d9924:	9300      	str	r3, [sp, #0]
   d9926:	4632      	mov	r2, r6
   d9928:	463b      	mov	r3, r7
   d992a:	4906      	ldr	r1, [pc, #24]	; (d9944 <_Z15attachInterrupttPFvvE13InterruptModeah+0x4c>)

HAL_InterruptExtraConfiguration* configure_interrupt(HAL_InterruptExtraConfiguration& extra, int8_t priority, uint8_t subpriority)
{
  extra.version = HAL_INTERRUPT_EXTRA_CONFIGURATION_VERSION_1;
  if (priority >= 0) {
    extra.IRQChannelPreemptionPriority = (uint8_t)priority;
   d992c:	bfa8      	it	ge
   d992e:	f88d 400d 	strbge.w	r4, [sp, #13]

bool attachInterrupt(uint16_t pin, raw_interrupt_handler_t handler, InterruptMode mode, int8_t priority, uint8_t subpriority)
{
    HAL_Interrupts_Detach(pin);
    HAL_InterruptExtraConfiguration extra = {0};
    if (SYSTEM_ERROR_NONE != HAL_Interrupts_Attach(pin, call_raw_interrupt_handler, (void*)handler, mode, configure_interrupt(extra, priority, subpriority))) {
   d9932:	4628      	mov	r0, r5
   d9934:	f7fe fe2e 	bl	d8594 <HAL_Interrupts_Attach>
        return false;
    }
    return true;
}
   d9938:	fab0 f080 	clz	r0, r0
   d993c:	0940      	lsrs	r0, r0, #5
   d993e:	b005      	add	sp, #20
   d9940:	bdf0      	pop	{r4, r5, r6, r7, pc}
   d9942:	bf00      	nop
   d9944:	000d98f5 	.word	0x000d98f5

000d9948 <_Z15detachInterruptt>:
 * Input          : pin number to which the interrupt was attached
 * Output         : None.
 * Return         : true or false
 *******************************************************************************/
bool detachInterrupt(uint16_t pin)
{
   d9948:	b5f8      	push	{r3, r4, r5, r6, r7, lr}
   d994a:	4606      	mov	r6, r0
    if (SYSTEM_ERROR_NONE != HAL_Interrupts_Detach(pin)) {
   d994c:	f7fe fe2a 	bl	d85a4 <HAL_Interrupts_Detach>
   d9950:	4607      	mov	r7, r0
   d9952:	b968      	cbnz	r0, d9970 <_Z15detachInterruptt+0x28>
        return false;
    }
    if (handlers[pin]) {
   d9954:	4d08      	ldr	r5, [pc, #32]	; (d9978 <_Z15detachInterruptt+0x30>)
   d9956:	f855 4026 	ldr.w	r4, [r5, r6, lsl #2]
   d995a:	b15c      	cbz	r4, d9974 <_Z15detachInterruptt+0x2c>
   *  @ingroup functors
   *
   *  Polymorphic function wrapper.
   */
  template<typename _Res, typename... _ArgTypes>
    class function<_Res(_ArgTypes...)>
   d995c:	4620      	mov	r0, r4
   d995e:	f7fb fcb1 	bl	d52c4 <_ZNSt14_Function_baseD1Ev>
        delete handlers[pin];
   d9962:	2110      	movs	r1, #16
   d9964:	4620      	mov	r0, r4
   d9966:	f000 fea7 	bl	da6b8 <_ZdlPvj>
        handlers[pin] = nullptr;
   d996a:	f845 7026 	str.w	r7, [r5, r6, lsl #2]
   d996e:	e001      	b.n	d9974 <_Z15detachInterruptt+0x2c>
 * Return         : true or false
 *******************************************************************************/
bool detachInterrupt(uint16_t pin)
{
    if (SYSTEM_ERROR_NONE != HAL_Interrupts_Detach(pin)) {
        return false;
   d9970:	2000      	movs	r0, #0
   d9972:	bdf8      	pop	{r3, r4, r5, r6, r7, pc}
    }
    if (handlers[pin]) {
        delete handlers[pin];
        handlers[pin] = nullptr;
    }
    return true;
   d9974:	2001      	movs	r0, #1
}
   d9976:	bdf8      	pop	{r3, r4, r5, r6, r7, pc}
   d9978:	2003e108 	.word	0x2003e108

000d997c <_Z12noInterruptsv>:
 * Return         : None.
 *******************************************************************************/
void noInterrupts(void)
{
  //Only disable the interrupts that are exposed to the user
  HAL_Interrupts_Disable_All();
   d997c:	f7fe be22 	b.w	d85c4 <HAL_Interrupts_Disable_All>

000d9980 <_Z10interruptsv>:
 * Return         : None.
 *******************************************************************************/
void interrupts(void)
{
  //Only enable the interrupts that are exposed to the user
  HAL_Interrupts_Enable_All();
   d9980:	f7fe be18 	b.w	d85b4 <HAL_Interrupts_Enable_All>

000d9984 <_ZN5spark13CellularClass5readyEv>:
        return network_listening(*this, 0, NULL);
    }

    bool ready()
    {
        return network_ready(*this, 0,  NULL);
   d9984:	2200      	movs	r2, #0
   d9986:	4611      	mov	r1, r2
   d9988:	6840      	ldr	r0, [r0, #4]
   d998a:	f7ff b8af 	b.w	d8aec <network_ready>

000d998e <_ZN5spark13CellularClass9listeningEv>:
    uint16_t getListenTimeout(void) {
        return network_get_listen_timeout(*this, 0, NULL);
    }

    bool listening(void) {
        return network_listening(*this, 0, NULL);
   d998e:	2200      	movs	r2, #0
   d9990:	4611      	mov	r1, r2
   d9992:	6840      	ldr	r0, [r0, #4]
   d9994:	f7ff b8ca 	b.w	d8b2c <network_listening>

000d9998 <_ZN5spark13CellularClass16getListenTimeoutEv>:
    }

    inline void setListenTimeout(std::chrono::seconds s) { setListenTimeout(s.count()); }

    uint16_t getListenTimeout(void) {
        return network_get_listen_timeout(*this, 0, NULL);
   d9998:	2200      	movs	r2, #0
   d999a:	4611      	mov	r1, r2
   d999c:	6840      	ldr	r0, [r0, #4]
   d999e:	f7ff b8d5 	b.w	d8b4c <network_get_listen_timeout>

000d99a2 <_ZN5spark13CellularClass16setListenTimeoutEt>:
    void listen(bool begin=true) {
        network_listen(*this, begin ? 0 : 1, NULL);
    }

    inline void setListenTimeout(uint16_t timeout) {
        network_set_listen_timeout(*this, timeout, NULL);
   d99a2:	2200      	movs	r2, #0
   d99a4:	6840      	ldr	r0, [r0, #4]
   d99a6:	f7ff b8c9 	b.w	d8b3c <network_set_listen_timeout>

000d99aa <_ZN5spark13CellularClass6listenEb>:
        cellular_credentials_clear(nullptr);
    }
#endif // HAL_PLATFORM_MESH

    void listen(bool begin=true) {
        network_listen(*this, begin ? 0 : 1, NULL);
   d99aa:	2200      	movs	r2, #0
   d99ac:	f081 0101 	eor.w	r1, r1, #1
   d99b0:	6840      	ldr	r0, [r0, #4]
   d99b2:	f7ff b8b3 	b.w	d8b1c <network_listen>

000d99b6 <_ZN5spark13CellularClass3offEv>:
    }
    void on() {
        network_on(*this, 0, 0, NULL);
    }
    void off() {
        network_off(*this, 0, 0, NULL);
   d99b6:	2300      	movs	r3, #0
   d99b8:	461a      	mov	r2, r3
   d99ba:	4619      	mov	r1, r3
   d99bc:	6840      	ldr	r0, [r0, #4]
   d99be:	f7ff b8a5 	b.w	d8b0c <network_off>

000d99c2 <_ZN5spark13CellularClass2onEv>:

    IPAddress localIP() {
        return IPAddress(((CellularConfig*)network_config(*this, 0, NULL))->nw.aucIP);
    }
    void on() {
        network_on(*this, 0, 0, NULL);
   d99c2:	2300      	movs	r3, #0
   d99c4:	461a      	mov	r2, r3
   d99c6:	4619      	mov	r1, r3
   d99c8:	6840      	ldr	r0, [r0, #4]
   d99ca:	f7ff b897 	b.w	d8afc <network_on>

000d99ce <_ZN5spark13CellularClass10connectingEv>:
    }
    void connect(unsigned flags=0) {
        network_connect(*this, flags, 0, NULL);
    }
    bool connecting(void) {
        return network_connecting(*this, 0, NULL);
   d99ce:	2200      	movs	r2, #0
   d99d0:	4611      	mov	r1, r2
   d99d2:	6840      	ldr	r0, [r0, #4]
   d99d4:	f7ff b87a 	b.w	d8acc <network_connecting>

000d99d8 <_ZN5spark13CellularClass10disconnectEv>:
    }

    void disconnect() {
        network_disconnect(*this, NETWORK_DISCONNECT_REASON_USER, NULL);
   d99d8:	2200      	movs	r2, #0
   d99da:	2102      	movs	r1, #2
   d99dc:	6840      	ldr	r0, [r0, #4]
   d99de:	f7ff b87d 	b.w	d8adc <network_disconnect>

000d99e2 <_ZN5spark13CellularClass7connectEj>:
    }
    void off() {
        network_off(*this, 0, 0, NULL);
    }
    void connect(unsigned flags=0) {
        network_connect(*this, flags, 0, NULL);
   d99e2:	2300      	movs	r3, #0
   d99e4:	461a      	mov	r2, r3
   d99e6:	6840      	ldr	r0, [r0, #4]
   d99e8:	f7ff b868 	b.w	d8abc <network_connect>

000d99ec <_GLOBAL__sub_I__ZN5spark13CellularClass4RSSIEv>:
        return (band_get.ok = true);
    }

    CellularClass Cellular;
    // NetworkClass& Network = Cellular;
}
   d99ec:	b538      	push	{r3, r4, r5, lr}
    int tx_total;
    int rx_total;

    CellularDataHal()
    {
        memset(this, 0, sizeof(*this));
   d99ee:	4c08      	ldr	r4, [pc, #32]	; (d9a10 <_GLOBAL__sub_I__ZN5spark13CellularClass4RSSIEv+0x24>)
   d99f0:	2528      	movs	r5, #40	; 0x28
   d99f2:	462a      	mov	r2, r5
   d99f4:	2100      	movs	r1, #0
   d99f6:	4620      	mov	r0, r4
   d99f8:	f001 fcf4 	bl	db3e4 <memset>
        cid = -1;
   d99fc:	f04f 33ff 	mov.w	r3, #4294967295
   d9a00:	6063      	str	r3, [r4, #4]
   d9a02:	4b04      	ldr	r3, [pc, #16]	; (d9a14 <_GLOBAL__sub_I__ZN5spark13CellularClass4RSSIEv+0x28>)
        size = sizeof(*this);
   d9a04:	8025      	strh	r5, [r4, #0]
   d9a06:	2204      	movs	r2, #4
   d9a08:	605a      	str	r2, [r3, #4]

class CellularClass : public NetworkClass
{
public:
    CellularClass() :
            NetworkClass(NETWORK_INTERFACE_CELLULAR) {
   d9a0a:	4a03      	ldr	r2, [pc, #12]	; (d9a18 <_GLOBAL__sub_I__ZN5spark13CellularClass4RSSIEv+0x2c>)
   d9a0c:	601a      	str	r2, [r3, #0]
   d9a0e:	bd38      	pop	{r3, r4, r5, pc}
   d9a10:	2003e1a0 	.word	0x2003e1a0
   d9a14:	2003e198 	.word	0x2003e198
   d9a18:	000dc13c 	.word	0x000dc13c

000d9a1c <_ZN11USARTSerialD1Ev>:
private:
  HAL_USART_Serial _serial;
  bool _blocking;
public:
  USARTSerial(HAL_USART_Serial serial, Ring_Buffer *rx_buffer, Ring_Buffer *tx_buffer);
  virtual ~USARTSerial() {};
   d9a1c:	4770      	bx	lr

000d9a1e <_ZN11USARTSerial14blockOnOverrunEb>:
    HAL_USART_Half_Duplex(_serial, Enable);
}

void USARTSerial::blockOnOverrun(bool block)
{
  _blocking = block;
   d9a1e:	7441      	strb	r1, [r0, #17]
   d9a20:	4770      	bx	lr

000d9a22 <_ZN11USARTSerial17availableForWriteEv>:
}


int USARTSerial::availableForWrite(void)
{
   d9a22:	b508      	push	{r3, lr}
  return std::max(0, (int)HAL_USART_Available_Data_For_Write(_serial));
   d9a24:	7c00      	ldrb	r0, [r0, #16]
   d9a26:	f7fe ff35 	bl	d8894 <HAL_USART_Available_Data_For_Write>
}
   d9a2a:	ea20 70e0 	bic.w	r0, r0, r0, asr #31
   d9a2e:	bd08      	pop	{r3, pc}

000d9a30 <_ZN11USARTSerial9availableEv>:

int USARTSerial::available(void)
{
   d9a30:	b508      	push	{r3, lr}
  return std::max(0, (int)HAL_USART_Available_Data(_serial));
   d9a32:	7c00      	ldrb	r0, [r0, #16]
   d9a34:	f7fe ff06 	bl	d8844 <HAL_USART_Available_Data>
}
   d9a38:	ea20 70e0 	bic.w	r0, r0, r0, asr #31
   d9a3c:	bd08      	pop	{r3, pc}

000d9a3e <_ZN11USARTSerial4peekEv>:

int USARTSerial::peek(void)
{
   d9a3e:	b508      	push	{r3, lr}
  return std::max(-1, (int)HAL_USART_Peek_Data(_serial));
   d9a40:	7c00      	ldrb	r0, [r0, #16]
   d9a42:	f7fe ff0f 	bl	d8864 <HAL_USART_Peek_Data>
}
   d9a46:	ea30 0020 	bics.w	r0, r0, r0, asr #32
   d9a4a:	bf28      	it	cs
   d9a4c:	f04f 30ff 	movcs.w	r0, #4294967295
   d9a50:	bd08      	pop	{r3, pc}

000d9a52 <_ZN11USARTSerial4readEv>:

int USARTSerial::read(void)
{
   d9a52:	b508      	push	{r3, lr}
  return std::max(-1, (int)HAL_USART_Read_Data(_serial));
   d9a54:	7c00      	ldrb	r0, [r0, #16]
   d9a56:	f7fe fefd 	bl	d8854 <HAL_USART_Read_Data>
}
   d9a5a:	ea30 0020 	bics.w	r0, r0, r0, asr #32
   d9a5e:	bf28      	it	cs
   d9a60:	f04f 30ff 	movcs.w	r0, #4294967295
   d9a64:	bd08      	pop	{r3, pc}

000d9a66 <_ZN11USARTSerial5flushEv>:

void USARTSerial::flush()
{
  HAL_USART_Flush_Data(_serial);
   d9a66:	7c00      	ldrb	r0, [r0, #16]
   d9a68:	f7fe bf04 	b.w	d8874 <HAL_USART_Flush_Data>

000d9a6c <_ZN11USARTSerialD0Ev>:
   d9a6c:	b510      	push	{r4, lr}
   d9a6e:	2114      	movs	r1, #20
   d9a70:	4604      	mov	r4, r0
   d9a72:	f000 fe21 	bl	da6b8 <_ZdlPvj>
   d9a76:	4620      	mov	r0, r4
   d9a78:	bd10      	pop	{r4, pc}

000d9a7a <_ZN11USARTSerial5writeEh>:
}

size_t USARTSerial::write(uint8_t c)
{
   d9a7a:	b570      	push	{r4, r5, r6, lr}
  // attempt a write if blocking, or for non-blocking if there is room.
  if (_blocking || HAL_USART_Available_Data_For_Write(_serial) > 0) {
   d9a7c:	7c45      	ldrb	r5, [r0, #17]
{
  HAL_USART_Flush_Data(_serial);
}

size_t USARTSerial::write(uint8_t c)
{
   d9a7e:	4604      	mov	r4, r0
   d9a80:	460e      	mov	r6, r1
  // attempt a write if blocking, or for non-blocking if there is room.
  if (_blocking || HAL_USART_Available_Data_For_Write(_serial) > 0) {
   d9a82:	b925      	cbnz	r5, d9a8e <_ZN11USARTSerial5writeEh+0x14>
   d9a84:	7c00      	ldrb	r0, [r0, #16]
   d9a86:	f7fe ff05 	bl	d8894 <HAL_USART_Available_Data_For_Write>
   d9a8a:	2800      	cmp	r0, #0
   d9a8c:	dd05      	ble.n	d9a9a <_ZN11USARTSerial5writeEh+0x20>
    // the HAL always blocks.
	  return HAL_USART_Write_Data(_serial, c);
   d9a8e:	4631      	mov	r1, r6
   d9a90:	7c20      	ldrb	r0, [r4, #16]
  }
  return 0;
}
   d9a92:	e8bd 4070 	ldmia.w	sp!, {r4, r5, r6, lr}
size_t USARTSerial::write(uint8_t c)
{
  // attempt a write if blocking, or for non-blocking if there is room.
  if (_blocking || HAL_USART_Available_Data_For_Write(_serial) > 0) {
    // the HAL always blocks.
	  return HAL_USART_Write_Data(_serial, c);
   d9a96:	f7fe becd 	b.w	d8834 <HAL_USART_Write_Data>
  }
  return 0;
}
   d9a9a:	4628      	mov	r0, r5
   d9a9c:	bd70      	pop	{r4, r5, r6, pc}
	...

000d9aa0 <_ZN11USARTSerialC1E16HAL_USART_SerialP11Ring_BufferS2_>:
#include "spark_wiring_constants.h"
#include "module_info.h"

// Constructors ////////////////////////////////////////////////////////////////

USARTSerial::USARTSerial(HAL_USART_Serial serial, Ring_Buffer *rx_buffer, Ring_Buffer *tx_buffer)
   d9aa0:	b510      	push	{r4, lr}
   d9aa2:	4604      	mov	r4, r0
   d9aa4:	4608      	mov	r0, r1
   d9aa6:	4611      	mov	r1, r2
   d9aa8:	2200      	movs	r2, #0
   d9aaa:	6062      	str	r2, [r4, #4]
   d9aac:	f44f 727a 	mov.w	r2, #1000	; 0x3e8
   d9ab0:	60a2      	str	r2, [r4, #8]
   d9ab2:	4a05      	ldr	r2, [pc, #20]	; (d9ac8 <_ZN11USARTSerialC1E16HAL_USART_SerialP11Ring_BufferS2_+0x28>)
   d9ab4:	6022      	str	r2, [r4, #0]
{
  _serial = serial;
  // Default is blocking mode
  _blocking = true;
   d9ab6:	2201      	movs	r2, #1

// Constructors ////////////////////////////////////////////////////////////////

USARTSerial::USARTSerial(HAL_USART_Serial serial, Ring_Buffer *rx_buffer, Ring_Buffer *tx_buffer)
{
  _serial = serial;
   d9ab8:	7420      	strb	r0, [r4, #16]
  // Default is blocking mode
  _blocking = true;
   d9aba:	7462      	strb	r2, [r4, #17]
  HAL_USART_Init(serial, rx_buffer, tx_buffer);
   d9abc:	461a      	mov	r2, r3
   d9abe:	f7fe feb1 	bl	d8824 <HAL_USART_Init>
}
   d9ac2:	4620      	mov	r0, r4
   d9ac4:	bd10      	pop	{r4, pc}
   d9ac6:	bf00      	nop
   d9ac8:	000dc170 	.word	0x000dc170

000d9acc <_ZN11USARTSerial9isEnabledEv>:
USARTSerial::operator bool() {
  return true;
}

bool USARTSerial::isEnabled() {
  return HAL_USART_Is_Enabled(_serial);
   d9acc:	7c00      	ldrb	r0, [r0, #16]
   d9ace:	f7fe bed9 	b.w	d8884 <HAL_USART_Is_Enabled>
	...

000d9ad4 <_Z22__fetch_global_Serial1v>:
static Ring_Buffer* serial1_rx_buffer = NULL;
static Ring_Buffer* serial1_tx_buffer = NULL;
#endif

USARTSerial& __fetch_global_Serial1()
{
   d9ad4:	b538      	push	{r3, r4, r5, lr}
#if ((MODULE_FUNCTION == MOD_FUNC_USER_PART) || (MODULE_FUNCTION == MOD_FUNC_MONO_FIRMWARE))
	static USARTSerial serial1(HAL_USART_SERIAL1, &serial1_rx_buffer, &serial1_tx_buffer);
   d9ad6:	4d0c      	ldr	r5, [pc, #48]	; (d9b08 <_Z22__fetch_global_Serial1v+0x34>)
   d9ad8:	6829      	ldr	r1, [r5, #0]
   d9ada:	f011 0401 	ands.w	r4, r1, #1
   d9ade:	d111      	bne.n	d9b04 <_Z22__fetch_global_Serial1v+0x30>
   d9ae0:	4628      	mov	r0, r5
   d9ae2:	f7fa fae2 	bl	d40aa <__cxa_guard_acquire>
   d9ae6:	b168      	cbz	r0, d9b04 <_Z22__fetch_global_Serial1v+0x30>
   d9ae8:	4a08      	ldr	r2, [pc, #32]	; (d9b0c <_Z22__fetch_global_Serial1v+0x38>)
   d9aea:	4b09      	ldr	r3, [pc, #36]	; (d9b10 <_Z22__fetch_global_Serial1v+0x3c>)
   d9aec:	4809      	ldr	r0, [pc, #36]	; (d9b14 <_Z22__fetch_global_Serial1v+0x40>)
   d9aee:	4621      	mov	r1, r4
   d9af0:	f7ff ffd6 	bl	d9aa0 <_ZN11USARTSerialC1E16HAL_USART_SerialP11Ring_BufferS2_>
   d9af4:	4628      	mov	r0, r5
   d9af6:	f7fa fadd 	bl	d40b4 <__cxa_guard_release>
   d9afa:	4a07      	ldr	r2, [pc, #28]	; (d9b18 <_Z22__fetch_global_Serial1v+0x44>)
   d9afc:	4907      	ldr	r1, [pc, #28]	; (d9b1c <_Z22__fetch_global_Serial1v+0x48>)
   d9afe:	4805      	ldr	r0, [pc, #20]	; (d9b14 <_Z22__fetch_global_Serial1v+0x40>)
   d9b00:	f000 fdcc 	bl	da69c <__aeabi_atexit>
    serial1_tx_buffer = new Ring_Buffer();
  }
  static USARTSerial serial1(HAL_USART_SERIAL1, serial1_rx_buffer, serial1_tx_buffer);
#endif
	return serial1;
}
   d9b04:	4803      	ldr	r0, [pc, #12]	; (d9b14 <_Z22__fetch_global_Serial1v+0x40>)
   d9b06:	bd38      	pop	{r3, r4, r5, pc}
   d9b08:	2003e260 	.word	0x2003e260
   d9b0c:	2003e264 	.word	0x2003e264
   d9b10:	2003e1dc 	.word	0x2003e1dc
   d9b14:	2003e1c8 	.word	0x2003e1c8
   d9b18:	2003d9bc 	.word	0x2003d9bc
   d9b1c:	000d9a1d 	.word	0x000d9a1d

000d9b20 <_ZN7TwoWireD1Ev>:
private:
  HAL_I2C_Interface _i2c;

public:
  TwoWire(HAL_I2C_Interface i2c, const HAL_I2C_Config& config);
  virtual ~TwoWire() {};
   d9b20:	4770      	bx	lr

000d9b22 <_ZN7TwoWire5writeEPKhj>:

// must be called in:
// slave tx event callback
// or after beginTransmission(address)
size_t TwoWire::write(const uint8_t *data, size_t quantity)
{
   d9b22:	b5f8      	push	{r3, r4, r5, r6, r7, lr}
   d9b24:	4606      	mov	r6, r0
   d9b26:	4615      	mov	r5, r2
   d9b28:	460c      	mov	r4, r1
   d9b2a:	188f      	adds	r7, r1, r2
  // in master/slave transmitter mode
  for(size_t i = 0; i < quantity; ++i)
   d9b2c:	42bc      	cmp	r4, r7
   d9b2e:	d006      	beq.n	d9b3e <_ZN7TwoWire5writeEPKhj+0x1c>
  {
    write(data[i]);
   d9b30:	6833      	ldr	r3, [r6, #0]
   d9b32:	f814 1b01 	ldrb.w	r1, [r4], #1
   d9b36:	689b      	ldr	r3, [r3, #8]
   d9b38:	4630      	mov	r0, r6
   d9b3a:	4798      	blx	r3
// slave tx event callback
// or after beginTransmission(address)
size_t TwoWire::write(const uint8_t *data, size_t quantity)
{
  // in master/slave transmitter mode
  for(size_t i = 0; i < quantity; ++i)
   d9b3c:	e7f6      	b.n	d9b2c <_ZN7TwoWire5writeEPKhj+0xa>
  {
    write(data[i]);
  }

  return quantity;
}
   d9b3e:	4628      	mov	r0, r5
   d9b40:	bdf8      	pop	{r3, r4, r5, r6, r7, pc}

000d9b42 <_ZN7TwoWire5writeEh>:
// must be called in:
// slave tx event callback
// or after beginTransmission(address)
size_t TwoWire::write(uint8_t data)
{
  return HAL_I2C_Write_Data(_i2c, data, NULL);
   d9b42:	2200      	movs	r2, #0
   d9b44:	7c00      	ldrb	r0, [r0, #16]
   d9b46:	f7fe bebd 	b.w	d88c4 <HAL_I2C_Write_Data>

000d9b4a <_ZN7TwoWire9availableEv>:
// must be called in:
// slave rx event callback
// or after requestFrom(address, numBytes)
int TwoWire::available(void)
{
  return HAL_I2C_Available_Data(_i2c, NULL);
   d9b4a:	2100      	movs	r1, #0
   d9b4c:	7c00      	ldrb	r0, [r0, #16]
   d9b4e:	f7fe bec1 	b.w	d88d4 <HAL_I2C_Available_Data>

000d9b52 <_ZN7TwoWire4readEv>:
// must be called in:
// slave rx event callback
// or after requestFrom(address, numBytes)
int TwoWire::read(void)
{
  return HAL_I2C_Read_Data(_i2c, NULL);
   d9b52:	2100      	movs	r1, #0
   d9b54:	7c00      	ldrb	r0, [r0, #16]
   d9b56:	f7fe bec5 	b.w	d88e4 <HAL_I2C_Read_Data>

000d9b5a <_ZN7TwoWire4peekEv>:
// must be called in:
// slave rx event callback
// or after requestFrom(address, numBytes)
int TwoWire::peek(void)
{
  return HAL_I2C_Peek_Data(_i2c, NULL);
   d9b5a:	2100      	movs	r1, #0
   d9b5c:	7c00      	ldrb	r0, [r0, #16]
   d9b5e:	f7fe bec9 	b.w	d88f4 <HAL_I2C_Peek_Data>

000d9b62 <_ZN7TwoWire5flushEv>:
}

void TwoWire::flush(void)
{
  HAL_I2C_Flush_Data(_i2c, NULL);
   d9b62:	2100      	movs	r1, #0
   d9b64:	7c00      	ldrb	r0, [r0, #16]
   d9b66:	f7fe becd 	b.w	d8904 <HAL_I2C_Flush_Data>

000d9b6a <_ZN7TwoWireD0Ev>:
   d9b6a:	b510      	push	{r4, lr}
   d9b6c:	2114      	movs	r1, #20
   d9b6e:	4604      	mov	r4, r0
   d9b70:	f000 fda2 	bl	da6b8 <_ZdlPvj>
   d9b74:	4620      	mov	r0, r4
   d9b76:	bd10      	pop	{r4, pc}

000d9b78 <_ZN7TwoWireC1E17HAL_I2C_InterfaceRK14HAL_I2C_Config>:
#include "i2c_hal.h"
#include "spark_wiring_thread.h"

// Constructors ////////////////////////////////////////////////////////////////

TwoWire::TwoWire(HAL_I2C_Interface i2c, const HAL_I2C_Config& conf)
   d9b78:	b510      	push	{r4, lr}
   d9b7a:	4604      	mov	r4, r0
   d9b7c:	2300      	movs	r3, #0
   d9b7e:	6063      	str	r3, [r4, #4]
   d9b80:	f44f 737a 	mov.w	r3, #1000	; 0x3e8
   d9b84:	60a3      	str	r3, [r4, #8]
   d9b86:	4b04      	ldr	r3, [pc, #16]	; (d9b98 <_ZN7TwoWireC1E17HAL_I2C_InterfaceRK14HAL_I2C_Config+0x20>)
{
  _i2c = i2c;
   d9b88:	7421      	strb	r1, [r4, #16]
#include "i2c_hal.h"
#include "spark_wiring_thread.h"

// Constructors ////////////////////////////////////////////////////////////////

TwoWire::TwoWire(HAL_I2C_Interface i2c, const HAL_I2C_Config& conf)
   d9b8a:	4608      	mov	r0, r1
   d9b8c:	6023      	str	r3, [r4, #0]
{
  _i2c = i2c;
  HAL_I2C_Init(_i2c, &conf);
   d9b8e:	4611      	mov	r1, r2
   d9b90:	f7fe fec8 	bl	d8924 <HAL_I2C_Init>
}
   d9b94:	4620      	mov	r0, r4
   d9b96:	bd10      	pop	{r4, pc}
   d9b98:	000dc1a0 	.word	0x000dc1a0

000d9b9c <_ZN7TwoWire11requestFromERK16WireTransmission>:
size_t TwoWire::requestFrom(uint8_t address, size_t quantity)
{
  return requestFrom(address, quantity, (uint8_t)true);
}

size_t TwoWire::requestFrom(const WireTransmission& transfer) {
   d9b9c:	b570      	push	{r4, r5, r6, lr}
   d9b9e:	460c      	mov	r4, r1
   d9ba0:	b086      	sub	sp, #24
      .address = address_,
      .reserved = {0},
      .quantity = (uint32_t)size_,
      .timeout_ms = timeout_,
      .flags = (uint32_t)(stop_ ? HAL_I2C_TRANSMISSION_FLAG_STOP : 0)
    };
   d9ba2:	2514      	movs	r5, #20
   d9ba4:	4606      	mov	r6, r0
   d9ba6:	462a      	mov	r2, r5
   d9ba8:	2100      	movs	r1, #0
   d9baa:	a801      	add	r0, sp, #4
   d9bac:	f001 fc1a 	bl	db3e4 <memset>
   d9bb0:	7823      	ldrb	r3, [r4, #0]
   d9bb2:	f88d 3008 	strb.w	r3, [sp, #8]
   d9bb6:	6863      	ldr	r3, [r4, #4]
   d9bb8:	9303      	str	r3, [sp, #12]
   d9bba:	68e3      	ldr	r3, [r4, #12]
   d9bbc:	9304      	str	r3, [sp, #16]
  auto conf = transfer.halConfig();
  return HAL_I2C_Request_Data_Ex(_i2c, &conf, nullptr);
   d9bbe:	2200      	movs	r2, #0
   d9bc0:	7a23      	ldrb	r3, [r4, #8]
   d9bc2:	7c30      	ldrb	r0, [r6, #16]
   d9bc4:	f8ad 5004 	strh.w	r5, [sp, #4]
   d9bc8:	a901      	add	r1, sp, #4
   d9bca:	9305      	str	r3, [sp, #20]
   d9bcc:	f7fe fec2 	bl	d8954 <HAL_I2C_Request_Data_Ex>
}
   d9bd0:	b006      	add	sp, #24
   d9bd2:	bd70      	pop	{r4, r5, r6, pc}

000d9bd4 <_ZN7TwoWire11requestFromEhjh>:
{
	HAL_I2C_End(_i2c, NULL);
}

size_t TwoWire::requestFrom(uint8_t address, size_t quantity, uint8_t sendStop)
{
   d9bd4:	b51f      	push	{r0, r1, r2, r3, r4, lr}
  WireTransmission& timeout(std::chrono::milliseconds ms) {
    return timeout((system_tick_t)ms.count());
  }

  WireTransmission& stop(bool stop) {
    stop_ = stop;
   d9bd6:	3300      	adds	r3, #0
public:
  WireTransmission(uint8_t address)
      : address_{address},
        size_{0},
        stop_{true},
        timeout_{HAL_I2C_DEFAULT_TIMEOUT_MS} {
   d9bd8:	f88d 1000 	strb.w	r1, [sp]
   d9bdc:	f04f 0164 	mov.w	r1, #100	; 0x64
   d9be0:	9103      	str	r1, [sp, #12]
  WireTransmission& timeout(std::chrono::milliseconds ms) {
    return timeout((system_tick_t)ms.count());
  }

  WireTransmission& stop(bool stop) {
    stop_ = stop;
   d9be2:	bf18      	it	ne
   d9be4:	2301      	movne	r3, #1
  return requestFrom(WireTransmission(address).quantity(quantity).stop(sendStop));
   d9be6:	4669      	mov	r1, sp
  }

  WireTransmission() = delete;

  WireTransmission& quantity(size_t size) {
    size_ = size;
   d9be8:	9201      	str	r2, [sp, #4]
  WireTransmission& timeout(std::chrono::milliseconds ms) {
    return timeout((system_tick_t)ms.count());
  }

  WireTransmission& stop(bool stop) {
    stop_ = stop;
   d9bea:	f88d 3008 	strb.w	r3, [sp, #8]
   d9bee:	f7ff ffd5 	bl	d9b9c <_ZN7TwoWire11requestFromERK16WireTransmission>
}
   d9bf2:	b005      	add	sp, #20
   d9bf4:	f85d fb04 	ldr.w	pc, [sp], #4

000d9bf8 <_ZN7TwoWire17beginTransmissionEh>:
  return HAL_I2C_Request_Data_Ex(_i2c, &conf, nullptr);
}

void TwoWire::beginTransmission(uint8_t address)
{
	HAL_I2C_Begin_Transmission(_i2c, address, NULL);
   d9bf8:	2200      	movs	r2, #0
   d9bfa:	7c00      	ldrb	r0, [r0, #16]
   d9bfc:	f7fe be52 	b.w	d88a4 <HAL_I2C_Begin_Transmission>

000d9c00 <_ZN7TwoWire17beginTransmissionEi>:
}

void TwoWire::beginTransmission(int address)
{
  beginTransmission((uint8_t)address);
   d9c00:	b2c9      	uxtb	r1, r1
   d9c02:	f7ff bff9 	b.w	d9bf8 <_ZN7TwoWire17beginTransmissionEh>

000d9c06 <_ZN7TwoWire15endTransmissionEh>:
//	no call to endTransmission(true) is made. Some I2C
//	devices will behave oddly if they do not see a STOP.
//
uint8_t TwoWire::endTransmission(uint8_t sendStop)
{
	return HAL_I2C_End_Transmission(_i2c, sendStop, NULL);
   d9c06:	2200      	movs	r2, #0
   d9c08:	7c00      	ldrb	r0, [r0, #16]
   d9c0a:	f7fe be53 	b.w	d88b4 <HAL_I2C_End_Transmission>

000d9c0e <_ZN7TwoWire9isEnabledEv>:
  HAL_I2C_Set_Callback_On_Request(_i2c, function, NULL);
}

bool TwoWire::isEnabled()
{
  return HAL_I2C_Is_Enabled(_i2c, NULL);
   d9c0e:	2100      	movs	r1, #0
   d9c10:	7c00      	ldrb	r0, [r0, #16]
   d9c12:	f7fe be7f 	b.w	d8914 <HAL_I2C_Is_Enabled>

000d9c16 <_ZN7TwoWire4lockEv>:
{
  HAL_I2C_Reset(_i2c, 0, NULL);
}

bool TwoWire::lock()
{
   d9c16:	b508      	push	{r3, lr}
  return HAL_I2C_Acquire(_i2c, NULL) == 0;
   d9c18:	2100      	movs	r1, #0
   d9c1a:	7c00      	ldrb	r0, [r0, #16]
   d9c1c:	f7fe fe8a 	bl	d8934 <HAL_I2C_Acquire>
}
   d9c20:	fab0 f080 	clz	r0, r0
   d9c24:	0940      	lsrs	r0, r0, #5
   d9c26:	bd08      	pop	{r3, pc}

000d9c28 <_ZN7TwoWire6unlockEv>:

bool TwoWire::unlock()
{
   d9c28:	b508      	push	{r3, lr}
  return HAL_I2C_Release(_i2c, NULL) == 0;
   d9c2a:	2100      	movs	r1, #0
   d9c2c:	7c00      	ldrb	r0, [r0, #16]
   d9c2e:	f7fe fe89 	bl	d8944 <HAL_I2C_Release>
}
   d9c32:	fab0 f080 	clz	r0, r0
   d9c36:	0940      	lsrs	r0, r0, #5
   d9c38:	bd08      	pop	{r3, pc}

000d9c3a <_ZN5spark9MeshClass9listeningEv>:
    uint16_t getListenTimeout(void) {
        return network_get_listen_timeout(*this, 0, NULL);
    }

    bool listening(void) {
        return network_listening(*this, 0, NULL);
   d9c3a:	2200      	movs	r2, #0
   d9c3c:	4611      	mov	r1, r2
   d9c3e:	6840      	ldr	r0, [r0, #4]
   d9c40:	f7fe bf74 	b.w	d8b2c <network_listening>

000d9c44 <_ZN5spark9MeshClass16getListenTimeoutEv>:
    void setListenTimeout(uint16_t timeout) {
        network_set_listen_timeout(*this, timeout, NULL);
    }

    uint16_t getListenTimeout(void) {
        return network_get_listen_timeout(*this, 0, NULL);
   d9c44:	2200      	movs	r2, #0
   d9c46:	4611      	mov	r1, r2
   d9c48:	6840      	ldr	r0, [r0, #4]
   d9c4a:	f7fe bf7f 	b.w	d8b4c <network_get_listen_timeout>

000d9c4e <_ZN5spark9MeshClass16setListenTimeoutEt>:
    void listen(bool begin=true) {
        network_listen(*this, begin ? 0 : 1, NULL);
    }

    void setListenTimeout(uint16_t timeout) {
        network_set_listen_timeout(*this, timeout, NULL);
   d9c4e:	2200      	movs	r2, #0
   d9c50:	6840      	ldr	r0, [r0, #4]
   d9c52:	f7fe bf73 	b.w	d8b3c <network_set_listen_timeout>

000d9c56 <_ZN5spark9MeshClass6listenEb>:
    void disconnect() {
        network_disconnect(*this, NETWORK_DISCONNECT_REASON_USER, NULL);
    }

    void listen(bool begin=true) {
        network_listen(*this, begin ? 0 : 1, NULL);
   d9c56:	2200      	movs	r2, #0
   d9c58:	f081 0101 	eor.w	r1, r1, #1
   d9c5c:	6840      	ldr	r0, [r0, #4]
   d9c5e:	f7fe bf5d 	b.w	d8b1c <network_listen>

000d9c62 <_ZN5spark9MeshClass3offEv>:
    void on() {
        network_on(*this, 0, 0, NULL);
    }

    void off() {
        network_off(*this, 1, 0, NULL);
   d9c62:	2300      	movs	r3, #0
   d9c64:	461a      	mov	r2, r3
   d9c66:	2101      	movs	r1, #1
   d9c68:	6840      	ldr	r0, [r0, #4]
   d9c6a:	f7fe bf4f 	b.w	d8b0c <network_off>

000d9c6e <_ZN5spark9MeshClass2onEv>:
    MeshClass() :
            NetworkClass(NETWORK_INTERFACE_MESH) {
    }

    void on() {
        network_on(*this, 0, 0, NULL);
   d9c6e:	2300      	movs	r3, #0
   d9c70:	461a      	mov	r2, r3
   d9c72:	4619      	mov	r1, r3
   d9c74:	6840      	ldr	r0, [r0, #4]
   d9c76:	f7fe bf41 	b.w	d8afc <network_on>

000d9c7a <_ZN5spark9MeshClass5readyEv>:
    bool listening(void) {
        return network_listening(*this, 0, NULL);
    }

    bool ready() {
        return network_ready(*this, 0,  NULL);
   d9c7a:	2200      	movs	r2, #0
   d9c7c:	4611      	mov	r1, r2
   d9c7e:	6840      	ldr	r0, [r0, #4]
   d9c80:	f7fe bf34 	b.w	d8aec <network_ready>

000d9c84 <_ZN5spark9MeshClass10connectingEv>:
    void connect(unsigned flags=0) {
        network_connect(*this, flags, 0, NULL);
    }

    bool connecting(void) {
        return network_connecting(*this, 0, NULL);
   d9c84:	2200      	movs	r2, #0
   d9c86:	4611      	mov	r1, r2
   d9c88:	6840      	ldr	r0, [r0, #4]
   d9c8a:	f7fe bf1f 	b.w	d8acc <network_connecting>

000d9c8e <_ZN5spark9MeshClass10disconnectEv>:
    }

    void disconnect() {
        network_disconnect(*this, NETWORK_DISCONNECT_REASON_USER, NULL);
   d9c8e:	2200      	movs	r2, #0
   d9c90:	2102      	movs	r1, #2
   d9c92:	6840      	ldr	r0, [r0, #4]
   d9c94:	f7fe bf22 	b.w	d8adc <network_disconnect>

000d9c98 <_ZN5spark9MeshClass7connectEj>:
    void off() {
        network_off(*this, 1, 0, NULL);
    }

    void connect(unsigned flags=0) {
        network_connect(*this, flags, 0, NULL);
   d9c98:	2300      	movs	r3, #0
   d9c9a:	461a      	mov	r2, r3
   d9c9c:	6840      	ldr	r0, [r0, #4]
   d9c9e:	f7fe bf0d 	b.w	d8abc <network_connect>

000d9ca2 <_ZNKSt14default_deleteIN6Thread4DataEEclEPS1_.isra.6>:
	       enable_if<is_convertible<_Up*, _Tp*>::value>::type>
        default_delete(const default_delete<_Up>&) noexcept { }

      /// Calls @c delete @p __ptr
      void
      operator()(_Tp* __ptr) const
   d9ca2:	b538      	push	{r3, r4, r5, lr}
      {
	static_assert(!is_void<_Tp>::value,
		      "can't delete pointer to incomplete type");
	static_assert(sizeof(_Tp)>0,
		      "can't delete pointer to incomplete type");
	delete __ptr;
   d9ca4:	4605      	mov	r5, r0
   d9ca6:	b188      	cbz	r0, d9ccc <_ZNKSt14default_deleteIN6Thread4DataEEclEPS1_.isra.6+0x2a>

      /// Destructor, invokes the deleter if the stored pointer is not null.
      ~unique_ptr() noexcept
      {
	auto& __ptr = std::get<0>(_M_t);
	if (__ptr != nullptr)
   d9ca8:	6804      	ldr	r4, [r0, #0]
   d9caa:	b14c      	cbz	r4, d9cc0 <_ZNKSt14default_deleteIN6Thread4DataEEclEPS1_.isra.6+0x1e>

    _Function_base() : _M_manager(nullptr) { }

    ~_Function_base()
    {
      if (_M_manager)
   d9cac:	68a3      	ldr	r3, [r4, #8]
   d9cae:	b11b      	cbz	r3, d9cb8 <_ZNKSt14default_deleteIN6Thread4DataEEclEPS1_.isra.6+0x16>
	_M_manager(_M_functor, _M_functor, __destroy_functor);
   d9cb0:	2203      	movs	r2, #3
   d9cb2:	4621      	mov	r1, r4
   d9cb4:	4620      	mov	r0, r4
   d9cb6:	4798      	blx	r3
      {
	static_assert(!is_void<_Tp>::value,
		      "can't delete pointer to incomplete type");
	static_assert(sizeof(_Tp)>0,
		      "can't delete pointer to incomplete type");
	delete __ptr;
   d9cb8:	2110      	movs	r1, #16
   d9cba:	4620      	mov	r0, r4
   d9cbc:	f000 fcfc 	bl	da6b8 <_ZdlPvj>
   d9cc0:	4628      	mov	r0, r5
   d9cc2:	2114      	movs	r1, #20
      }
   d9cc4:	e8bd 4038 	ldmia.w	sp!, {r3, r4, r5, lr}
      {
	static_assert(!is_void<_Tp>::value,
		      "can't delete pointer to incomplete type");
	static_assert(sizeof(_Tp)>0,
		      "can't delete pointer to incomplete type");
	delete __ptr;
   d9cc8:	f000 bcf6 	b.w	da6b8 <_ZdlPvj>
   d9ccc:	bd38      	pop	{r3, r4, r5, pc}

000d9cce <_ZNKSt14default_deleteI3UDPEclEPS0_.isra.8.constprop.13>:
   d9cce:	b110      	cbz	r0, d9cd6 <_ZNKSt14default_deleteI3UDPEclEPS0_.isra.8.constprop.13+0x8>
   d9cd0:	6803      	ldr	r3, [r0, #0]
   d9cd2:	685b      	ldr	r3, [r3, #4]
   d9cd4:	4718      	bx	r3
   d9cd6:	4770      	bx	lr

000d9cd8 <_ZN6ThreadD1Ev>:
    Thread(Thread&& thread)
        : d_(std::move(thread.d_))
    {
    }

    ~Thread()
   d9cd8:	b510      	push	{r4, lr}
      }

      /// Return the stored pointer.
      pointer
      get() const noexcept
      { return std::get<0>(_M_t); }
   d9cda:	6803      	ldr	r3, [r0, #0]
   d9cdc:	4604      	mov	r4, r0
        dispose();
    }

    void dispose()
    {
        if (!isValid())
   d9cde:	b1bb      	cbz	r3, d9d10 <_ZN6ThreadD1Ev+0x38>
        return isCurrent();
    }

    bool isCurrent() const
    {
        return isValid() && os_thread_is_current(d_->handle);
   d9ce0:	6858      	ldr	r0, [r3, #4]
   d9ce2:	f7fe fd27 	bl	d8734 <os_thread_is_current>
   d9ce6:	b978      	cbnz	r0, d9d08 <_ZN6ThreadD1Ev+0x30>
   d9ce8:	6823      	ldr	r3, [r4, #0]

        // We shouldn't dispose of current thread
        if (isCurrent())
            return;

        if (!d_->exited) {
   d9cea:	7c5a      	ldrb	r2, [r3, #17]
   d9cec:	b912      	cbnz	r2, d9cf4 <_ZN6ThreadD1Ev+0x1c>
        d_.reset();
    }

    bool join()
    {
        return isValid() && os_thread_join(d_->handle)==0;
   d9cee:	6858      	ldr	r0, [r3, #4]
   d9cf0:	f7fe fd30 	bl	d8754 <os_thread_join>

        if (!d_->exited) {
            join();
        }

        os_thread_cleanup(d_->handle);
   d9cf4:	6823      	ldr	r3, [r4, #0]
   d9cf6:	6858      	ldr	r0, [r3, #4]
   d9cf8:	f7fe fd34 	bl	d8764 <os_thread_cleanup>
#endif
    {
      // concept requirements
      __glibcxx_function_requires(_SGIAssignableConcept<_Tp>)

      _Tp __tmp = _GLIBCXX_MOVE(__a);
   d9cfc:	6820      	ldr	r0, [r4, #0]
      __a = _GLIBCXX_MOVE(__b);
   d9cfe:	2300      	movs	r3, #0
   d9d00:	6023      	str	r3, [r4, #0]
      void
      reset(pointer __p = pointer()) noexcept
      {
	using std::swap;
	swap(std::get<0>(_M_t), __p);
	if (__p != pointer())
   d9d02:	b128      	cbz	r0, d9d10 <_ZN6ThreadD1Ev+0x38>
	  get_deleter()(__p);
   d9d04:	f7ff ffcd 	bl	d9ca2 <_ZNKSt14default_deleteIN6Thread4DataEEclEPS1_.isra.6>

      /// Destructor, invokes the deleter if the stored pointer is not null.
      ~unique_ptr() noexcept
      {
	auto& __ptr = std::get<0>(_M_t);
	if (__ptr != nullptr)
   d9d08:	6820      	ldr	r0, [r4, #0]
   d9d0a:	b108      	cbz	r0, d9d10 <_ZN6ThreadD1Ev+0x38>
	  get_deleter()(__ptr);
   d9d0c:	f7ff ffc9 	bl	d9ca2 <_ZNKSt14default_deleteIN6Thread4DataEEclEPS1_.isra.6>
    }

    ~Thread()
    {
        dispose();
    }
   d9d10:	4620      	mov	r0, r4
   d9d12:	bd10      	pop	{r4, pc}

000d9d14 <_ZN5spark11MeshPublishD1Ev>:
    virtual float getQualityValue() const {
        return 0.0f;
    }
};

class MeshPublish {
   d9d14:	b538      	push	{r3, r4, r5, lr}
   d9d16:	4604      	mov	r4, r0

      /// Destructor, invokes the deleter if the stored pointer is not null.
      ~unique_ptr()
      {
	auto& __ptr = std::get<0>(_M_t);
	if (__ptr != nullptr)
   d9d18:	f8d0 01c4 	ldr.w	r0, [r0, #452]	; 0x1c4
   d9d1c:	b108      	cbz	r0, d9d22 <_ZN5spark11MeshPublishD1Ev+0xe>
      void
      operator()(_Tp* __ptr) const
      {
	static_assert(sizeof(_Tp)>0,
		      "can't delete pointer to incomplete type");
	delete [] __ptr;
   d9d1e:	f7fa f9c2 	bl	d40a6 <_ZdaPv>
        dispose();
    }

    void dispose()
    {
        if (handle_) {
   d9d22:	f8d4 01c0 	ldr.w	r0, [r4, #448]	; 0x1c0
   d9d26:	b108      	cbz	r0, d9d2c <_ZN5spark11MeshPublishD1Ev+0x18>
            os_mutex_recursive_destroy(handle_);
   d9d28:	f7fe fd54 	bl	d87d4 <os_mutex_recursive_destroy>

      /// Destructor, invokes the deleter if the stored pointer is not null.
      ~unique_ptr() noexcept
      {
	auto& __ptr = std::get<0>(_M_t);
	if (__ptr != nullptr)
   d9d2c:	f8d4 51bc 	ldr.w	r5, [r4, #444]	; 0x1bc
   d9d30:	b135      	cbz	r5, d9d40 <_ZN5spark11MeshPublishD1Ev+0x2c>
      {
	static_assert(!is_void<_Tp>::value,
		      "can't delete pointer to incomplete type");
	static_assert(sizeof(_Tp)>0,
		      "can't delete pointer to incomplete type");
	delete __ptr;
   d9d32:	4628      	mov	r0, r5
   d9d34:	f7ff ffd0 	bl	d9cd8 <_ZN6ThreadD1Ev>
   d9d38:	2104      	movs	r1, #4
   d9d3a:	4628      	mov	r0, r5
   d9d3c:	f000 fcbc 	bl	da6b8 <_ZdlPvj>

      /// Destructor, invokes the deleter if the stored pointer is not null.
      ~unique_ptr() noexcept
      {
	auto& __ptr = std::get<0>(_M_t);
	if (__ptr != nullptr)
   d9d40:	6820      	ldr	r0, [r4, #0]
   d9d42:	b108      	cbz	r0, d9d48 <_ZN5spark11MeshPublishD1Ev+0x34>
	  get_deleter()(__ptr);
   d9d44:	f7ff ffc3 	bl	d9cce <_ZNKSt14default_deleteI3UDPEclEPS0_.isra.8.constprop.13>
   d9d48:	4620      	mov	r0, r4
   d9d4a:	bd38      	pop	{r3, r4, r5, pc}

000d9d4c <_ZN5spark9MeshClassD1Ev>:
    RecursiveMutex mutex_;
    std::unique_ptr<uint8_t[]> buffer_;
    std::atomic_bool exit_;
};

class MeshClass : public NetworkClass, public MeshPublish {
   d9d4c:	b510      	push	{r4, lr}
   d9d4e:	4b04      	ldr	r3, [pc, #16]	; (d9d60 <_ZN5spark9MeshClassD1Ev+0x14>)
   d9d50:	4604      	mov	r4, r0
   d9d52:	f840 3b08 	str.w	r3, [r0], #8
   d9d56:	f7ff ffdd 	bl	d9d14 <_ZN5spark11MeshPublishD1Ev>
   d9d5a:	4620      	mov	r0, r4
   d9d5c:	bd10      	pop	{r4, pc}
   d9d5e:	bf00      	nop
   d9d60:	000dc1c8 	.word	0x000dc1c8

000d9d64 <_GLOBAL__sub_I__ZN5spark11MeshPublish13Subscriptions20event_handler_existsEPKcPFvS3_S3_EPvN17SubscriptionScope4EnumES3_>:

    return addr;
}

MeshClass Mesh;
} // namespace spark
   d9d64:	b538      	push	{r3, r4, r5, lr}
   d9d66:	4c0e      	ldr	r4, [pc, #56]	; (d9da0 <_GLOBAL__sub_I__ZN5spark11MeshPublish13Subscriptions20event_handler_existsEPKcPFvS3_S3_EPvN17SubscriptionScope4EnumES3_+0x3c>)
   d9d68:	4b0e      	ldr	r3, [pc, #56]	; (d9da4 <_GLOBAL__sub_I__ZN5spark11MeshPublish13Subscriptions20event_handler_existsEPKcPFvS3_S3_EPvN17SubscriptionScope4EnumES3_+0x40>)
   d9d6a:	6023      	str	r3, [r4, #0]

  template<std::size_t _Idx, typename _Head>
    struct _Head_base<_Idx, _Head, false>
    {
      constexpr _Head_base()
      : _M_head_impl() { }
   d9d6c:	2500      	movs	r5, #0
   d9d6e:	2302      	movs	r3, #2
     */
    RecursiveMutex(os_mutex_recursive_t handle) : handle_(handle) {}

    RecursiveMutex() : handle_(nullptr)
    {
        os_mutex_recursive_create(&handle_);
   d9d70:	f504 70e4 	add.w	r0, r4, #456	; 0x1c8
   d9d74:	6063      	str	r3, [r4, #4]
   d9d76:	60a5      	str	r5, [r4, #8]
   d9d78:	f8c4 51c4 	str.w	r5, [r4, #452]	; 0x1c4
    /**
     * Creates a shared mutex.
     */
    RecursiveMutex(os_mutex_recursive_t handle) : handle_(handle) {}

    RecursiveMutex() : handle_(nullptr)
   d9d7c:	f8c4 51c8 	str.w	r5, [r4, #456]	; 0x1c8
    {
        os_mutex_recursive_create(&handle_);
   d9d80:	f7fe fd20 	bl	d87c4 <os_mutex_recursive_create>
public:
    MeshClass() :
            NetworkClass(NETWORK_INTERFACE_MESH) {
   d9d84:	4b08      	ldr	r3, [pc, #32]	; (d9da8 <_GLOBAL__sub_I__ZN5spark11MeshPublish13Subscriptions20event_handler_existsEPKcPFvS3_S3_EPvN17SubscriptionScope4EnumES3_+0x44>)
   d9d86:	f8c4 51cc 	str.w	r5, [r4, #460]	; 0x1cc
      __atomic_base(const __atomic_base&) = delete;
      __atomic_base& operator=(const __atomic_base&) = delete;
      __atomic_base& operator=(const __atomic_base&) volatile = delete;

      // Requires __int_type convertible to _M_i.
      constexpr __atomic_base(__int_type __i) noexcept : _M_i (__i) { }
   d9d8a:	f884 51d0 	strb.w	r5, [r4, #464]	; 0x1d0
   d9d8e:	6023      	str	r3, [r4, #0]
    }

    return addr;
}

MeshClass Mesh;
   d9d90:	4620      	mov	r0, r4
   d9d92:	4a06      	ldr	r2, [pc, #24]	; (d9dac <_GLOBAL__sub_I__ZN5spark11MeshPublish13Subscriptions20event_handler_existsEPKcPFvS3_S3_EPvN17SubscriptionScope4EnumES3_+0x48>)
   d9d94:	4906      	ldr	r1, [pc, #24]	; (d9db0 <_GLOBAL__sub_I__ZN5spark11MeshPublish13Subscriptions20event_handler_existsEPKcPFvS3_S3_EPvN17SubscriptionScope4EnumES3_+0x4c>)
} // namespace spark
   d9d96:	e8bd 4038 	ldmia.w	sp!, {r3, r4, r5, lr}
    }

    return addr;
}

MeshClass Mesh;
   d9d9a:	f000 bc7f 	b.w	da69c <__aeabi_atexit>
   d9d9e:	bf00      	nop
   d9da0:	2003e2e8 	.word	0x2003e2e8
   d9da4:	000dc27c 	.word	0x000dc27c
   d9da8:	000dc1c8 	.word	0x000dc1c8
   d9dac:	2003d9bc 	.word	0x2003d9bc
   d9db0:	000d9d4d 	.word	0x000d9d4d

000d9db4 <_ZN9TCPClient5writeEh>:
    done.dismiss();

    return 1; // success
}

size_t TCPClient::write(uint8_t b) {
   d9db4:	b537      	push	{r0, r1, r2, r4, r5, lr}
   d9db6:	ac02      	add	r4, sp, #8
    return write(&b, 1, SOCKET_WAIT_FOREVER);
   d9db8:	6803      	ldr	r3, [r0, #0]
    done.dismiss();

    return 1; // success
}

size_t TCPClient::write(uint8_t b) {
   d9dba:	f804 1d01 	strb.w	r1, [r4, #-1]!
    return write(&b, 1, SOCKET_WAIT_FOREVER);
   d9dbe:	6bdd      	ldr	r5, [r3, #60]	; 0x3c
   d9dc0:	2201      	movs	r2, #1
   d9dc2:	f04f 33ff 	mov.w	r3, #4294967295
   d9dc6:	4621      	mov	r1, r4
   d9dc8:	47a8      	blx	r5
}
   d9dca:	b003      	add	sp, #12
   d9dcc:	bd30      	pop	{r4, r5, pc}

000d9dce <_ZN9TCPClient5writeEPKhj>:

size_t TCPClient::write(const uint8_t *buffer, size_t size) {
   d9dce:	b410      	push	{r4}
    return write(buffer, size, SOCKET_WAIT_FOREVER);
   d9dd0:	6803      	ldr	r3, [r0, #0]
   d9dd2:	6bdc      	ldr	r4, [r3, #60]	; 0x3c
   d9dd4:	f04f 33ff 	mov.w	r3, #4294967295
   d9dd8:	46a4      	mov	ip, r4
}
   d9dda:	f85d 4b04 	ldr.w	r4, [sp], #4
size_t TCPClient::write(uint8_t b) {
    return write(&b, 1, SOCKET_WAIT_FOREVER);
}

size_t TCPClient::write(const uint8_t *buffer, size_t size) {
    return write(buffer, size, SOCKET_WAIT_FOREVER);
   d9dde:	4760      	bx	ip

000d9de0 <_ZN9TCPClient5writeEhm>:
}

size_t TCPClient::write(uint8_t b, system_tick_t timeout) {
   d9de0:	b537      	push	{r0, r1, r2, r4, r5, lr}
   d9de2:	ac02      	add	r4, sp, #8
    return write(&b, 1, timeout);
   d9de4:	6803      	ldr	r3, [r0, #0]

size_t TCPClient::write(const uint8_t *buffer, size_t size) {
    return write(buffer, size, SOCKET_WAIT_FOREVER);
}

size_t TCPClient::write(uint8_t b, system_tick_t timeout) {
   d9de6:	f804 1d01 	strb.w	r1, [r4, #-1]!
    return write(&b, 1, timeout);
   d9dea:	6bdd      	ldr	r5, [r3, #60]	; 0x3c
   d9dec:	4621      	mov	r1, r4
   d9dee:	4613      	mov	r3, r2
   d9df0:	2201      	movs	r2, #1
   d9df2:	47a8      	blx	r5
}
   d9df4:	b003      	add	sp, #12
   d9df6:	bd30      	pop	{r4, r5, pc}

000d9df8 <_ZN9TCPClient5flushEv>:
void TCPClient::flush_buffer() {
    d_->offset = 0;
    d_->total = 0;
}

void TCPClient::flush() {
   d9df8:	4770      	bx	lr

000d9dfa <_ZN9TCPClient9connectedEv>:
    d_->sock = -1;
    d_->remoteIP.clear();
    flush_buffer();
}

uint8_t TCPClient::connected() {
   d9dfa:	b538      	push	{r3, r4, r5, lr}
   d9dfc:	6943      	ldr	r3, [r0, #20]
    bool rv = (status() || bufferCount());
   d9dfe:	681a      	ldr	r2, [r3, #0]
   d9e00:	2a00      	cmp	r2, #0
    d_->sock = -1;
    d_->remoteIP.clear();
    flush_buffer();
}

uint8_t TCPClient::connected() {
   d9e02:	4604      	mov	r4, r0
    bool rv = (status() || bufferCount());
   d9e04:	da05      	bge.n	d9e12 <_ZN9TCPClient9connectedEv+0x18>
   d9e06:	f8b3 2086 	ldrh.w	r2, [r3, #134]	; 0x86
   d9e0a:	f8b3 3084 	ldrh.w	r3, [r3, #132]	; 0x84
   d9e0e:	429a      	cmp	r2, r3
   d9e10:	d001      	beq.n	d9e16 <_ZN9TCPClient9connectedEv+0x1c>
   d9e12:	2501      	movs	r5, #1
   d9e14:	e00b      	b.n	d9e2e <_ZN9TCPClient9connectedEv+0x34>
    if (!rv) {
        rv = available();
   d9e16:	6803      	ldr	r3, [r0, #0]
   d9e18:	691b      	ldr	r3, [r3, #16]
   d9e1a:	4798      	blx	r3
   d9e1c:	2800      	cmp	r0, #0
   d9e1e:	bf14      	ite	ne
   d9e20:	2501      	movne	r5, #1
   d9e22:	2500      	moveq	r5, #0
        if (!rv) {
   d9e24:	d103      	bne.n	d9e2e <_ZN9TCPClient9connectedEv+0x34>
            stop();
   d9e26:	6823      	ldr	r3, [r4, #0]
   d9e28:	4620      	mov	r0, r4
   d9e2a:	6adb      	ldr	r3, [r3, #44]	; 0x2c
   d9e2c:	4798      	blx	r3
        }
    }
    return rv;
}
   d9e2e:	4628      	mov	r0, r5
   d9e30:	bd38      	pop	{r3, r4, r5, pc}

000d9e32 <_ZN9TCPClientcvbEv>:

uint8_t TCPClient::status() {
    return (isOpen(d_->sock));
   d9e32:	6943      	ldr	r3, [r0, #20]
}

TCPClient::operator bool() {
   return (status() != 0);
   d9e34:	6818      	ldr	r0, [r3, #0]
}
   d9e36:	43c0      	mvns	r0, r0
   d9e38:	0fc0      	lsrs	r0, r0, #31
   d9e3a:	4770      	bx	lr

000d9e3c <_ZNSt19_Sp_counted_deleterIPN9TCPClient4DataENSt12__shared_ptrIS1_LN9__gnu_cxx12_Lock_policyE0EE8_DeleterISaIS1_EEES8_LS5_0EED1Ev>:

      // __d(__p) must not throw.
      _Sp_counted_deleter(_Ptr __p, _Deleter __d, const _Alloc& __a) noexcept
      : _M_impl(__p, __d, __a) { }

      ~_Sp_counted_deleter() noexcept { }
   d9e3c:	4770      	bx	lr

000d9e3e <_ZNSt19_Sp_counted_deleterIPN9TCPClient4DataENSt12__shared_ptrIS1_LN9__gnu_cxx12_Lock_policyE0EE8_DeleterISaIS1_EEES8_LS5_0EE14_M_get_deleterERKSt9type_info>:
	  ? std::__addressof(_M_impl._M_del())
	  : nullptr;
#else
        return nullptr;
#endif
      }
   d9e3e:	2000      	movs	r0, #0
   d9e40:	4770      	bx	lr

000d9e42 <_ZNSt19_Sp_counted_deleterIPN9TCPClient4DataENSt12__shared_ptrIS1_LN9__gnu_cxx12_Lock_policyE0EE8_DeleterISaIS1_EEES8_LS5_0EED0Ev>:

      // __d(__p) must not throw.
      _Sp_counted_deleter(_Ptr __p, _Deleter __d, const _Alloc& __a) noexcept
      : _M_impl(__p, __d, __a) { }

      ~_Sp_counted_deleter() noexcept { }
   d9e42:	b510      	push	{r4, lr}
   d9e44:	2114      	movs	r1, #20
   d9e46:	4604      	mov	r4, r0
   d9e48:	f000 fc36 	bl	da6b8 <_ZdlPvj>
   d9e4c:	4620      	mov	r0, r4
   d9e4e:	bd10      	pop	{r4, pc}

000d9e50 <_ZNSt19_Sp_counted_deleterIPN9TCPClient4DataENSt12__shared_ptrIS1_LN9__gnu_cxx12_Lock_policyE0EE8_DeleterISaIS1_EEES8_LS5_0EE10_M_destroyEv>:
      }

      // __p is not permitted to be a null pointer.
      void
      deallocate(pointer __p, size_type)
      { ::operator delete(__p); }
   d9e50:	f7fa b927 	b.w	d40a2 <_ZdlPv>

000d9e54 <_ZN9TCPClient5writeEPKhjm>:

size_t TCPClient::write(uint8_t b, system_tick_t timeout) {
    return write(&b, 1, timeout);
}

size_t TCPClient::write(const uint8_t *buffer, size_t size, system_tick_t timeout) {
   d9e54:	b57f      	push	{r0, r1, r2, r3, r4, r5, r6, lr}
   d9e56:	4616      	mov	r6, r2

    size_t printNumber(unsigned long, uint8_t);
    size_t printNumber(unsigned long long, uint8_t);
    size_t printFloat(double, uint8_t);
  protected:
    void setWriteError(int err = 1) { write_error = err; }
   d9e58:	2200      	movs	r2, #0
   d9e5a:	6042      	str	r2, [r0, #4]
    clearWriteError();
    struct timeval tv = {};
   d9e5c:	9202      	str	r2, [sp, #8]
   d9e5e:	9203      	str	r2, [sp, #12]
    if (timeout != SOCKET_WAIT_FOREVER) {
   d9e60:	1c5a      	adds	r2, r3, #1

size_t TCPClient::write(uint8_t b, system_tick_t timeout) {
    return write(&b, 1, timeout);
}

size_t TCPClient::write(const uint8_t *buffer, size_t size, system_tick_t timeout) {
   d9e62:	4604      	mov	r4, r0
   d9e64:	460d      	mov	r5, r1
    clearWriteError();
    struct timeval tv = {};
    if (timeout != SOCKET_WAIT_FOREVER) {
   d9e66:	d008      	beq.n	d9e7a <_ZN9TCPClient5writeEPKhjm+0x26>
        tv.tv_sec = timeout / 1000;
   d9e68:	f44f 727a 	mov.w	r2, #1000	; 0x3e8
   d9e6c:	fbb3 f1f2 	udiv	r1, r3, r2
   d9e70:	9102      	str	r1, [sp, #8]
        tv.tv_usec = (timeout % 1000) * 1000;
   d9e72:	fb02 3111 	mls	r1, r2, r1, r3
   d9e76:	434a      	muls	r2, r1
   d9e78:	9203      	str	r2, [sp, #12]
    }
    int ret = sock_setsockopt(d_->sock, SOL_SOCKET, SO_SNDTIMEO, &tv, sizeof(tv));
   d9e7a:	6960      	ldr	r0, [r4, #20]
   d9e7c:	2308      	movs	r3, #8
   d9e7e:	9300      	str	r3, [sp, #0]
   d9e80:	f241 0205 	movw	r2, #4101	; 0x1005
   d9e84:	446b      	add	r3, sp
   d9e86:	f640 71ff 	movw	r1, #4095	; 0xfff
   d9e8a:	6800      	ldr	r0, [r0, #0]
   d9e8c:	f7fe fd6a 	bl	d8964 <sock_setsockopt>
    if (ret < 0) {
   d9e90:	2800      	cmp	r0, #0
   d9e92:	db08      	blt.n	d9ea6 <_ZN9TCPClient5writeEPKhjm+0x52>
        setWriteError(errno);
        return 0;
    }

    ret = sock_send(d_->sock, buffer, size, 0);
   d9e94:	6960      	ldr	r0, [r4, #20]
   d9e96:	2300      	movs	r3, #0
   d9e98:	4632      	mov	r2, r6
   d9e9a:	4629      	mov	r1, r5
   d9e9c:	6800      	ldr	r0, [r0, #0]
   d9e9e:	f7fe fd81 	bl	d89a4 <sock_send>
    if (ret < 0) {
   d9ea2:	2800      	cmp	r0, #0
   d9ea4:	da04      	bge.n	d9eb0 <_ZN9TCPClient5writeEPKhjm+0x5c>
        setWriteError(errno);
   d9ea6:	f7fe fec1 	bl	d8c2c <__errno>
   d9eaa:	6803      	ldr	r3, [r0, #0]
   d9eac:	6063      	str	r3, [r4, #4]
   d9eae:	2000      	movs	r0, #0
        return 0;
    }

    return ret;
}
   d9eb0:	b004      	add	sp, #16
   d9eb2:	bd70      	pop	{r4, r5, r6, pc}

000d9eb4 <_ZNSt16_Sp_counted_baseILN9__gnu_cxx12_Lock_policyE0EE10_M_releaseEv.part.4.constprop.31>:
    _Sp_counted_base<_S_single>::_M_add_ref_copy()
    { ++_M_use_count; }

  template<>
    inline void
    _Sp_counted_base<_S_single>::_M_release() noexcept
   d9eb4:	b510      	push	{r4, lr}
    {
      if (--_M_use_count == 0)
        {
          _M_dispose();
   d9eb6:	6803      	ldr	r3, [r0, #0]
    _Sp_counted_base<_S_single>::_M_add_ref_copy()
    { ++_M_use_count; }

  template<>
    inline void
    _Sp_counted_base<_S_single>::_M_release() noexcept
   d9eb8:	4604      	mov	r4, r0
    {
      if (--_M_use_count == 0)
        {
          _M_dispose();
   d9eba:	689b      	ldr	r3, [r3, #8]
   d9ebc:	4798      	blx	r3
          if (--_M_weak_count == 0)
   d9ebe:	68a3      	ldr	r3, [r4, #8]
   d9ec0:	3b01      	subs	r3, #1
   d9ec2:	60a3      	str	r3, [r4, #8]
   d9ec4:	b92b      	cbnz	r3, d9ed2 <_ZNSt16_Sp_counted_baseILN9__gnu_cxx12_Lock_policyE0EE10_M_releaseEv.part.4.constprop.31+0x1e>
            _M_destroy();
   d9ec6:	6823      	ldr	r3, [r4, #0]
   d9ec8:	4620      	mov	r0, r4
   d9eca:	68db      	ldr	r3, [r3, #12]
        }
    }
   d9ecc:	e8bd 4010 	ldmia.w	sp!, {r4, lr}
    {
      if (--_M_use_count == 0)
        {
          _M_dispose();
          if (--_M_weak_count == 0)
            _M_destroy();
   d9ed0:	4718      	bx	r3
   d9ed2:	bd10      	pop	{r4, pc}

000d9ed4 <_ZN9TCPClient8remoteIPEv>:

TCPClient::operator bool() {
   return (status() != 0);
}

IPAddress TCPClient::remoteIP() {
   d9ed4:	b570      	push	{r4, r5, r6, lr}

/**
 * The IP address stored in host order.
 *
 */
class IPAddress : public Printable {
   d9ed6:	4604      	mov	r4, r0
   d9ed8:	694d      	ldr	r5, [r1, #20]
   d9eda:	4b05      	ldr	r3, [pc, #20]	; (d9ef0 <_ZN9TCPClient8remoteIPEv+0x1c>)
   d9edc:	f844 3b04 	str.w	r3, [r4], #4
   d9ee0:	358c      	adds	r5, #140	; 0x8c
   d9ee2:	4606      	mov	r6, r0
   d9ee4:	cd0f      	ldmia	r5!, {r0, r1, r2, r3}
   d9ee6:	c40f      	stmia	r4!, {r0, r1, r2, r3}
   d9ee8:	682b      	ldr	r3, [r5, #0]
   d9eea:	7023      	strb	r3, [r4, #0]
    return d_->remoteIP;
}
   d9eec:	4630      	mov	r0, r6
   d9eee:	bd70      	pop	{r4, r5, r6, pc}
   d9ef0:	000dc0f8 	.word	0x000dc0f8

000d9ef4 <_ZN9TCPClient4peekEv>:
        d_->offset += read;
    }
    return read;
}

int TCPClient::peek() {
   d9ef4:	b510      	push	{r4, lr}
   d9ef6:	6943      	ldr	r3, [r0, #20]
    return (bufferCount() || available()) ? d_->buffer[d_->offset] : -1;
   d9ef8:	f8b3 2086 	ldrh.w	r2, [r3, #134]	; 0x86
   d9efc:	f8b3 3084 	ldrh.w	r3, [r3, #132]	; 0x84
   d9f00:	429a      	cmp	r2, r3
        d_->offset += read;
    }
    return read;
}

int TCPClient::peek() {
   d9f02:	4604      	mov	r4, r0
    return (bufferCount() || available()) ? d_->buffer[d_->offset] : -1;
   d9f04:	d005      	beq.n	d9f12 <_ZN9TCPClient4peekEv+0x1e>
   d9f06:	6962      	ldr	r2, [r4, #20]
   d9f08:	f8b2 3084 	ldrh.w	r3, [r2, #132]	; 0x84
   d9f0c:	4413      	add	r3, r2
   d9f0e:	7918      	ldrb	r0, [r3, #4]
   d9f10:	bd10      	pop	{r4, pc}
   d9f12:	6803      	ldr	r3, [r0, #0]
   d9f14:	691b      	ldr	r3, [r3, #16]
   d9f16:	4798      	blx	r3
   d9f18:	2800      	cmp	r0, #0
   d9f1a:	d1f4      	bne.n	d9f06 <_ZN9TCPClient4peekEv+0x12>
   d9f1c:	f04f 30ff 	mov.w	r0, #4294967295
}
   d9f20:	bd10      	pop	{r4, pc}

000d9f22 <_ZN9TCPClient4readEv>:
    } // isOpen(d_->sock)
    avail = bufferCount();
    return avail;
}

int TCPClient::read() {
   d9f22:	b510      	push	{r4, lr}
   d9f24:	6943      	ldr	r3, [r0, #20]
    return (bufferCount() || available()) ? d_->buffer[d_->offset++] : -1;
   d9f26:	f8b3 2086 	ldrh.w	r2, [r3, #134]	; 0x86
   d9f2a:	f8b3 3084 	ldrh.w	r3, [r3, #132]	; 0x84
   d9f2e:	429a      	cmp	r2, r3
    } // isOpen(d_->sock)
    avail = bufferCount();
    return avail;
}

int TCPClient::read() {
   d9f30:	4604      	mov	r4, r0
    return (bufferCount() || available()) ? d_->buffer[d_->offset++] : -1;
   d9f32:	d008      	beq.n	d9f46 <_ZN9TCPClient4readEv+0x24>
   d9f34:	6962      	ldr	r2, [r4, #20]
   d9f36:	f8b2 3084 	ldrh.w	r3, [r2, #132]	; 0x84
   d9f3a:	1c59      	adds	r1, r3, #1
   d9f3c:	4413      	add	r3, r2
   d9f3e:	f8a2 1084 	strh.w	r1, [r2, #132]	; 0x84
   d9f42:	7918      	ldrb	r0, [r3, #4]
   d9f44:	bd10      	pop	{r4, pc}
   d9f46:	6803      	ldr	r3, [r0, #0]
   d9f48:	691b      	ldr	r3, [r3, #16]
   d9f4a:	4798      	blx	r3
   d9f4c:	2800      	cmp	r0, #0
   d9f4e:	d1f1      	bne.n	d9f34 <_ZN9TCPClient4readEv+0x12>
   d9f50:	f04f 30ff 	mov.w	r0, #4294967295
}
   d9f54:	bd10      	pop	{r4, pc}

000d9f56 <_ZN9TCPClient4readEPhj>:

int TCPClient::read(uint8_t *buffer, size_t size) {
   d9f56:	b5f8      	push	{r3, r4, r5, r6, r7, lr}
   d9f58:	6943      	ldr	r3, [r0, #20]
   d9f5a:	4617      	mov	r7, r2
    int read = -1;
    if (bufferCount() || available()) {
   d9f5c:	f8b3 2086 	ldrh.w	r2, [r3, #134]	; 0x86
   d9f60:	f8b3 3084 	ldrh.w	r3, [r3, #132]	; 0x84
   d9f64:	429a      	cmp	r2, r3

int TCPClient::read() {
    return (bufferCount() || available()) ? d_->buffer[d_->offset++] : -1;
}

int TCPClient::read(uint8_t *buffer, size_t size) {
   d9f66:	4605      	mov	r5, r0
   d9f68:	460e      	mov	r6, r1
    int read = -1;
    if (bufferCount() || available()) {
   d9f6a:	d106      	bne.n	d9f7a <_ZN9TCPClient4readEPhj+0x24>
   d9f6c:	6803      	ldr	r3, [r0, #0]
   d9f6e:	691b      	ldr	r3, [r3, #16]
   d9f70:	4798      	blx	r3
   d9f72:	b910      	cbnz	r0, d9f7a <_ZN9TCPClient4readEPhj+0x24>
int TCPClient::read() {
    return (bufferCount() || available()) ? d_->buffer[d_->offset++] : -1;
}

int TCPClient::read(uint8_t *buffer, size_t size) {
    int read = -1;
   d9f74:	f04f 34ff 	mov.w	r4, #4294967295
   d9f78:	e014      	b.n	d9fa4 <_ZN9TCPClient4readEPhj+0x4e>
   d9f7a:	6969      	ldr	r1, [r5, #20]

    return ret;
}

int TCPClient::bufferCount() {
    return d_->total - d_->offset;
   d9f7c:	f8b1 3084 	ldrh.w	r3, [r1, #132]	; 0x84
   d9f80:	f8b1 4086 	ldrh.w	r4, [r1, #134]	; 0x86
   d9f84:	1ae4      	subs	r4, r4, r3
}

int TCPClient::read(uint8_t *buffer, size_t size) {
    int read = -1;
    if (bufferCount() || available()) {
        read = (size > (size_t) bufferCount()) ? bufferCount() : size;
   d9f86:	42bc      	cmp	r4, r7
   d9f88:	bf28      	it	cs
   d9f8a:	463c      	movcs	r4, r7
        memcpy(buffer, &d_->buffer[d_->offset], read);
   d9f8c:	4419      	add	r1, r3
   d9f8e:	4622      	mov	r2, r4
   d9f90:	3104      	adds	r1, #4
   d9f92:	4630      	mov	r0, r6
   d9f94:	f001 fa1b 	bl	db3ce <memcpy>
   d9f98:	696a      	ldr	r2, [r5, #20]
        d_->offset += read;
   d9f9a:	f8b2 3084 	ldrh.w	r3, [r2, #132]	; 0x84
   d9f9e:	4423      	add	r3, r4
   d9fa0:	f8a2 3084 	strh.w	r3, [r2, #132]	; 0x84
    }
    return read;
}
   d9fa4:	4620      	mov	r0, r4
   d9fa6:	bdf8      	pop	{r3, r4, r5, r6, r7, pc}

000d9fa8 <_ZN9TCPClient7connectEPKctm>:
        : d_(std::make_shared<Data>(sock)) {
    flush_buffer();
}

// return 0 on error, 1 on success
int TCPClient::connect(const char* host, uint16_t port, network_interface_t nif) {
   d9fa8:	e92d 43f0 	stmdb	sp!, {r4, r5, r6, r7, r8, r9, lr}
   d9fac:	4698      	mov	r8, r3
    stop();
   d9fae:	6803      	ldr	r3, [r0, #0]
        : d_(std::make_shared<Data>(sock)) {
    flush_buffer();
}

// return 0 on error, 1 on success
int TCPClient::connect(const char* host, uint16_t port, network_interface_t nif) {
   d9fb0:	b093      	sub	sp, #76	; 0x4c
    stop();
   d9fb2:	6adb      	ldr	r3, [r3, #44]	; 0x2c
        : d_(std::make_shared<Data>(sock)) {
    flush_buffer();
}

// return 0 on error, 1 on success
int TCPClient::connect(const char* host, uint16_t port, network_interface_t nif) {
   d9fb4:	460d      	mov	r5, r1
   d9fb6:	4606      	mov	r6, r0
   d9fb8:	4617      	mov	r7, r2
    stop();
   d9fba:	4798      	blx	r3

    struct addrinfo* ais = nullptr;
   d9fbc:	ab12      	add	r3, sp, #72	; 0x48
   d9fbe:	2400      	movs	r4, #0
   d9fc0:	f843 4d48 	str.w	r4, [r3, #-72]!
    SCOPE_GUARD({
        netdb_freeaddrinfo(ais);
    });
    CHECK_TRUE(netdb_getaddrinfo(host, nullptr, nullptr, &ais) == 0, 0); // return 0
   d9fc4:	4622      	mov	r2, r4
   d9fc6:	4621      	mov	r1, r4
   d9fc8:	4628      	mov	r0, r5
   d9fca:	f7fe fab3 	bl	d8534 <netdb_getaddrinfo>
   d9fce:	4681      	mov	r9, r0
   d9fd0:	2800      	cmp	r0, #0
   d9fd2:	d13d      	bne.n	da050 <_ZN9TCPClient7connectEPKctm+0xa8>

    // FIXME: for now using only the first entry
    if (ais && ais->ai_addr) {
   d9fd4:	9b00      	ldr	r3, [sp, #0]
   d9fd6:	2b00      	cmp	r3, #0
   d9fd8:	d056      	beq.n	da088 <_ZN9TCPClient7connectEPKctm+0xe0>
   d9fda:	695b      	ldr	r3, [r3, #20]
   d9fdc:	2b00      	cmp	r3, #0
   d9fde:	d053      	beq.n	da088 <_ZN9TCPClient7connectEPKctm+0xe0>
        IPAddress addr;
   d9fe0:	a806      	add	r0, sp, #24
   d9fe2:	f7ff fba7 	bl	d9734 <_ZN9IPAddressC1Ev>
        detail::sockaddrToIpAddressPort(ais->ai_addr, addr, nullptr);
   d9fe6:	9b00      	ldr	r3, [sp, #0]
   d9fe8:	695c      	ldr	r4, [r3, #20]
namespace spark {

namespace detail {

inline void sockaddrToIpAddressPort(const struct sockaddr* saddr, IPAddress& addr, uint16_t* port) {
    if (saddr->sa_family == AF_INET) {
   d9fea:	7863      	ldrb	r3, [r4, #1]
   d9fec:	2b02      	cmp	r3, #2
   d9fee:	d101      	bne.n	d9ff4 <_ZN9TCPClient7connectEPKctm+0x4c>
        const struct sockaddr_in* inaddr = (const struct sockaddr_in*)saddr;
        addr = (const uint8_t*)(&inaddr->sin_addr.s_addr);
   d9ff0:	1d21      	adds	r1, r4, #4
   d9ff2:	e013      	b.n	da01c <_ZN9TCPClient7connectEPKctm+0x74>
        if (port) {
            *port = ntohs(inaddr->sin_port);
        }
    }
#if HAL_IPv6
    else if (saddr->sa_family == AF_INET6) {
   d9ff4:	2b0a      	cmp	r3, #10
   d9ff6:	d114      	bne.n	da022 <_ZN9TCPClient7connectEPKctm+0x7a>
        const struct sockaddr_in6* in6addr = (const struct sockaddr_in6*)saddr;
        HAL_IPAddress a = {};
   d9ff8:	2211      	movs	r2, #17
   d9ffa:	4649      	mov	r1, r9
   d9ffc:	a801      	add	r0, sp, #4
   d9ffe:	f001 f9f1 	bl	db3e4 <memset>
        if (!IN6_IS_ADDR_V4MAPPED(&in6addr->sin6_addr)) {
   da002:	68a3      	ldr	r3, [r4, #8]
   da004:	bb33      	cbnz	r3, da054 <_ZN9TCPClient7connectEPKctm+0xac>
   da006:	68e3      	ldr	r3, [r4, #12]
   da008:	bb23      	cbnz	r3, da054 <_ZN9TCPClient7connectEPKctm+0xac>
   da00a:	f64f 70ff 	movw	r0, #65535	; 0xffff
   da00e:	6925      	ldr	r5, [r4, #16]
   da010:	f7fe fbf8 	bl	d8804 <inet_htonl>
   da014:	4285      	cmp	r5, r0
   da016:	d11d      	bne.n	da054 <_ZN9TCPClient7connectEPKctm+0xac>
            memcpy(a.ipv6, in6addr->sin6_addr.s6_addr, sizeof(a.ipv6));
            a.v = 6;
            addr = IPAddress(a);
        } else {
            auto ptr = (const uint32_t*)(in6addr->sin6_addr.s6_addr);
            addr = (const uint8_t*)(&ptr[3]);
   da018:	f104 0114 	add.w	r1, r4, #20
   da01c:	a806      	add	r0, sp, #24
   da01e:	f7ff fbcc 	bl	d97ba <_ZN9IPAddressaSEPKh>
    operator bool() const;

    // For some reason, without this non-const overload GCC struggles to pick right operator
    // for bool conversion of a non-const object
    operator bool() {
        return static_cast<const IPAddress*>(this)->operator bool();
   da022:	a806      	add	r0, sp, #24
   da024:	f7ff fba6 	bl	d9774 <_ZNK9IPAddresscvbEv>
        if (addr) {
   da028:	2800      	cmp	r0, #0
   da02a:	d02d      	beq.n	da088 <_ZN9TCPClient7connectEPKctm+0xe0>
            return connect(addr, port, nif);
   da02c:	6833      	ldr	r3, [r6, #0]

/**
 * The IP address stored in host order.
 *
 */
class IPAddress : public Printable {
   da02e:	ad07      	add	r5, sp, #28
   da030:	f8d3 9020 	ldr.w	r9, [r3, #32]
   da034:	4b18      	ldr	r3, [pc, #96]	; (da098 <_ZN9TCPClient7connectEPKctm+0xf0>)
   da036:	930c      	str	r3, [sp, #48]	; 0x30
   da038:	cd0f      	ldmia	r5!, {r0, r1, r2, r3}
   da03a:	ac0d      	add	r4, sp, #52	; 0x34
   da03c:	c40f      	stmia	r4!, {r0, r1, r2, r3}
   da03e:	682b      	ldr	r3, [r5, #0]
   da040:	7023      	strb	r3, [r4, #0]
   da042:	463a      	mov	r2, r7
   da044:	4643      	mov	r3, r8
   da046:	a90c      	add	r1, sp, #48	; 0x30
   da048:	4630      	mov	r0, r6
   da04a:	47c8      	blx	r9
   da04c:	4681      	mov	r9, r0
   da04e:	e01b      	b.n	da088 <_ZN9TCPClient7connectEPKctm+0xe0>

    struct addrinfo* ais = nullptr;
    SCOPE_GUARD({
        netdb_freeaddrinfo(ais);
    });
    CHECK_TRUE(netdb_getaddrinfo(host, nullptr, nullptr, &ais) == 0, 0); // return 0
   da050:	46a1      	mov	r9, r4
   da052:	e019      	b.n	da088 <_ZN9TCPClient7connectEPKctm+0xe0>
#if HAL_IPv6
    else if (saddr->sa_family == AF_INET6) {
        const struct sockaddr_in6* in6addr = (const struct sockaddr_in6*)saddr;
        HAL_IPAddress a = {};
        if (!IN6_IS_ADDR_V4MAPPED(&in6addr->sin6_addr)) {
            memcpy(a.ipv6, in6addr->sin6_addr.s6_addr, sizeof(a.ipv6));
   da054:	f104 0308 	add.w	r3, r4, #8
   da058:	ad01      	add	r5, sp, #4
   da05a:	3418      	adds	r4, #24
   da05c:	6818      	ldr	r0, [r3, #0]
   da05e:	6859      	ldr	r1, [r3, #4]
   da060:	462a      	mov	r2, r5
   da062:	c203      	stmia	r2!, {r0, r1}
   da064:	3308      	adds	r3, #8
   da066:	42a3      	cmp	r3, r4
   da068:	4615      	mov	r5, r2
   da06a:	d1f7      	bne.n	da05c <_ZN9TCPClient7connectEPKctm+0xb4>
            a.v = 6;
   da06c:	2306      	movs	r3, #6
            addr = IPAddress(a);
   da06e:	a901      	add	r1, sp, #4
   da070:	a80c      	add	r0, sp, #48	; 0x30
   da072:	ad0d      	add	r5, sp, #52	; 0x34
    else if (saddr->sa_family == AF_INET6) {
        const struct sockaddr_in6* in6addr = (const struct sockaddr_in6*)saddr;
        HAL_IPAddress a = {};
        if (!IN6_IS_ADDR_V4MAPPED(&in6addr->sin6_addr)) {
            memcpy(a.ipv6, in6addr->sin6_addr.s6_addr, sizeof(a.ipv6));
            a.v = 6;
   da074:	f88d 3014 	strb.w	r3, [sp, #20]
            addr = IPAddress(a);
   da078:	f7ff fb6a 	bl	d9750 <_ZN9IPAddressC1ERK16_HAL_IPAddress_t>
   da07c:	cd0f      	ldmia	r5!, {r0, r1, r2, r3}
   da07e:	ac07      	add	r4, sp, #28
   da080:	c40f      	stmia	r4!, {r0, r1, r2, r3}
   da082:	682b      	ldr	r3, [r5, #0]
   da084:	7023      	strb	r3, [r4, #0]
   da086:	e7cc      	b.n	da022 <_ZN9TCPClient7connectEPKctm+0x7a>
// return 0 on error, 1 on success
int TCPClient::connect(const char* host, uint16_t port, network_interface_t nif) {
    stop();

    struct addrinfo* ais = nullptr;
    SCOPE_GUARD({
   da088:	9800      	ldr	r0, [sp, #0]
   da08a:	f7fe fa4b 	bl	d8524 <netdb_freeaddrinfo>
            return connect(addr, port, nif);
        }
    }

    return 0; // error, could not connect
}
   da08e:	4648      	mov	r0, r9
   da090:	b013      	add	sp, #76	; 0x4c
   da092:	e8bd 83f0 	ldmia.w	sp!, {r4, r5, r6, r7, r8, r9, pc}
   da096:	bf00      	nop
   da098:	000dc0f8 	.word	0x000dc0f8

000da09c <_ZN9TCPClient12flush_bufferEv>:

int TCPClient::peek() {
    return (bufferCount() || available()) ? d_->buffer[d_->offset] : -1;
}

void TCPClient::flush_buffer() {
   da09c:	6942      	ldr	r2, [r0, #20]
    d_->offset = 0;
   da09e:	2300      	movs	r3, #0
   da0a0:	f8a2 3084 	strh.w	r3, [r2, #132]	; 0x84
   da0a4:	6942      	ldr	r2, [r0, #20]
    d_->total = 0;
   da0a6:	f8a2 3086 	strh.w	r3, [r2, #134]	; 0x86
   da0aa:	4770      	bx	lr

000da0ac <_ZN9TCPClient7connectE9IPAddresstm>:

    return 0; // error, could not connect
}

// return 0 on error, 1 on success
int TCPClient::connect(IPAddress ip, uint16_t port, network_interface_t nif) {
   da0ac:	e92d 41f0 	stmdb	sp!, {r4, r5, r6, r7, r8, lr}
   da0b0:	461e      	mov	r6, r3
    stop();
   da0b2:	6803      	ldr	r3, [r0, #0]

    return 0; // error, could not connect
}

// return 0 on error, 1 on success
int TCPClient::connect(IPAddress ip, uint16_t port, network_interface_t nif) {
   da0b4:	460c      	mov	r4, r1
   da0b6:	b08a      	sub	sp, #40	; 0x28
    stop();
   da0b8:	6adb      	ldr	r3, [r3, #44]	; 0x2c

    return 0; // error, could not connect
}

// return 0 on error, 1 on success
int TCPClient::connect(IPAddress ip, uint16_t port, network_interface_t nif) {
   da0ba:	4605      	mov	r5, r0
   da0bc:	4617      	mov	r7, r2
    stop();
   da0be:	4798      	blx	r3

    NAMED_SCOPE_GUARD(done, {
        stop();
    });

    d_->sock = sock_socket(ip.version() == 4 ? AF_INET : AF_INET6, SOCK_STREAM, IPPROTO_TCP);
   da0c0:	7d23      	ldrb	r3, [r4, #20]
   da0c2:	f8d5 8014 	ldr.w	r8, [r5, #20]
   da0c6:	2b04      	cmp	r3, #4
   da0c8:	bf0c      	ite	eq
   da0ca:	2002      	moveq	r0, #2
   da0cc:	200a      	movne	r0, #10
   da0ce:	2206      	movs	r2, #6
   da0d0:	2101      	movs	r1, #1
   da0d2:	f7fe fc6f 	bl	d89b4 <sock_socket>
   da0d6:	f8c8 0000 	str.w	r0, [r8]
    CHECK_TRUE(d_->sock >= 0, 0); // return 0
   da0da:	696b      	ldr	r3, [r5, #20]
   da0dc:	681b      	ldr	r3, [r3, #0]
   da0de:	2b00      	cmp	r3, #0
   da0e0:	db18      	blt.n	da114 <_ZN9TCPClient7connectE9IPAddresstm+0x68>

    flush_buffer();
   da0e2:	4628      	mov	r0, r5
   da0e4:	f7ff ffda 	bl	da09c <_ZN9TCPClient12flush_bufferEv>

#if HAL_PLATFORM_IFAPI
    // TODO: provide compatibility headers and use if_indextoname()
    if (nif != 0) {
   da0e8:	b1d6      	cbz	r6, da120 <_ZN9TCPClient7connectE9IPAddresstm+0x74>
        struct ifreq ifr = {};
   da0ea:	2300      	movs	r3, #0
        CHECK_TRUE(if_index_to_name(nif, ifr.ifr_name) == 0, 0); // return 0
   da0ec:	a903      	add	r1, sp, #12
   da0ee:	b2f0      	uxtb	r0, r6
    flush_buffer();

#if HAL_PLATFORM_IFAPI
    // TODO: provide compatibility headers and use if_indextoname()
    if (nif != 0) {
        struct ifreq ifr = {};
   da0f0:	9303      	str	r3, [sp, #12]
   da0f2:	f8ad 3010 	strh.w	r3, [sp, #16]
        CHECK_TRUE(if_index_to_name(nif, ifr.ifr_name) == 0, 0); // return 0
   da0f6:	f7fe fad5 	bl	d86a4 <if_index_to_name>
   da0fa:	b958      	cbnz	r0, da114 <_ZN9TCPClient7connectE9IPAddresstm+0x68>
        CHECK_TRUE(sock_setsockopt(d_->sock, SOL_SOCKET, SO_BINDTODEVICE, &ifr, sizeof(ifr)) == 0, 0); // return 0
   da0fc:	6968      	ldr	r0, [r5, #20]
   da0fe:	2306      	movs	r3, #6
   da100:	9300      	str	r3, [sp, #0]
   da102:	f241 020b 	movw	r2, #4107	; 0x100b
   da106:	ab03      	add	r3, sp, #12
   da108:	f640 71ff 	movw	r1, #4095	; 0xfff
   da10c:	6800      	ldr	r0, [r0, #0]
   da10e:	f7fe fc29 	bl	d8964 <sock_setsockopt>
   da112:	b128      	cbz	r0, da120 <_ZN9TCPClient7connectE9IPAddresstm+0x74>

// return 0 on error, 1 on success
int TCPClient::connect(IPAddress ip, uint16_t port, network_interface_t nif) {
    stop();

    NAMED_SCOPE_GUARD(done, {
   da114:	682b      	ldr	r3, [r5, #0]
   da116:	4628      	mov	r0, r5
   da118:	6adb      	ldr	r3, [r3, #44]	; 0x2c

#if HAL_PLATFORM_IFAPI
    // TODO: provide compatibility headers and use if_indextoname()
    if (nif != 0) {
        struct ifreq ifr = {};
        CHECK_TRUE(if_index_to_name(nif, ifr.ifr_name) == 0, 0); // return 0
   da11a:	2400      	movs	r4, #0

// return 0 on error, 1 on success
int TCPClient::connect(IPAddress ip, uint16_t port, network_interface_t nif) {
    stop();

    NAMED_SCOPE_GUARD(done, {
   da11c:	4798      	blx	r3
   da11e:	e03b      	b.n	da198 <_ZN9TCPClient7connectE9IPAddresstm+0xec>
        CHECK_TRUE(if_index_to_name(nif, ifr.ifr_name) == 0, 0); // return 0
        CHECK_TRUE(sock_setsockopt(d_->sock, SOL_SOCKET, SO_BINDTODEVICE, &ifr, sizeof(ifr)) == 0, 0); // return 0
    }
#endif // HAL_PLATFORM_IFAPI

    sockaddr_storage saddr = {};
   da120:	261c      	movs	r6, #28
   da122:	4632      	mov	r2, r6
   da124:	2100      	movs	r1, #0
   da126:	a803      	add	r0, sp, #12
   da128:	f001 f95c 	bl	db3e4 <memset>
    if (ip.version() == 4) {
   da12c:	7d23      	ldrb	r3, [r4, #20]
        auto s = (sockaddr_in*)&saddr;
        s->sin_len = sizeof(saddr);
   da12e:	f88d 600c 	strb.w	r6, [sp, #12]
        CHECK_TRUE(sock_setsockopt(d_->sock, SOL_SOCKET, SO_BINDTODEVICE, &ifr, sizeof(ifr)) == 0, 0); // return 0
    }
#endif // HAL_PLATFORM_IFAPI

    sockaddr_storage saddr = {};
    if (ip.version() == 4) {
   da132:	2b04      	cmp	r3, #4
   da134:	d10c      	bne.n	da150 <_ZN9TCPClient7connectE9IPAddresstm+0xa4>
        auto s = (sockaddr_in*)&saddr;
        s->sin_len = sizeof(saddr);
        s->sin_family = AF_INET;
   da136:	2302      	movs	r3, #2
        s->sin_port = htons(port);
   da138:	4638      	mov	r0, r7

    sockaddr_storage saddr = {};
    if (ip.version() == 4) {
        auto s = (sockaddr_in*)&saddr;
        s->sin_len = sizeof(saddr);
        s->sin_family = AF_INET;
   da13a:	f88d 300d 	strb.w	r3, [sp, #13]
        s->sin_port = htons(port);
   da13e:	f7fe fb69 	bl	d8814 <inet_htons>
   da142:	f8ad 000e 	strh.w	r0, [sp, #14]
        s->sin_addr.s_addr = htonl(ip.raw().ipv4);
   da146:	6860      	ldr	r0, [r4, #4]
   da148:	f7fe fb5c 	bl	d8804 <inet_htonl>
   da14c:	9004      	str	r0, [sp, #16]
   da14e:	e013      	b.n	da178 <_ZN9TCPClient7connectE9IPAddresstm+0xcc>
    } else {
        auto s = (sockaddr_in6*)&saddr;
        s->sin6_len = sizeof(saddr);
        s->sin6_family = AF_INET6;
   da150:	230a      	movs	r3, #10
        s->sin6_port = htons(port);
   da152:	4638      	mov	r0, r7
        s->sin_port = htons(port);
        s->sin_addr.s_addr = htonl(ip.raw().ipv4);
    } else {
        auto s = (sockaddr_in6*)&saddr;
        s->sin6_len = sizeof(saddr);
        s->sin6_family = AF_INET6;
   da154:	f88d 300d 	strb.w	r3, [sp, #13]
        s->sin6_port = htons(port);
   da158:	f7fe fb5c 	bl	d8814 <inet_htons>
        memcpy(s->sin6_addr.s6_addr, ip.raw().ipv6, sizeof(s->sin6_addr.s6_addr));
   da15c:	ae05      	add	r6, sp, #20
        s->sin_addr.s_addr = htonl(ip.raw().ipv4);
    } else {
        auto s = (sockaddr_in6*)&saddr;
        s->sin6_len = sizeof(saddr);
        s->sin6_family = AF_INET6;
        s->sin6_port = htons(port);
   da15e:	f8ad 000e 	strh.w	r0, [sp, #14]
        memcpy(s->sin6_addr.s6_addr, ip.raw().ipv6, sizeof(s->sin6_addr.s6_addr));
   da162:	1d23      	adds	r3, r4, #4
   da164:	f104 0714 	add.w	r7, r4, #20
   da168:	6818      	ldr	r0, [r3, #0]
   da16a:	6859      	ldr	r1, [r3, #4]
   da16c:	4632      	mov	r2, r6
   da16e:	c203      	stmia	r2!, {r0, r1}
   da170:	3308      	adds	r3, #8
   da172:	42bb      	cmp	r3, r7
   da174:	4616      	mov	r6, r2
   da176:	d1f7      	bne.n	da168 <_ZN9TCPClient7connectE9IPAddresstm+0xbc>
    }

    // FIXME: timeout?
    CHECK_TRUE(sock_connect(d_->sock, (const sockaddr*)&saddr, sizeof(saddr)) == 0, 0); // return 0
   da178:	696b      	ldr	r3, [r5, #20]
   da17a:	221c      	movs	r2, #28
   da17c:	a903      	add	r1, sp, #12
   da17e:	6818      	ldr	r0, [r3, #0]
   da180:	f7fe fc00 	bl	d8984 <sock_connect>
   da184:	2800      	cmp	r0, #0
   da186:	d1c5      	bne.n	da114 <_ZN9TCPClient7connectE9IPAddresstm+0x68>
   da188:	3404      	adds	r4, #4
   da18a:	cc0f      	ldmia	r4!, {r0, r1, r2, r3}
   da18c:	696d      	ldr	r5, [r5, #20]
   da18e:	358c      	adds	r5, #140	; 0x8c
   da190:	c50f      	stmia	r5!, {r0, r1, r2, r3}
   da192:	6823      	ldr	r3, [r4, #0]
   da194:	702b      	strb	r3, [r5, #0]

    d_->remoteIP = ip;

    done.dismiss();

    return 1; // success
   da196:	2401      	movs	r4, #1
}
   da198:	4620      	mov	r0, r4
   da19a:	b00a      	add	sp, #40	; 0x28
   da19c:	e8bd 81f0 	ldmia.w	sp!, {r4, r5, r6, r7, r8, pc}

000da1a0 <_ZN9TCPClient4stopEv>:
}

void TCPClient::flush() {
}

void TCPClient::stop() {
   da1a0:	b510      	push	{r4, lr}
    if (isOpen(d_->sock)) {
   da1a2:	6943      	ldr	r3, [r0, #20]
}

void TCPClient::flush() {
}

void TCPClient::stop() {
   da1a4:	4604      	mov	r4, r0
    if (isOpen(d_->sock)) {
   da1a6:	6818      	ldr	r0, [r3, #0]
   da1a8:	2800      	cmp	r0, #0
   da1aa:	db01      	blt.n	da1b0 <_ZN9TCPClient4stopEv+0x10>
        sock_close(d_->sock);
   da1ac:	f7fe fbe2 	bl	d8974 <sock_close>
   da1b0:	6963      	ldr	r3, [r4, #20]
    }
    d_->sock = -1;
   da1b2:	f04f 32ff 	mov.w	r2, #4294967295
   da1b6:	601a      	str	r2, [r3, #0]
        return address;
    }

    virtual size_t printTo(Print& p) const;

    void clear() { memset(&address, 0, sizeof (address)); }
   da1b8:	6960      	ldr	r0, [r4, #20]
   da1ba:	2211      	movs	r2, #17
   da1bc:	2100      	movs	r1, #0
   da1be:	308c      	adds	r0, #140	; 0x8c
   da1c0:	f001 f910 	bl	db3e4 <memset>
    d_->remoteIP.clear();
    flush_buffer();
   da1c4:	4620      	mov	r0, r4
}
   da1c6:	e8bd 4010 	ldmia.w	sp!, {r4, lr}
    if (isOpen(d_->sock)) {
        sock_close(d_->sock);
    }
    d_->sock = -1;
    d_->remoteIP.clear();
    flush_buffer();
   da1ca:	f7ff bf67 	b.w	da09c <_ZN9TCPClient12flush_bufferEv>
	...

000da1d0 <_ZN9TCPClient9availableEv>:
int TCPClient::bufferCount() {
    return d_->total - d_->offset;
}

int TCPClient::available()
{
   da1d0:	b530      	push	{r4, r5, lr}
   da1d2:	6942      	ldr	r2, [r0, #20]
    int avail = 0;

    // At EOB => Flush it
    if (d_->total && (d_->offset == d_->total)) {
   da1d4:	f8b2 3086 	ldrh.w	r3, [r2, #134]	; 0x86
int TCPClient::bufferCount() {
    return d_->total - d_->offset;
}

int TCPClient::available()
{
   da1d8:	b08b      	sub	sp, #44	; 0x2c
   da1da:	4604      	mov	r4, r0
    int avail = 0;

    // At EOB => Flush it
    if (d_->total && (d_->offset == d_->total)) {
   da1dc:	b11b      	cbz	r3, da1e6 <_ZN9TCPClient9availableEv+0x16>
   da1de:	f8b2 2084 	ldrh.w	r2, [r2, #132]	; 0x84
   da1e2:	429a      	cmp	r2, r3
   da1e4:	d040      	beq.n	da268 <_ZN9TCPClient9availableEv+0x98>
   da1e6:	6963      	ldr	r3, [r4, #20]
        flush_buffer();
    }

    if (isOpen(d_->sock)) {
   da1e8:	6818      	ldr	r0, [r3, #0]
   da1ea:	2800      	cmp	r0, #0
   da1ec:	db3f      	blt.n	da26e <_ZN9TCPClient9availableEv+0x9e>
        // Have room
        if (d_->total < arraySize(d_->buffer)) {
   da1ee:	f8b3 5086 	ldrh.w	r5, [r3, #134]	; 0x86
   da1f2:	2d7f      	cmp	r5, #127	; 0x7f
   da1f4:	d83b      	bhi.n	da26e <_ZN9TCPClient9availableEv+0x9e>
            int ret = sock_recv(d_->sock, d_->buffer + d_->total, arraySize(d_->buffer) - d_->total, MSG_DONTWAIT);
   da1f6:	1d19      	adds	r1, r3, #4
   da1f8:	f1c5 0280 	rsb	r2, r5, #128	; 0x80
   da1fc:	2308      	movs	r3, #8
   da1fe:	4429      	add	r1, r5
   da200:	f7fe fbc8 	bl	d8994 <sock_recv>
            if (ret > 0) {
   da204:	2800      	cmp	r0, #0
   da206:	dd0c      	ble.n	da222 <_ZN9TCPClient9availableEv+0x52>
   da208:	6963      	ldr	r3, [r4, #20]
                if (d_->total == 0) {
   da20a:	f8b3 2086 	ldrh.w	r2, [r3, #134]	; 0x86
   da20e:	b90a      	cbnz	r2, da214 <_ZN9TCPClient9availableEv+0x44>
                    d_->offset = 0;
   da210:	f8a3 2084 	strh.w	r2, [r3, #132]	; 0x84
   da214:	6962      	ldr	r2, [r4, #20]
                }
                d_->total += ret;
   da216:	f8b2 3086 	ldrh.w	r3, [r2, #134]	; 0x86
   da21a:	4418      	add	r0, r3
   da21c:	f8a2 0086 	strh.w	r0, [r2, #134]	; 0x86
   da220:	e025      	b.n	da26e <_ZN9TCPClient9availableEv+0x9e>
            } else {
                if (errno != EAGAIN && errno != EWOULDBLOCK) {
   da222:	f7fe fd03 	bl	d8c2c <__errno>
   da226:	6803      	ldr	r3, [r0, #0]
   da228:	2b0b      	cmp	r3, #11
   da22a:	d020      	beq.n	da26e <_ZN9TCPClient9availableEv+0x9e>
   da22c:	f7fe fcfe 	bl	d8c2c <__errno>
   da230:	6803      	ldr	r3, [r0, #0]
   da232:	2b0b      	cmp	r3, #11
   da234:	d01b      	beq.n	da26e <_ZN9TCPClient9availableEv+0x9e>
                    LOG(ERROR, "recv error = %d", errno);
   da236:	2320      	movs	r3, #32
   da238:	2500      	movs	r5, #0
   da23a:	9302      	str	r3, [sp, #8]
   da23c:	9503      	str	r5, [sp, #12]
   da23e:	f7fe fcf5 	bl	d8c2c <__errno>
   da242:	6803      	ldr	r3, [r0, #0]
   da244:	9301      	str	r3, [sp, #4]
   da246:	4b0e      	ldr	r3, [pc, #56]	; (da280 <_ZN9TCPClient9availableEv+0xb0>)
   da248:	9300      	str	r3, [sp, #0]
   da24a:	aa02      	add	r2, sp, #8
   da24c:	462b      	mov	r3, r5
   da24e:	490d      	ldr	r1, [pc, #52]	; (da284 <_ZN9TCPClient9availableEv+0xb4>)
   da250:	2032      	movs	r0, #50	; 0x32
   da252:	f7fe fbef 	bl	d8a34 <log_message>
                    sock_close(d_->sock);
   da256:	6963      	ldr	r3, [r4, #20]
   da258:	6818      	ldr	r0, [r3, #0]
   da25a:	f7fe fb8b 	bl	d8974 <sock_close>
   da25e:	6963      	ldr	r3, [r4, #20]
                    d_->sock = -1;
   da260:	f04f 32ff 	mov.w	r2, #4294967295
   da264:	601a      	str	r2, [r3, #0]
   da266:	e002      	b.n	da26e <_ZN9TCPClient9availableEv+0x9e>
{
    int avail = 0;

    // At EOB => Flush it
    if (d_->total && (d_->offset == d_->total)) {
        flush_buffer();
   da268:	f7ff ff18 	bl	da09c <_ZN9TCPClient12flush_bufferEv>
   da26c:	e7bb      	b.n	da1e6 <_ZN9TCPClient9availableEv+0x16>
   da26e:	6962      	ldr	r2, [r4, #20]
                }
            }
        } // Have Space
    } // isOpen(d_->sock)
    avail = bufferCount();
    return avail;
   da270:	f8b2 3086 	ldrh.w	r3, [r2, #134]	; 0x86
   da274:	f8b2 0084 	ldrh.w	r0, [r2, #132]	; 0x84
   da278:	1a18      	subs	r0, r3, r0
}
   da27a:	b00b      	add	sp, #44	; 0x2c
   da27c:	bd30      	pop	{r4, r5, pc}
   da27e:	bf00      	nop
   da280:	000dc263 	.word	0x000dc263
   da284:	000dc25c 	.word	0x000dc25c

000da288 <_ZN9TCPClient4DataC1Ei>:

IPAddress TCPClient::remoteIP() {
    return d_->remoteIP;
}

TCPClient::Data::Data(sock_handle_t sock)
   da288:	b510      	push	{r4, lr}
        : sock(sock),
          offset(0),
          total(0) {
   da28a:	2300      	movs	r3, #0

IPAddress TCPClient::remoteIP() {
    return d_->remoteIP;
}

TCPClient::Data::Data(sock_handle_t sock)
   da28c:	4604      	mov	r4, r0
        : sock(sock),
          offset(0),
          total(0) {
   da28e:	6001      	str	r1, [r0, #0]
   da290:	f8a0 3084 	strh.w	r3, [r0, #132]	; 0x84
   da294:	f8a0 3086 	strh.w	r3, [r0, #134]	; 0x86
   da298:	3088      	adds	r0, #136	; 0x88
   da29a:	f7ff fa4b 	bl	d9734 <_ZN9IPAddressC1Ev>
}
   da29e:	4620      	mov	r0, r4
   da2a0:	bd10      	pop	{r4, pc}
	...

000da2a4 <_ZN9TCPClientC1Ei>:
   da2a4:	f44f 727a 	mov.w	r2, #1000	; 0x3e8

TCPClient::TCPClient()
        : TCPClient(-1) {
}

TCPClient::TCPClient(sock_handle_t sock)
   da2a8:	b570      	push	{r4, r5, r6, lr}
    size_t printf_impl(bool newline, const char* format, ...);

  public:
    Print() : write_error(0) {}
   da2aa:	2300      	movs	r3, #0
   da2ac:	6082      	str	r2, [r0, #8]
        : d_(std::make_shared<Data>(sock)) {
   da2ae:	4a14      	ldr	r2, [pc, #80]	; (da300 <_ZN9TCPClientC1Ei+0x5c>)
   da2b0:	6043      	str	r3, [r0, #4]
   da2b2:	6002      	str	r2, [r0, #0]
        };

      template<typename _Alloc, typename... _Args>
	__shared_ptr(_Sp_make_shared_tag __tag, const _Alloc& __a,
		     _Args&&... __args)
	: _M_ptr(), _M_refcount()
   da2b4:	6143      	str	r3, [r0, #20]

  template<_Lock_policy _Lp>
    class __shared_count
    {
    public:
      constexpr __shared_count() noexcept : _M_pi(0)
   da2b6:	6183      	str	r3, [r0, #24]

TCPClient::TCPClient()
        : TCPClient(-1) {
}

TCPClient::TCPClient(sock_handle_t sock)
   da2b8:	4604      	mov	r4, r0
      allocate(size_type __n, const void* = 0)
      { 
	if (__n > this->max_size())
	  std::__throw_bad_alloc();

	return static_cast<_Tp*>(::operator new(__n * sizeof(_Tp)));
   da2ba:	20a0      	movs	r0, #160	; 0xa0
   da2bc:	460e      	mov	r6, r1
   da2be:	f7f9 feec 	bl	d409a <_Znwj>

#if __cplusplus >= 201103L
      template<typename _Up, typename... _Args>
        void
        construct(_Up* __p, _Args&&... __args)
	{ ::new((void *)__p) _Up(std::forward<_Args>(__args)...); }
   da2c2:	4605      	mov	r5, r0
   da2c4:	b110      	cbz	r0, da2cc <_ZN9TCPClientC1Ei+0x28>
   da2c6:	4631      	mov	r1, r6
   da2c8:	f7ff ffde 	bl	da288 <_ZN9TCPClient4DataC1Ei>
      allocate(size_type __n, const void* = 0)
      { 
	if (__n > this->max_size())
	  std::__throw_bad_alloc();

	return static_cast<_Tp*>(::operator new(__n * sizeof(_Tp)));
   da2cc:	2014      	movs	r0, #20
   da2ce:	f7f9 fee4 	bl	d409a <_Znwj>
	  __try
	    {
	      typename _Sp_cd_type::__allocator_type __a2(__a);
	      auto __guard = std::__allocate_guarded(__a2);
	      _Sp_cd_type* __mem = __guard.get();
	      ::new (__mem) _Sp_cd_type(__p, std::move(__d), std::move(__a));
   da2d2:	4603      	mov	r3, r0
   da2d4:	b128      	cbz	r0, da2e2 <_ZN9TCPClientC1Ei+0x3e>
    class _Sp_counted_base
    : public _Mutex_base<_Lp>
    {
    public:  
      _Sp_counted_base() noexcept
      : _M_use_count(1), _M_weak_count(1) { }
   da2d6:	2201      	movs	r2, #1
   da2d8:	6042      	str	r2, [r0, #4]
   da2da:	6082      	str	r2, [r0, #8]
      _Sp_counted_deleter(_Ptr __p, _Deleter __d) noexcept
      : _M_impl(__p, __d, _Alloc()) { }

      // __d(__p) must not throw.
      _Sp_counted_deleter(_Ptr __p, _Deleter __d, const _Alloc& __a) noexcept
      : _M_impl(__p, __d, __a) { }
   da2dc:	4a09      	ldr	r2, [pc, #36]	; (da304 <_ZN9TCPClientC1Ei+0x60>)
   da2de:	6002      	str	r2, [r0, #0]
	typedef _Sp_ebo_helper<0, _Deleter>	_Del_base;
	typedef _Sp_ebo_helper<1, _Alloc>	_Alloc_base;

      public:
	_Impl(_Ptr __p, _Deleter __d, const _Alloc& __a) noexcept
	: _M_ptr(__p), _Del_base(__d), _Alloc_base(__a)
   da2e0:	6105      	str	r5, [r0, #16]

      void
      _M_swap(__shared_count& __r) noexcept
      {
	_Sp_counted_base<_Lp>* __tmp = __r._M_pi;
	__r._M_pi = _M_pi;
   da2e2:	69a0      	ldr	r0, [r4, #24]
	  __traits::construct(__del._M_alloc, __ptr,
			      std::forward<_Args>(__args)...);
	  __guard = nullptr;
	  __shared_count<_Lp> __count(__ptr, __del, __del._M_alloc);
	  _M_refcount._M_swap(__count);
	  _M_ptr = __ptr;
   da2e4:	6165      	str	r5, [r4, #20]
      void
      _M_swap(__shared_count& __r) noexcept
      {
	_Sp_counted_base<_Lp>* __tmp = __r._M_pi;
	__r._M_pi = _M_pi;
	_M_pi = __tmp;
   da2e6:	61a3      	str	r3, [r4, #24]
      // Does not throw if __r._M_get_use_count() == 0, caller must check.
      explicit __shared_count(const __weak_count<_Lp>& __r, std::nothrow_t);

      ~__shared_count() noexcept
      {
	if (_M_pi != nullptr)
   da2e8:	b128      	cbz	r0, da2f6 <_ZN9TCPClientC1Ei+0x52>

  template<>
    inline void
    _Sp_counted_base<_S_single>::_M_release() noexcept
    {
      if (--_M_use_count == 0)
   da2ea:	6843      	ldr	r3, [r0, #4]
   da2ec:	3b01      	subs	r3, #1
   da2ee:	6043      	str	r3, [r0, #4]
   da2f0:	b90b      	cbnz	r3, da2f6 <_ZN9TCPClientC1Ei+0x52>
   da2f2:	f7ff fddf 	bl	d9eb4 <_ZNSt16_Sp_counted_baseILN9__gnu_cxx12_Lock_policyE0EE10_M_releaseEv.part.4.constprop.31>
        : d_(std::make_shared<Data>(sock)) {
    flush_buffer();
   da2f6:	4620      	mov	r0, r4
   da2f8:	f7ff fed0 	bl	da09c <_ZN9TCPClient12flush_bufferEv>
}
   da2fc:	4620      	mov	r0, r4
   da2fe:	bd70      	pop	{r4, r5, r6, pc}
   da300:	000dc218 	.word	0x000dc218
   da304:	000dc1fc 	.word	0x000dc1fc

000da308 <_ZN9TCPClientC1Ev>:

static bool inline isOpen(sock_handle_t sd) {
    return socket_handle_valid(sd);
}

TCPClient::TCPClient()
   da308:	b510      	push	{r4, lr}
        : TCPClient(-1) {
   da30a:	f04f 31ff 	mov.w	r1, #4294967295

static bool inline isOpen(sock_handle_t sd) {
    return socket_handle_valid(sd);
}

TCPClient::TCPClient()
   da30e:	4604      	mov	r4, r0
        : TCPClient(-1) {
   da310:	f7ff ffc8 	bl	da2a4 <_ZN9TCPClientC1Ei>
}
   da314:	4620      	mov	r0, r4
   da316:	bd10      	pop	{r4, pc}

000da318 <_ZN9TCPClient4DataD1Ev>:
        : sock(sock),
          offset(0),
          total(0) {
}

TCPClient::Data::~Data() {
   da318:	b510      	push	{r4, lr}
   da31a:	4604      	mov	r4, r0
    if (socket_handle_valid(sock)) {
   da31c:	6800      	ldr	r0, [r0, #0]
   da31e:	2800      	cmp	r0, #0
   da320:	db01      	blt.n	da326 <_ZN9TCPClient4DataD1Ev+0xe>
        sock_close(sock);
   da322:	f7fe fb27 	bl	d8974 <sock_close>
    }
}
   da326:	4620      	mov	r0, r4
   da328:	bd10      	pop	{r4, pc}

000da32a <_ZNSt19_Sp_counted_deleterIPN9TCPClient4DataENSt12__shared_ptrIS1_LN9__gnu_cxx12_Lock_policyE0EE8_DeleterISaIS1_EEES8_LS5_0EE10_M_disposeEv>:
      : _M_impl(__p, __d, __a) { }

      ~_Sp_counted_deleter() noexcept { }

      virtual void
      _M_dispose() noexcept
   da32a:	b510      	push	{r4, lr}
      { _M_impl._M_del()(_M_impl._M_ptr); }
   da32c:	6904      	ldr	r4, [r0, #16]
        construct(_Up* __p, _Args&&... __args)
	{ ::new((void *)__p) _Up(std::forward<_Args>(__args)...); }

      template<typename _Up>
        void 
        destroy(_Up* __p) { __p->~_Up(); }
   da32e:	4620      	mov	r0, r4
   da330:	f7ff fff2 	bl	da318 <_ZN9TCPClient4DataD1Ev>
      { __gd._M_ptr = nullptr; }

      /// Deallocate the owned pointer
      ~__allocated_ptr()
      {
	if (_M_ptr != nullptr)
   da334:	b124      	cbz	r4, da340 <_ZNSt19_Sp_counted_deleterIPN9TCPClient4DataENSt12__shared_ptrIS1_LN9__gnu_cxx12_Lock_policyE0EE8_DeleterISaIS1_EEES8_LS5_0EE10_M_disposeEv+0x16>
      }

      // __p is not permitted to be a null pointer.
      void
      deallocate(pointer __p, size_type)
      { ::operator delete(__p); }
   da336:	4620      	mov	r0, r4
   da338:	e8bd 4010 	ldmia.w	sp!, {r4, lr}
   da33c:	f7f9 beb1 	b.w	d40a2 <_ZdlPv>
   da340:	bd10      	pop	{r4, pc}

000da342 <_ZN5spark12NetworkClass7connectEj>:
        return Network;
    }
}

void NetworkClass::connect(unsigned flags) {
    network_connect(*this, flags, 0, nullptr);
   da342:	2300      	movs	r3, #0
   da344:	461a      	mov	r2, r3
   da346:	6840      	ldr	r0, [r0, #4]
   da348:	f7fe bbb8 	b.w	d8abc <network_connect>

000da34c <_ZN5spark12NetworkClass10disconnectEv>:
}

void NetworkClass::disconnect() {
    network_disconnect(*this, NETWORK_DISCONNECT_REASON_USER, nullptr);
   da34c:	2200      	movs	r2, #0
   da34e:	2102      	movs	r1, #2
   da350:	6840      	ldr	r0, [r0, #4]
   da352:	f7fe bbc3 	b.w	d8adc <network_disconnect>

000da356 <_ZN5spark12NetworkClass10connectingEv>:
}

bool NetworkClass::connecting() {
    return network_connecting(*this, 0, nullptr);
   da356:	2200      	movs	r2, #0
   da358:	4611      	mov	r1, r2
   da35a:	6840      	ldr	r0, [r0, #4]
   da35c:	f7fe bbb6 	b.w	d8acc <network_connecting>

000da360 <_ZN5spark12NetworkClass5readyEv>:
}

bool NetworkClass::ready() {
    return network_ready(*this, 0, nullptr);
   da360:	2200      	movs	r2, #0
   da362:	4611      	mov	r1, r2
   da364:	6840      	ldr	r0, [r0, #4]
   da366:	f7fe bbc1 	b.w	d8aec <network_ready>

000da36a <_ZN5spark12NetworkClass2onEv>:
}

void NetworkClass::on() {
    network_on(*this, 0, 0, nullptr);
   da36a:	2300      	movs	r3, #0
   da36c:	461a      	mov	r2, r3
   da36e:	4619      	mov	r1, r3
   da370:	6840      	ldr	r0, [r0, #4]
   da372:	f7fe bbc3 	b.w	d8afc <network_on>

000da376 <_ZN5spark12NetworkClass3offEv>:
}

void NetworkClass::off() {
    network_off(*this, 0, 0, nullptr);
   da376:	2300      	movs	r3, #0
   da378:	461a      	mov	r2, r3
   da37a:	4619      	mov	r1, r3
   da37c:	6840      	ldr	r0, [r0, #4]
   da37e:	f7fe bbc5 	b.w	d8b0c <network_off>

000da382 <_ZN5spark12NetworkClass6listenEb>:
}

void NetworkClass::listen(bool begin) {
    network_listen(*this, begin ? 0 : 1, nullptr);
   da382:	2200      	movs	r2, #0
   da384:	f081 0101 	eor.w	r1, r1, #1
   da388:	6840      	ldr	r0, [r0, #4]
   da38a:	f7fe bbc7 	b.w	d8b1c <network_listen>

000da38e <_ZN5spark12NetworkClass16setListenTimeoutEt>:
}

void NetworkClass::setListenTimeout(uint16_t timeout) {
    network_set_listen_timeout(*this, timeout, nullptr);
   da38e:	2200      	movs	r2, #0
   da390:	6840      	ldr	r0, [r0, #4]
   da392:	f7fe bbd3 	b.w	d8b3c <network_set_listen_timeout>

000da396 <_ZN5spark12NetworkClass16getListenTimeoutEv>:
}

uint16_t NetworkClass::getListenTimeout() {
    return network_get_listen_timeout(*this, 0, nullptr);
   da396:	2200      	movs	r2, #0
   da398:	4611      	mov	r1, r2
   da39a:	6840      	ldr	r0, [r0, #4]
   da39c:	f7fe bbd6 	b.w	d8b4c <network_get_listen_timeout>

000da3a0 <_ZN5spark12NetworkClass9listeningEv>:
}

bool NetworkClass::listening() {
    return network_listening(*this, 0, nullptr);
   da3a0:	2200      	movs	r2, #0
   da3a2:	4611      	mov	r1, r2
   da3a4:	6840      	ldr	r0, [r0, #4]
   da3a6:	f7fe bbc1 	b.w	d8b2c <network_listening>

000da3aa <_ZN5spark12NetworkClass7resolveEPKc>:
}

IPAddress NetworkClass::resolve(const char* name) {
   da3aa:	e92d 43f0 	stmdb	sp!, {r4, r5, r6, r7, r8, r9, lr}
    IPAddress addr;
#if HAL_USE_INET_HAL_POSIX
    struct addrinfo *ai = nullptr;
   da3ae:	2400      	movs	r4, #0

bool NetworkClass::listening() {
    return network_listening(*this, 0, nullptr);
}

IPAddress NetworkClass::resolve(const char* name) {
   da3b0:	b095      	sub	sp, #84	; 0x54
   da3b2:	4616      	mov	r6, r2
   da3b4:	460d      	mov	r5, r1
   da3b6:	4607      	mov	r7, r0
    IPAddress addr;
   da3b8:	f7ff f9bc 	bl	d9734 <_ZN9IPAddressC1Ev>
#if HAL_USE_INET_HAL_POSIX
    struct addrinfo *ai = nullptr;
    struct addrinfo hints = {};
   da3bc:	4621      	mov	r1, r4
   da3be:	2220      	movs	r2, #32
   da3c0:	a80c      	add	r0, sp, #48	; 0x30
}

IPAddress NetworkClass::resolve(const char* name) {
    IPAddress addr;
#if HAL_USE_INET_HAL_POSIX
    struct addrinfo *ai = nullptr;
   da3c2:	9400      	str	r4, [sp, #0]
    struct addrinfo hints = {};
   da3c4:	f001 f80e 	bl	db3e4 <memset>
    hints.ai_flags = AI_ADDRCONFIG;
   da3c8:	2340      	movs	r3, #64	; 0x40
   da3ca:	930c      	str	r3, [sp, #48]	; 0x30
    hints.ai_family = AF_UNSPEC;
    const int r = getaddrinfo(name, nullptr, &hints, &ai);
   da3cc:	4621      	mov	r1, r4
   da3ce:	466b      	mov	r3, sp
   da3d0:	aa0c      	add	r2, sp, #48	; 0x30
   da3d2:	4630      	mov	r0, r6
   da3d4:	f7fe f8ae 	bl	d8534 <netdb_getaddrinfo>
    if (!r) {
   da3d8:	4604      	mov	r4, r0
   da3da:	2800      	cmp	r0, #0
   da3dc:	d144      	bne.n	da468 <_ZN5spark12NetworkClass7resolveEPKc+0xbe>
        bool ok = false;
        // This is not really needed if AI_ADDRCONFIG is properly supported
        bool ipv4 = network_ready(*this, NETWORK_READY_TYPE_IPV4, nullptr);
   da3de:	4602      	mov	r2, r0
   da3e0:	2101      	movs	r1, #1
   da3e2:	6868      	ldr	r0, [r5, #4]
   da3e4:	f7fe fb82 	bl	d8aec <network_ready>
        bool ipv6 = network_ready(*this, NETWORK_READY_TYPE_IPV6, nullptr);
   da3e8:	2102      	movs	r1, #2
    hints.ai_family = AF_UNSPEC;
    const int r = getaddrinfo(name, nullptr, &hints, &ai);
    if (!r) {
        bool ok = false;
        // This is not really needed if AI_ADDRCONFIG is properly supported
        bool ipv4 = network_ready(*this, NETWORK_READY_TYPE_IPV4, nullptr);
   da3ea:	4680      	mov	r8, r0
        bool ipv6 = network_ready(*this, NETWORK_READY_TYPE_IPV6, nullptr);
   da3ec:	4622      	mov	r2, r4
   da3ee:	6868      	ldr	r0, [r5, #4]
   da3f0:	f7fe fb7c 	bl	d8aec <network_ready>
        for (auto cur = ai; cur != nullptr && !ok; cur = cur->ai_next) {
   da3f4:	9e00      	ldr	r6, [sp, #0]
    const int r = getaddrinfo(name, nullptr, &hints, &ai);
    if (!r) {
        bool ok = false;
        // This is not really needed if AI_ADDRCONFIG is properly supported
        bool ipv4 = network_ready(*this, NETWORK_READY_TYPE_IPV4, nullptr);
        bool ipv6 = network_ready(*this, NETWORK_READY_TYPE_IPV6, nullptr);
   da3f6:	4681      	mov	r9, r0
    struct addrinfo hints = {};
    hints.ai_flags = AI_ADDRCONFIG;
    hints.ai_family = AF_UNSPEC;
    const int r = getaddrinfo(name, nullptr, &hints, &ai);
    if (!r) {
        bool ok = false;
   da3f8:	4621      	mov	r1, r4
        // This is not really needed if AI_ADDRCONFIG is properly supported
        bool ipv4 = network_ready(*this, NETWORK_READY_TYPE_IPV4, nullptr);
        bool ipv6 = network_ready(*this, NETWORK_READY_TYPE_IPV6, nullptr);
        for (auto cur = ai; cur != nullptr && !ok; cur = cur->ai_next) {
   da3fa:	2e00      	cmp	r6, #0
   da3fc:	d034      	beq.n	da468 <_ZN5spark12NetworkClass7resolveEPKc+0xbe>
   da3fe:	2900      	cmp	r1, #0
   da400:	d132      	bne.n	da468 <_ZN5spark12NetworkClass7resolveEPKc+0xbe>
            // NOTE: using only the first entry that matches the current state of IPv4/IPv6 connectivity
            switch (cur->ai_family) {
   da402:	6873      	ldr	r3, [r6, #4]
   da404:	2b02      	cmp	r3, #2
   da406:	d002      	beq.n	da40e <_ZN5spark12NetworkClass7resolveEPKc+0x64>
   da408:	2b0a      	cmp	r3, #10
   da40a:	d009      	beq.n	da420 <_ZN5spark12NetworkClass7resolveEPKc+0x76>
   da40c:	e02a      	b.n	da464 <_ZN5spark12NetworkClass7resolveEPKc+0xba>
                case AF_INET: {
                    if (!ipv4) {
   da40e:	f1b8 0f00 	cmp.w	r8, #0
   da412:	d027      	beq.n	da464 <_ZN5spark12NetworkClass7resolveEPKc+0xba>
                        continue;
                    }
                    // NOTE: HAL_IPAddress is little-endian
                    auto in = (struct sockaddr_in*)cur->ai_addr;
                    addr = (const uint8_t*)(&in->sin_addr.s_addr);
   da414:	6971      	ldr	r1, [r6, #20]
   da416:	4638      	mov	r0, r7
   da418:	3104      	adds	r1, #4
   da41a:	f7ff f9ce 	bl	d97ba <_ZN9IPAddressaSEPKh>
   da41e:	e020      	b.n	da462 <_ZN5spark12NetworkClass7resolveEPKc+0xb8>
                    ok = true;
                    break;
                }
                case AF_INET6: {
                    if (!ipv6) {
   da420:	f1b9 0f00 	cmp.w	r9, #0
   da424:	d01e      	beq.n	da464 <_ZN5spark12NetworkClass7resolveEPKc+0xba>
                        continue;
                    }
                    auto in6 = (struct sockaddr_in6*)cur->ai_addr;
   da426:	6974      	ldr	r4, [r6, #20]
                    HAL_IPAddress a = {};
   da428:	2211      	movs	r2, #17
   da42a:	a801      	add	r0, sp, #4
   da42c:	f000 ffda 	bl	db3e4 <memset>
                    a.v = 6;
   da430:	2306      	movs	r3, #6
   da432:	f88d 3014 	strb.w	r3, [sp, #20]
                    memcpy(a.ipv6, in6->sin6_addr.s6_addr, sizeof(a.ipv6));
   da436:	ad01      	add	r5, sp, #4
   da438:	f104 0308 	add.w	r3, r4, #8
   da43c:	3418      	adds	r4, #24
   da43e:	6818      	ldr	r0, [r3, #0]
   da440:	6859      	ldr	r1, [r3, #4]
   da442:	462a      	mov	r2, r5
   da444:	c203      	stmia	r2!, {r0, r1}
   da446:	3308      	adds	r3, #8
   da448:	42a3      	cmp	r3, r4
   da44a:	4615      	mov	r5, r2
   da44c:	d1f7      	bne.n	da43e <_ZN5spark12NetworkClass7resolveEPKc+0x94>
                    addr = IPAddress(a);
   da44e:	a901      	add	r1, sp, #4
   da450:	a806      	add	r0, sp, #24

/**
 * The IP address stored in host order.
 *
 */
class IPAddress : public Printable {
   da452:	ad07      	add	r5, sp, #28
   da454:	f7ff f97c 	bl	d9750 <_ZN9IPAddressC1ERK16_HAL_IPAddress_t>
   da458:	cd0f      	ldmia	r5!, {r0, r1, r2, r3}
   da45a:	1d3c      	adds	r4, r7, #4
   da45c:	c40f      	stmia	r4!, {r0, r1, r2, r3}
   da45e:	682b      	ldr	r3, [r5, #0]
   da460:	7023      	strb	r3, [r4, #0]
                    ok = true;
   da462:	2101      	movs	r1, #1
    if (!r) {
        bool ok = false;
        // This is not really needed if AI_ADDRCONFIG is properly supported
        bool ipv4 = network_ready(*this, NETWORK_READY_TYPE_IPV4, nullptr);
        bool ipv6 = network_ready(*this, NETWORK_READY_TYPE_IPV6, nullptr);
        for (auto cur = ai; cur != nullptr && !ok; cur = cur->ai_next) {
   da464:	69f6      	ldr	r6, [r6, #28]
   da466:	e7c8      	b.n	da3fa <_ZN5spark12NetworkClass7resolveEPKc+0x50>
                    break;
                }
            }
        }
    }
    freeaddrinfo(ai);
   da468:	9800      	ldr	r0, [sp, #0]
   da46a:	f7fe f85b 	bl	d8524 <netdb_freeaddrinfo>
    return Cellular.resolve(name);
#endif // Wiring_Cellular

#endif // HAL_USE_INET_HAL_POSIX
    return addr;
}
   da46e:	4638      	mov	r0, r7
   da470:	b015      	add	sp, #84	; 0x54
   da472:	e8bd 83f0 	ldmia.w	sp!, {r4, r5, r6, r7, r8, r9, pc}
	...

000da478 <_GLOBAL__sub_I__ZN5spark7NetworkE>:
   da478:	4b02      	ldr	r3, [pc, #8]	; (da484 <_GLOBAL__sub_I__ZN5spark7NetworkE+0xc>)
   da47a:	4a03      	ldr	r2, [pc, #12]	; (da488 <_GLOBAL__sub_I__ZN5spark7NetworkE+0x10>)
   da47c:	601a      	str	r2, [r3, #0]
   da47e:	2200      	movs	r2, #0
   da480:	605a      	str	r2, [r3, #4]
   da482:	4770      	bx	lr
   da484:	2003e4bc 	.word	0x2003e4bc
   da488:	000dc27c 	.word	0x000dc27c

000da48c <pinAvailable>:

/*
 * @brief Perform safety check on desired pin to see if it's already
 * being used.  Return 0 if used, otherwise return 1 if available.
 */
bool pinAvailable(uint16_t pin) {
   da48c:	b570      	push	{r4, r5, r6, lr}

template <HAL_SPI_Interface Interface>
class SpiProxy {
public:
    static SPIClass& instance() {
        static SPIClass instance(Interface);
   da48e:	4e18      	ldr	r6, [pc, #96]	; (da4f0 <pinAvailable+0x64>)
   da490:	6831      	ldr	r1, [r6, #0]
   da492:	f011 0501 	ands.w	r5, r1, #1
   da496:	4604      	mov	r4, r0
   da498:	d10a      	bne.n	da4b0 <pinAvailable+0x24>
   da49a:	4630      	mov	r0, r6
   da49c:	f7f9 fe05 	bl	d40aa <__cxa_guard_acquire>
   da4a0:	b130      	cbz	r0, da4b0 <pinAvailable+0x24>
   da4a2:	4629      	mov	r1, r5
   da4a4:	4813      	ldr	r0, [pc, #76]	; (da4f4 <pinAvailable+0x68>)
   da4a6:	f7fe fc0d 	bl	d8cc4 <_ZN8SPIClassC1E17HAL_SPI_Interface>
   da4aa:	4630      	mov	r0, r6
   da4ac:	f7f9 fe02 	bl	d40b4 <__cxa_guard_release>
    }
    void detachInterrupt() {
        instance().detachInterrupt();
    }
    bool isEnabled(void) {
        return instance().isEnabled();
   da4b0:	4810      	ldr	r0, [pc, #64]	; (da4f4 <pinAvailable+0x68>)
   da4b2:	f7fe fd3c 	bl	d8f2e <_ZN8SPIClass9isEnabledEv>

  // SPI safety check
#ifndef SPARK_WIRING_NO_SPI
  if(SPI.isEnabled() == true && (pin == SCK || pin == MOSI || pin == MISO))
   da4b6:	b128      	cbz	r0, da4c4 <pinAvailable+0x38>
   da4b8:	f1a4 030b 	sub.w	r3, r4, #11
   da4bc:	2b02      	cmp	r3, #2
   da4be:	d801      	bhi.n	da4c4 <pinAvailable+0x38>
  {
    return 0; // 'pin' is used
   da4c0:	2000      	movs	r0, #0
   da4c2:	bd70      	pop	{r4, r5, r6, pc}
  }
#endif
  // I2C safety check
#ifndef SPARK_WIRING_NO_I2C
  if(Wire.isEnabled() == true && (pin == SCL || pin == SDA))
   da4c4:	f000 f89e 	bl	da604 <_Z19__fetch_global_Wirev>
   da4c8:	f7ff fba1 	bl	d9c0e <_ZN7TwoWire9isEnabledEv>
   da4cc:	b108      	cbz	r0, da4d2 <pinAvailable+0x46>
   da4ce:	2c01      	cmp	r4, #1
   da4d0:	d9f6      	bls.n	da4c0 <pinAvailable+0x34>
    return 0; // 'pin' is used
  }
#endif
#ifndef SPARK_WIRING_NO_USART_SERIAL
  // Serial1 safety check
  if(Serial1.isEnabled() == true && (pin == RX || pin == TX))
   da4d2:	f7ff faff 	bl	d9ad4 <_Z22__fetch_global_Serial1v>
   da4d6:	f7ff faf9 	bl	d9acc <_ZN11USARTSerial9isEnabledEv>
   da4da:	b118      	cbz	r0, da4e4 <pinAvailable+0x58>
   da4dc:	f1a4 0309 	sub.w	r3, r4, #9
   da4e0:	2b01      	cmp	r3, #1
   da4e2:	d9ed      	bls.n	da4c0 <pinAvailable+0x34>
  {
    return 0; // 'pin' is used
  }
#endif

  if (pin >= TOTAL_PINS)
   da4e4:	2c23      	cmp	r4, #35	; 0x23
   da4e6:	bf8c      	ite	hi
   da4e8:	2000      	movhi	r0, #0
   da4ea:	2001      	movls	r0, #1
    return 0;
  else
    return 1; // 'pin' is available
}
   da4ec:	bd70      	pop	{r4, r5, r6, pc}
   da4ee:	bf00      	nop
   da4f0:	2003dabc 	.word	0x2003dabc
   da4f4:	2003dac0 	.word	0x2003dac0

000da4f8 <pinMode>:
 * or INPUT_PULLDOWN
 */
void pinMode(uint16_t pin, PinMode setMode)
{

  if(pin >= TOTAL_PINS || setMode == PIN_MODE_NONE )
   da4f8:	2823      	cmp	r0, #35	; 0x23
/*
 * @brief Set the mode of the pin to OUTPUT, INPUT, INPUT_PULLUP,
 * or INPUT_PULLDOWN
 */
void pinMode(uint16_t pin, PinMode setMode)
{
   da4fa:	b538      	push	{r3, r4, r5, lr}
   da4fc:	4604      	mov	r4, r0
   da4fe:	460d      	mov	r5, r1

  if(pin >= TOTAL_PINS || setMode == PIN_MODE_NONE )
   da500:	d80a      	bhi.n	da518 <pinMode+0x20>
   da502:	29ff      	cmp	r1, #255	; 0xff
   da504:	d008      	beq.n	da518 <pinMode+0x20>
  {
    return;
  }

  // Safety check
  if( !pinAvailable(pin) ) {
   da506:	f7ff ffc1 	bl	da48c <pinAvailable>
   da50a:	b128      	cbz	r0, da518 <pinMode+0x20>
    return;
  }

  HAL_Pin_Mode(pin, setMode);
   da50c:	4629      	mov	r1, r5
   da50e:	4620      	mov	r0, r4
}
   da510:	e8bd 4038 	ldmia.w	sp!, {r3, r4, r5, lr}
  // Safety check
  if( !pinAvailable(pin) ) {
    return;
  }

  HAL_Pin_Mode(pin, setMode);
   da514:	f7fe b81e 	b.w	d8554 <HAL_Pin_Mode>
   da518:	bd38      	pop	{r3, r4, r5, pc}

000da51a <digitalWrite>:

/*
 * @brief Sets a GPIO pin to HIGH or LOW.
 */
void digitalWrite(pin_t pin, uint8_t value)
{
   da51a:	b538      	push	{r3, r4, r5, lr}
   da51c:	4604      	mov	r4, r0
   da51e:	460d      	mov	r5, r1
    PinMode mode = HAL_Get_Pin_Mode(pin);
   da520:	f7fe f820 	bl	d8564 <HAL_Get_Pin_Mode>
    if (mode==PIN_MODE_NONE || is_input_mode(mode))
   da524:	28ff      	cmp	r0, #255	; 0xff
   da526:	d010      	beq.n	da54a <digitalWrite+0x30>
}

inline bool is_input_mode(PinMode mode) {
    return  mode == INPUT ||
            mode == INPUT_PULLUP ||
            mode == INPUT_PULLDOWN ||
   da528:	2806      	cmp	r0, #6
   da52a:	d804      	bhi.n	da536 <digitalWrite+0x1c>
   da52c:	234d      	movs	r3, #77	; 0x4d
   da52e:	fa23 f000 	lsr.w	r0, r3, r0
   da532:	07c3      	lsls	r3, r0, #31
   da534:	d409      	bmi.n	da54a <digitalWrite+0x30>
{
    PinMode mode = HAL_Get_Pin_Mode(pin);
    if (mode==PIN_MODE_NONE || is_input_mode(mode))
        return;
  // Safety check
  if( !pinAvailable(pin) ) {
   da536:	4620      	mov	r0, r4
   da538:	f7ff ffa8 	bl	da48c <pinAvailable>
   da53c:	b128      	cbz	r0, da54a <digitalWrite+0x30>
    return;
  }

  HAL_GPIO_Write(pin, value);
   da53e:	4629      	mov	r1, r5
   da540:	4620      	mov	r0, r4
}
   da542:	e8bd 4038 	ldmia.w	sp!, {r3, r4, r5, lr}
  // Safety check
  if( !pinAvailable(pin) ) {
    return;
  }

  HAL_GPIO_Write(pin, value);
   da546:	f7fe b815 	b.w	d8574 <HAL_GPIO_Write>
   da54a:	bd38      	pop	{r3, r4, r5, pc}

000da54c <digitalRead>:

/*
 * @brief Reads the value of a GPIO pin. Should return either 1 (HIGH) or 0 (LOW).
 */
int32_t digitalRead(pin_t pin)
{
   da54c:	b510      	push	{r4, lr}
   da54e:	4604      	mov	r4, r0
    PinMode mode = HAL_Get_Pin_Mode(pin);
   da550:	f7fe f808 	bl	d8564 <HAL_Get_Pin_Mode>
    if (is_af_output_mode(mode))
   da554:	3804      	subs	r0, #4
   da556:	b2c0      	uxtb	r0, r0
   da558:	2801      	cmp	r0, #1
   da55a:	d908      	bls.n	da56e <digitalRead+0x22>
        return LOW;

    // Safety check
    if( !pinAvailable(pin) ) {
   da55c:	4620      	mov	r0, r4
   da55e:	f7ff ff95 	bl	da48c <pinAvailable>
   da562:	b120      	cbz	r0, da56e <digitalRead+0x22>
      return LOW;
    }

    return HAL_GPIO_Read(pin);
   da564:	4620      	mov	r0, r4
}
   da566:	e8bd 4010 	ldmia.w	sp!, {r4, lr}
    // Safety check
    if( !pinAvailable(pin) ) {
      return LOW;
    }

    return HAL_GPIO_Read(pin);
   da56a:	f7fe b80b 	b.w	d8584 <HAL_GPIO_Read>
}
   da56e:	2000      	movs	r0, #0
   da570:	bd10      	pop	{r4, pc}
	...

000da574 <_Z21__fetch_global_EEPROMv>:

// we don't use this global instance since there's no actual instance data
// Having this keeps the unoptimized build happy

EEPROMClass& __fetch_global_EEPROM()
{
   da574:	b510      	push	{r4, lr}
	static EEPROMClass eeprom;
   da576:	4c07      	ldr	r4, [pc, #28]	; (da594 <_Z21__fetch_global_EEPROMv+0x20>)
   da578:	6823      	ldr	r3, [r4, #0]
   da57a:	07db      	lsls	r3, r3, #31
   da57c:	d408      	bmi.n	da590 <_Z21__fetch_global_EEPROMv+0x1c>
   da57e:	4620      	mov	r0, r4
   da580:	f7f9 fd93 	bl	d40aa <__cxa_guard_acquire>
   da584:	b120      	cbz	r0, da590 <_Z21__fetch_global_EEPROMv+0x1c>

struct EEPROMClass{

	EEPROMClass()
    {
    		HAL_EEPROM_Init();
   da586:	f7fe f8b5 	bl	d86f4 <HAL_EEPROM_Init>
   da58a:	4620      	mov	r0, r4
   da58c:	f7f9 fd92 	bl	d40b4 <__cxa_guard_release>
	return eeprom;
}
   da590:	4801      	ldr	r0, [pc, #4]	; (da598 <_Z21__fetch_global_EEPROMv+0x24>)
   da592:	bd10      	pop	{r4, pc}
   da594:	2003e4c8 	.word	0x2003e4c8
   da598:	2003e4cc 	.word	0x2003e4cc

000da59c <_Z17acquireWireBufferv>:
   da59c:	b570      	push	{r4, r5, r6, lr}
   da59e:	4604      	mov	r4, r0
   da5a0:	2514      	movs	r5, #20
   da5a2:	462a      	mov	r2, r5
   da5a4:	4e09      	ldr	r6, [pc, #36]	; (da5cc <_Z17acquireWireBufferv+0x30>)
   da5a6:	2100      	movs	r1, #0
   da5a8:	f000 ff1c 	bl	db3e4 <memset>
   da5ac:	8025      	strh	r5, [r4, #0]
   da5ae:	2520      	movs	r5, #32
   da5b0:	4631      	mov	r1, r6
   da5b2:	60a5      	str	r5, [r4, #8]
   da5b4:	6125      	str	r5, [r4, #16]
   da5b6:	4628      	mov	r0, r5
   da5b8:	f000 f880 	bl	da6bc <_ZnajRKSt9nothrow_t>
   da5bc:	4631      	mov	r1, r6
   da5be:	6060      	str	r0, [r4, #4]
   da5c0:	4628      	mov	r0, r5
   da5c2:	f000 f87b 	bl	da6bc <_ZnajRKSt9nothrow_t>
   da5c6:	60e0      	str	r0, [r4, #12]
   da5c8:	4620      	mov	r0, r4
   da5ca:	bd70      	pop	{r4, r5, r6, pc}
   da5cc:	000dc2a8 	.word	0x000dc2a8

000da5d0 <_Z18acquireWire1Bufferv>:
	return defaultWireConfig();
}

#if Wiring_Wire1
HAL_I2C_Config __attribute__((weak)) acquireWire1Buffer()
{
   da5d0:	b570      	push	{r4, r5, r6, lr}
   da5d2:	4604      	mov	r4, r0
		.version = HAL_I2C_CONFIG_VERSION_1,
		.rx_buffer = new (std::nothrow) uint8_t[I2C_BUFFER_LENGTH],
		.rx_buffer_size = I2C_BUFFER_LENGTH,
		.tx_buffer = new (std::nothrow) uint8_t[I2C_BUFFER_LENGTH],
		.tx_buffer_size = I2C_BUFFER_LENGTH
	};
   da5d4:	2514      	movs	r5, #20
   da5d6:	462a      	mov	r2, r5

HAL_I2C_Config defaultWireConfig() {
	HAL_I2C_Config config = {
		.size = sizeof(HAL_I2C_Config),
		.version = HAL_I2C_CONFIG_VERSION_1,
		.rx_buffer = new (std::nothrow) uint8_t[I2C_BUFFER_LENGTH],
   da5d8:	4e09      	ldr	r6, [pc, #36]	; (da600 <_Z18acquireWire1Bufferv+0x30>)
		.rx_buffer_size = I2C_BUFFER_LENGTH,
		.tx_buffer = new (std::nothrow) uint8_t[I2C_BUFFER_LENGTH],
		.tx_buffer_size = I2C_BUFFER_LENGTH
	};
   da5da:	2100      	movs	r1, #0
   da5dc:	f000 ff02 	bl	db3e4 <memset>
   da5e0:	8025      	strh	r5, [r4, #0]
   da5e2:	2520      	movs	r5, #32

HAL_I2C_Config defaultWireConfig() {
	HAL_I2C_Config config = {
		.size = sizeof(HAL_I2C_Config),
		.version = HAL_I2C_CONFIG_VERSION_1,
		.rx_buffer = new (std::nothrow) uint8_t[I2C_BUFFER_LENGTH],
   da5e4:	4631      	mov	r1, r6
		.rx_buffer_size = I2C_BUFFER_LENGTH,
		.tx_buffer = new (std::nothrow) uint8_t[I2C_BUFFER_LENGTH],
		.tx_buffer_size = I2C_BUFFER_LENGTH
	};
   da5e6:	60a5      	str	r5, [r4, #8]
   da5e8:	6125      	str	r5, [r4, #16]

HAL_I2C_Config defaultWireConfig() {
	HAL_I2C_Config config = {
		.size = sizeof(HAL_I2C_Config),
		.version = HAL_I2C_CONFIG_VERSION_1,
		.rx_buffer = new (std::nothrow) uint8_t[I2C_BUFFER_LENGTH],
   da5ea:	4628      	mov	r0, r5
   da5ec:	f000 f866 	bl	da6bc <_ZnajRKSt9nothrow_t>
		.rx_buffer_size = I2C_BUFFER_LENGTH,
		.tx_buffer = new (std::nothrow) uint8_t[I2C_BUFFER_LENGTH],
   da5f0:	4631      	mov	r1, r6
		.tx_buffer_size = I2C_BUFFER_LENGTH
	};
   da5f2:	6060      	str	r0, [r4, #4]
	HAL_I2C_Config config = {
		.size = sizeof(HAL_I2C_Config),
		.version = HAL_I2C_CONFIG_VERSION_1,
		.rx_buffer = new (std::nothrow) uint8_t[I2C_BUFFER_LENGTH],
		.rx_buffer_size = I2C_BUFFER_LENGTH,
		.tx_buffer = new (std::nothrow) uint8_t[I2C_BUFFER_LENGTH],
   da5f4:	4628      	mov	r0, r5
   da5f6:	f000 f861 	bl	da6bc <_ZnajRKSt9nothrow_t>
		.tx_buffer_size = I2C_BUFFER_LENGTH
	};
   da5fa:	60e0      	str	r0, [r4, #12]

#if Wiring_Wire1
HAL_I2C_Config __attribute__((weak)) acquireWire1Buffer()
{
	return defaultWireConfig();
}
   da5fc:	4620      	mov	r0, r4
   da5fe:	bd70      	pop	{r4, r5, r6, pc}
   da600:	000dc2a8 	.word	0x000dc2a8

000da604 <_Z19__fetch_global_Wirev>:
	return defaultWireConfig();
}
#endif

TwoWire& __fetch_global_Wire()
{
   da604:	b530      	push	{r4, r5, lr}
	static TwoWire wire(HAL_I2C_INTERFACE1, acquireWireBuffer());
   da606:	4d0e      	ldr	r5, [pc, #56]	; (da640 <_Z19__fetch_global_Wirev+0x3c>)
   da608:	6829      	ldr	r1, [r5, #0]
   da60a:	f011 0401 	ands.w	r4, r1, #1
	return defaultWireConfig();
}
#endif

TwoWire& __fetch_global_Wire()
{
   da60e:	b087      	sub	sp, #28
	static TwoWire wire(HAL_I2C_INTERFACE1, acquireWireBuffer());
   da610:	d113      	bne.n	da63a <_Z19__fetch_global_Wirev+0x36>
   da612:	4628      	mov	r0, r5
   da614:	f7f9 fd49 	bl	d40aa <__cxa_guard_acquire>
   da618:	b178      	cbz	r0, da63a <_Z19__fetch_global_Wirev+0x36>
   da61a:	a801      	add	r0, sp, #4
   da61c:	f7ff ffbe 	bl	da59c <_Z17acquireWireBufferv>
   da620:	aa01      	add	r2, sp, #4
   da622:	4621      	mov	r1, r4
   da624:	4807      	ldr	r0, [pc, #28]	; (da644 <_Z19__fetch_global_Wirev+0x40>)
   da626:	f7ff faa7 	bl	d9b78 <_ZN7TwoWireC1E17HAL_I2C_InterfaceRK14HAL_I2C_Config>
   da62a:	4628      	mov	r0, r5
   da62c:	f7f9 fd42 	bl	d40b4 <__cxa_guard_release>
   da630:	4a05      	ldr	r2, [pc, #20]	; (da648 <_Z19__fetch_global_Wirev+0x44>)
   da632:	4906      	ldr	r1, [pc, #24]	; (da64c <_Z19__fetch_global_Wirev+0x48>)
   da634:	4803      	ldr	r0, [pc, #12]	; (da644 <_Z19__fetch_global_Wirev+0x40>)
   da636:	f000 f831 	bl	da69c <__aeabi_atexit>
	return wire;
}
   da63a:	4802      	ldr	r0, [pc, #8]	; (da644 <_Z19__fetch_global_Wirev+0x40>)
   da63c:	b007      	add	sp, #28
   da63e:	bd30      	pop	{r4, r5, pc}
   da640:	2003e4d0 	.word	0x2003e4d0
   da644:	2003e4e8 	.word	0x2003e4e8
   da648:	2003d9bc 	.word	0x2003d9bc
   da64c:	000d9b21 	.word	0x000d9b21

000da650 <_Z20__fetch_global_Wire1v>:

#if Wiring_Wire1
TwoWire& __fetch_global_Wire1()
{
   da650:	b510      	push	{r4, lr}
	static TwoWire wire(HAL_I2C_INTERFACE2, acquireWire1Buffer());
   da652:	4c0e      	ldr	r4, [pc, #56]	; (da68c <_Z20__fetch_global_Wire1v+0x3c>)
   da654:	6823      	ldr	r3, [r4, #0]
   da656:	07db      	lsls	r3, r3, #31
	return wire;
}

#if Wiring_Wire1
TwoWire& __fetch_global_Wire1()
{
   da658:	b086      	sub	sp, #24
	static TwoWire wire(HAL_I2C_INTERFACE2, acquireWire1Buffer());
   da65a:	d413      	bmi.n	da684 <_Z20__fetch_global_Wire1v+0x34>
   da65c:	4620      	mov	r0, r4
   da65e:	f7f9 fd24 	bl	d40aa <__cxa_guard_acquire>
   da662:	b178      	cbz	r0, da684 <_Z20__fetch_global_Wire1v+0x34>
   da664:	a801      	add	r0, sp, #4
   da666:	f7ff ffb3 	bl	da5d0 <_Z18acquireWire1Bufferv>
   da66a:	aa01      	add	r2, sp, #4
   da66c:	2101      	movs	r1, #1
   da66e:	4808      	ldr	r0, [pc, #32]	; (da690 <_Z20__fetch_global_Wire1v+0x40>)
   da670:	f7ff fa82 	bl	d9b78 <_ZN7TwoWireC1E17HAL_I2C_InterfaceRK14HAL_I2C_Config>
   da674:	4620      	mov	r0, r4
   da676:	f7f9 fd1d 	bl	d40b4 <__cxa_guard_release>
   da67a:	4a06      	ldr	r2, [pc, #24]	; (da694 <_Z20__fetch_global_Wire1v+0x44>)
   da67c:	4906      	ldr	r1, [pc, #24]	; (da698 <_Z20__fetch_global_Wire1v+0x48>)
   da67e:	4804      	ldr	r0, [pc, #16]	; (da690 <_Z20__fetch_global_Wire1v+0x40>)
   da680:	f000 f80c 	bl	da69c <__aeabi_atexit>
	return wire;
}
   da684:	4802      	ldr	r0, [pc, #8]	; (da690 <_Z20__fetch_global_Wire1v+0x40>)
   da686:	b006      	add	sp, #24
   da688:	bd10      	pop	{r4, pc}
   da68a:	bf00      	nop
   da68c:	2003e4fc 	.word	0x2003e4fc
   da690:	2003e4d4 	.word	0x2003e4d4
   da694:	2003d9bc 	.word	0x2003d9bc
   da698:	000d9b21 	.word	0x000d9b21

000da69c <__aeabi_atexit>:
   da69c:	460b      	mov	r3, r1
   da69e:	4601      	mov	r1, r0
   da6a0:	4618      	mov	r0, r3
   da6a2:	f000 bd7f 	b.w	db1a4 <__cxa_atexit>
	...

000da6a8 <_ZSt15get_new_handlerv>:
   da6a8:	4b02      	ldr	r3, [pc, #8]	; (da6b4 <_ZSt15get_new_handlerv+0xc>)
   da6aa:	6818      	ldr	r0, [r3, #0]
   da6ac:	f3bf 8f5f 	dmb	sy
   da6b0:	4770      	bx	lr
   da6b2:	bf00      	nop
   da6b4:	2003e500 	.word	0x2003e500

000da6b8 <_ZdlPvj>:
   da6b8:	f7f9 bcf3 	b.w	d40a2 <_ZdlPv>

000da6bc <_ZnajRKSt9nothrow_t>:
   da6bc:	f000 b800 	b.w	da6c0 <_ZnwjRKSt9nothrow_t>

000da6c0 <_ZnwjRKSt9nothrow_t>:
   da6c0:	b510      	push	{r4, lr}
   da6c2:	2800      	cmp	r0, #0
   da6c4:	bf14      	ite	ne
   da6c6:	4604      	movne	r4, r0
   da6c8:	2401      	moveq	r4, #1
   da6ca:	4620      	mov	r0, r4
   da6cc:	f7fe fa76 	bl	d8bbc <malloc>
   da6d0:	b920      	cbnz	r0, da6dc <_ZnwjRKSt9nothrow_t+0x1c>
   da6d2:	f7ff ffe9 	bl	da6a8 <_ZSt15get_new_handlerv>
   da6d6:	b108      	cbz	r0, da6dc <_ZnwjRKSt9nothrow_t+0x1c>
   da6d8:	4780      	blx	r0
   da6da:	e7f6      	b.n	da6ca <_ZnwjRKSt9nothrow_t+0xa>
   da6dc:	bd10      	pop	{r4, pc}
	...

000da6e0 <_GLOBAL__sub_I__ZNSt12ctype_bynameIcEC2ERKNSt7__cxx1112basic_stringIcSt11char_traitsIcESaIcEEEj>:
   da6e0:	4b18      	ldr	r3, [pc, #96]	; (da744 <_GLOBAL__sub_I__ZNSt12ctype_bynameIcEC2ERKNSt7__cxx1112basic_stringIcSt11char_traitsIcESaIcEEEj+0x64>)
   da6e2:	681a      	ldr	r2, [r3, #0]
   da6e4:	07d1      	lsls	r1, r2, #31
   da6e6:	bf5c      	itt	pl
   da6e8:	2201      	movpl	r2, #1
   da6ea:	601a      	strpl	r2, [r3, #0]
   da6ec:	4b16      	ldr	r3, [pc, #88]	; (da748 <_GLOBAL__sub_I__ZNSt12ctype_bynameIcEC2ERKNSt7__cxx1112basic_stringIcSt11char_traitsIcESaIcEEEj+0x68>)
   da6ee:	681a      	ldr	r2, [r3, #0]
   da6f0:	07d2      	lsls	r2, r2, #31
   da6f2:	bf5c      	itt	pl
   da6f4:	2201      	movpl	r2, #1
   da6f6:	601a      	strpl	r2, [r3, #0]
   da6f8:	4b14      	ldr	r3, [pc, #80]	; (da74c <_GLOBAL__sub_I__ZNSt12ctype_bynameIcEC2ERKNSt7__cxx1112basic_stringIcSt11char_traitsIcESaIcEEEj+0x6c>)
   da6fa:	681a      	ldr	r2, [r3, #0]
   da6fc:	07d0      	lsls	r0, r2, #31
   da6fe:	bf5c      	itt	pl
   da700:	2201      	movpl	r2, #1
   da702:	601a      	strpl	r2, [r3, #0]
   da704:	4b12      	ldr	r3, [pc, #72]	; (da750 <_GLOBAL__sub_I__ZNSt12ctype_bynameIcEC2ERKNSt7__cxx1112basic_stringIcSt11char_traitsIcESaIcEEEj+0x70>)
   da706:	681a      	ldr	r2, [r3, #0]
   da708:	07d1      	lsls	r1, r2, #31
   da70a:	bf5c      	itt	pl
   da70c:	2201      	movpl	r2, #1
   da70e:	601a      	strpl	r2, [r3, #0]
   da710:	4b10      	ldr	r3, [pc, #64]	; (da754 <_GLOBAL__sub_I__ZNSt12ctype_bynameIcEC2ERKNSt7__cxx1112basic_stringIcSt11char_traitsIcESaIcEEEj+0x74>)
   da712:	681a      	ldr	r2, [r3, #0]
   da714:	07d2      	lsls	r2, r2, #31
   da716:	bf5c      	itt	pl
   da718:	2201      	movpl	r2, #1
   da71a:	601a      	strpl	r2, [r3, #0]
   da71c:	4b0e      	ldr	r3, [pc, #56]	; (da758 <_GLOBAL__sub_I__ZNSt12ctype_bynameIcEC2ERKNSt7__cxx1112basic_stringIcSt11char_traitsIcESaIcEEEj+0x78>)
   da71e:	681a      	ldr	r2, [r3, #0]
   da720:	07d0      	lsls	r0, r2, #31
   da722:	bf5c      	itt	pl
   da724:	2201      	movpl	r2, #1
   da726:	601a      	strpl	r2, [r3, #0]
   da728:	4b0c      	ldr	r3, [pc, #48]	; (da75c <_GLOBAL__sub_I__ZNSt12ctype_bynameIcEC2ERKNSt7__cxx1112basic_stringIcSt11char_traitsIcESaIcEEEj+0x7c>)
   da72a:	681a      	ldr	r2, [r3, #0]
   da72c:	07d1      	lsls	r1, r2, #31
   da72e:	bf5c      	itt	pl
   da730:	2201      	movpl	r2, #1
   da732:	601a      	strpl	r2, [r3, #0]
   da734:	4b0a      	ldr	r3, [pc, #40]	; (da760 <_GLOBAL__sub_I__ZNSt12ctype_bynameIcEC2ERKNSt7__cxx1112basic_stringIcSt11char_traitsIcESaIcEEEj+0x80>)
   da736:	681a      	ldr	r2, [r3, #0]
   da738:	07d2      	lsls	r2, r2, #31
   da73a:	bf5c      	itt	pl
   da73c:	2201      	movpl	r2, #1
   da73e:	601a      	strpl	r2, [r3, #0]
   da740:	4770      	bx	lr
   da742:	bf00      	nop
   da744:	2003e520 	.word	0x2003e520
   da748:	2003e51c 	.word	0x2003e51c
   da74c:	2003e518 	.word	0x2003e518
   da750:	2003e514 	.word	0x2003e514
   da754:	2003e510 	.word	0x2003e510
   da758:	2003e50c 	.word	0x2003e50c
   da75c:	2003e508 	.word	0x2003e508
   da760:	2003e504 	.word	0x2003e504

000da764 <_GLOBAL__sub_I__ZNSt12ctype_bynameIwEC2ERKSsj>:
   da764:	4b24      	ldr	r3, [pc, #144]	; (da7f8 <_GLOBAL__sub_I__ZNSt12ctype_bynameIwEC2ERKSsj+0x94>)
   da766:	681a      	ldr	r2, [r3, #0]
   da768:	07d0      	lsls	r0, r2, #31
   da76a:	bf5c      	itt	pl
   da76c:	2201      	movpl	r2, #1
   da76e:	601a      	strpl	r2, [r3, #0]
   da770:	4b22      	ldr	r3, [pc, #136]	; (da7fc <_GLOBAL__sub_I__ZNSt12ctype_bynameIwEC2ERKSsj+0x98>)
   da772:	681a      	ldr	r2, [r3, #0]
   da774:	07d1      	lsls	r1, r2, #31
   da776:	bf5c      	itt	pl
   da778:	2201      	movpl	r2, #1
   da77a:	601a      	strpl	r2, [r3, #0]
   da77c:	4b20      	ldr	r3, [pc, #128]	; (da800 <_GLOBAL__sub_I__ZNSt12ctype_bynameIwEC2ERKSsj+0x9c>)
   da77e:	681a      	ldr	r2, [r3, #0]
   da780:	07d2      	lsls	r2, r2, #31
   da782:	bf5c      	itt	pl
   da784:	2201      	movpl	r2, #1
   da786:	601a      	strpl	r2, [r3, #0]
   da788:	4b1e      	ldr	r3, [pc, #120]	; (da804 <_GLOBAL__sub_I__ZNSt12ctype_bynameIwEC2ERKSsj+0xa0>)
   da78a:	681a      	ldr	r2, [r3, #0]
   da78c:	07d0      	lsls	r0, r2, #31
   da78e:	bf5c      	itt	pl
   da790:	2201      	movpl	r2, #1
   da792:	601a      	strpl	r2, [r3, #0]
   da794:	4b1c      	ldr	r3, [pc, #112]	; (da808 <_GLOBAL__sub_I__ZNSt12ctype_bynameIwEC2ERKSsj+0xa4>)
   da796:	681a      	ldr	r2, [r3, #0]
   da798:	07d1      	lsls	r1, r2, #31
   da79a:	bf5c      	itt	pl
   da79c:	2201      	movpl	r2, #1
   da79e:	601a      	strpl	r2, [r3, #0]
   da7a0:	4b1a      	ldr	r3, [pc, #104]	; (da80c <_GLOBAL__sub_I__ZNSt12ctype_bynameIwEC2ERKSsj+0xa8>)
   da7a2:	681a      	ldr	r2, [r3, #0]
   da7a4:	07d2      	lsls	r2, r2, #31
   da7a6:	bf5c      	itt	pl
   da7a8:	2201      	movpl	r2, #1
   da7aa:	601a      	strpl	r2, [r3, #0]
   da7ac:	4b18      	ldr	r3, [pc, #96]	; (da810 <_GLOBAL__sub_I__ZNSt12ctype_bynameIwEC2ERKSsj+0xac>)
   da7ae:	681a      	ldr	r2, [r3, #0]
   da7b0:	07d0      	lsls	r0, r2, #31
   da7b2:	bf5c      	itt	pl
   da7b4:	2201      	movpl	r2, #1
   da7b6:	601a      	strpl	r2, [r3, #0]
   da7b8:	4b16      	ldr	r3, [pc, #88]	; (da814 <_GLOBAL__sub_I__ZNSt12ctype_bynameIwEC2ERKSsj+0xb0>)
   da7ba:	681a      	ldr	r2, [r3, #0]
   da7bc:	07d1      	lsls	r1, r2, #31
   da7be:	bf5c      	itt	pl
   da7c0:	2201      	movpl	r2, #1
   da7c2:	601a      	strpl	r2, [r3, #0]
   da7c4:	4b14      	ldr	r3, [pc, #80]	; (da818 <_GLOBAL__sub_I__ZNSt12ctype_bynameIwEC2ERKSsj+0xb4>)
   da7c6:	681a      	ldr	r2, [r3, #0]
   da7c8:	07d2      	lsls	r2, r2, #31
   da7ca:	bf5c      	itt	pl
   da7cc:	2201      	movpl	r2, #1
   da7ce:	601a      	strpl	r2, [r3, #0]
   da7d0:	4b12      	ldr	r3, [pc, #72]	; (da81c <_GLOBAL__sub_I__ZNSt12ctype_bynameIwEC2ERKSsj+0xb8>)
   da7d2:	681a      	ldr	r2, [r3, #0]
   da7d4:	07d0      	lsls	r0, r2, #31
   da7d6:	bf5c      	itt	pl
   da7d8:	2201      	movpl	r2, #1
   da7da:	601a      	strpl	r2, [r3, #0]
   da7dc:	4b10      	ldr	r3, [pc, #64]	; (da820 <_GLOBAL__sub_I__ZNSt12ctype_bynameIwEC2ERKSsj+0xbc>)
   da7de:	681a      	ldr	r2, [r3, #0]
   da7e0:	07d1      	lsls	r1, r2, #31
   da7e2:	bf5c      	itt	pl
   da7e4:	2201      	movpl	r2, #1
   da7e6:	601a      	strpl	r2, [r3, #0]
   da7e8:	4b0e      	ldr	r3, [pc, #56]	; (da824 <_GLOBAL__sub_I__ZNSt12ctype_bynameIwEC2ERKSsj+0xc0>)
   da7ea:	681a      	ldr	r2, [r3, #0]
   da7ec:	07d2      	lsls	r2, r2, #31
   da7ee:	bf5c      	itt	pl
   da7f0:	2201      	movpl	r2, #1
   da7f2:	601a      	strpl	r2, [r3, #0]
   da7f4:	4770      	bx	lr
   da7f6:	bf00      	nop
   da7f8:	2003e550 	.word	0x2003e550
   da7fc:	2003e54c 	.word	0x2003e54c
   da800:	2003e548 	.word	0x2003e548
   da804:	2003e544 	.word	0x2003e544
   da808:	2003e540 	.word	0x2003e540
   da80c:	2003e53c 	.word	0x2003e53c
   da810:	2003e538 	.word	0x2003e538
   da814:	2003e534 	.word	0x2003e534
   da818:	2003e530 	.word	0x2003e530
   da81c:	2003e52c 	.word	0x2003e52c
   da820:	2003e528 	.word	0x2003e528
   da824:	2003e524 	.word	0x2003e524

000da828 <_GLOBAL__sub_I__ZNSt12ctype_bynameIcEC2ERKSsj>:
   da828:	4b24      	ldr	r3, [pc, #144]	; (da8bc <_GLOBAL__sub_I__ZNSt12ctype_bynameIcEC2ERKSsj+0x94>)
   da82a:	681a      	ldr	r2, [r3, #0]
   da82c:	07d0      	lsls	r0, r2, #31
   da82e:	bf5c      	itt	pl
   da830:	2201      	movpl	r2, #1
   da832:	601a      	strpl	r2, [r3, #0]
   da834:	4b22      	ldr	r3, [pc, #136]	; (da8c0 <_GLOBAL__sub_I__ZNSt12ctype_bynameIcEC2ERKSsj+0x98>)
   da836:	681a      	ldr	r2, [r3, #0]
   da838:	07d1      	lsls	r1, r2, #31
   da83a:	bf5c      	itt	pl
   da83c:	2201      	movpl	r2, #1
   da83e:	601a      	strpl	r2, [r3, #0]
   da840:	4b20      	ldr	r3, [pc, #128]	; (da8c4 <_GLOBAL__sub_I__ZNSt12ctype_bynameIcEC2ERKSsj+0x9c>)
   da842:	681a      	ldr	r2, [r3, #0]
   da844:	07d2      	lsls	r2, r2, #31
   da846:	bf5c      	itt	pl
   da848:	2201      	movpl	r2, #1
   da84a:	601a      	strpl	r2, [r3, #0]
   da84c:	4b1e      	ldr	r3, [pc, #120]	; (da8c8 <_GLOBAL__sub_I__ZNSt12ctype_bynameIcEC2ERKSsj+0xa0>)
   da84e:	681a      	ldr	r2, [r3, #0]
   da850:	07d0      	lsls	r0, r2, #31
   da852:	bf5c      	itt	pl
   da854:	2201      	movpl	r2, #1
   da856:	601a      	strpl	r2, [r3, #0]
   da858:	4b1c      	ldr	r3, [pc, #112]	; (da8cc <_GLOBAL__sub_I__ZNSt12ctype_bynameIcEC2ERKSsj+0xa4>)
   da85a:	681a      	ldr	r2, [r3, #0]
   da85c:	07d1      	lsls	r1, r2, #31
   da85e:	bf5c      	itt	pl
   da860:	2201      	movpl	r2, #1
   da862:	601a      	strpl	r2, [r3, #0]
   da864:	4b1a      	ldr	r3, [pc, #104]	; (da8d0 <_GLOBAL__sub_I__ZNSt12ctype_bynameIcEC2ERKSsj+0xa8>)
   da866:	681a      	ldr	r2, [r3, #0]
   da868:	07d2      	lsls	r2, r2, #31
   da86a:	bf5c      	itt	pl
   da86c:	2201      	movpl	r2, #1
   da86e:	601a      	strpl	r2, [r3, #0]
   da870:	4b18      	ldr	r3, [pc, #96]	; (da8d4 <_GLOBAL__sub_I__ZNSt12ctype_bynameIcEC2ERKSsj+0xac>)
   da872:	681a      	ldr	r2, [r3, #0]
   da874:	07d0      	lsls	r0, r2, #31
   da876:	bf5c      	itt	pl
   da878:	2201      	movpl	r2, #1
   da87a:	601a      	strpl	r2, [r3, #0]
   da87c:	4b16      	ldr	r3, [pc, #88]	; (da8d8 <_GLOBAL__sub_I__ZNSt12ctype_bynameIcEC2ERKSsj+0xb0>)
   da87e:	681a      	ldr	r2, [r3, #0]
   da880:	07d1      	lsls	r1, r2, #31
   da882:	bf5c      	itt	pl
   da884:	2201      	movpl	r2, #1
   da886:	601a      	strpl	r2, [r3, #0]
   da888:	4b14      	ldr	r3, [pc, #80]	; (da8dc <_GLOBAL__sub_I__ZNSt12ctype_bynameIcEC2ERKSsj+0xb4>)
   da88a:	681a      	ldr	r2, [r3, #0]
   da88c:	07d2      	lsls	r2, r2, #31
   da88e:	bf5c      	itt	pl
   da890:	2201      	movpl	r2, #1
   da892:	601a      	strpl	r2, [r3, #0]
   da894:	4b12      	ldr	r3, [pc, #72]	; (da8e0 <_GLOBAL__sub_I__ZNSt12ctype_bynameIcEC2ERKSsj+0xb8>)
   da896:	681a      	ldr	r2, [r3, #0]
   da898:	07d0      	lsls	r0, r2, #31
   da89a:	bf5c      	itt	pl
   da89c:	2201      	movpl	r2, #1
   da89e:	601a      	strpl	r2, [r3, #0]
   da8a0:	4b10      	ldr	r3, [pc, #64]	; (da8e4 <_GLOBAL__sub_I__ZNSt12ctype_bynameIcEC2ERKSsj+0xbc>)
   da8a2:	681a      	ldr	r2, [r3, #0]
   da8a4:	07d1      	lsls	r1, r2, #31
   da8a6:	bf5c      	itt	pl
   da8a8:	2201      	movpl	r2, #1
   da8aa:	601a      	strpl	r2, [r3, #0]
   da8ac:	4b0e      	ldr	r3, [pc, #56]	; (da8e8 <_GLOBAL__sub_I__ZNSt12ctype_bynameIcEC2ERKSsj+0xc0>)
   da8ae:	681a      	ldr	r2, [r3, #0]
   da8b0:	07d2      	lsls	r2, r2, #31
   da8b2:	bf5c      	itt	pl
   da8b4:	2201      	movpl	r2, #1
   da8b6:	601a      	strpl	r2, [r3, #0]
   da8b8:	4770      	bx	lr
   da8ba:	bf00      	nop
   da8bc:	2003e580 	.word	0x2003e580
   da8c0:	2003e57c 	.word	0x2003e57c
   da8c4:	2003e578 	.word	0x2003e578
   da8c8:	2003e574 	.word	0x2003e574
   da8cc:	2003e570 	.word	0x2003e570
   da8d0:	2003e56c 	.word	0x2003e56c
   da8d4:	2003e568 	.word	0x2003e568
   da8d8:	2003e564 	.word	0x2003e564
   da8dc:	2003e560 	.word	0x2003e560
   da8e0:	2003e55c 	.word	0x2003e55c
   da8e4:	2003e558 	.word	0x2003e558
   da8e8:	2003e554 	.word	0x2003e554

000da8ec <_GLOBAL__sub_I__ZNSt12ctype_bynameIwEC2ERKNSt7__cxx1112basic_stringIcSt11char_traitsIcESaIcEEEj>:
   da8ec:	4b18      	ldr	r3, [pc, #96]	; (da950 <_GLOBAL__sub_I__ZNSt12ctype_bynameIwEC2ERKNSt7__cxx1112basic_stringIcSt11char_traitsIcESaIcEEEj+0x64>)
   da8ee:	681a      	ldr	r2, [r3, #0]
   da8f0:	07d1      	lsls	r1, r2, #31
   da8f2:	bf5c      	itt	pl
   da8f4:	2201      	movpl	r2, #1
   da8f6:	601a      	strpl	r2, [r3, #0]
   da8f8:	4b16      	ldr	r3, [pc, #88]	; (da954 <_GLOBAL__sub_I__ZNSt12ctype_bynameIwEC2ERKNSt7__cxx1112basic_stringIcSt11char_traitsIcESaIcEEEj+0x68>)
   da8fa:	681a      	ldr	r2, [r3, #0]
   da8fc:	07d2      	lsls	r2, r2, #31
   da8fe:	bf5c      	itt	pl
   da900:	2201      	movpl	r2, #1
   da902:	601a      	strpl	r2, [r3, #0]
   da904:	4b14      	ldr	r3, [pc, #80]	; (da958 <_GLOBAL__sub_I__ZNSt12ctype_bynameIwEC2ERKNSt7__cxx1112basic_stringIcSt11char_traitsIcESaIcEEEj+0x6c>)
   da906:	681a      	ldr	r2, [r3, #0]
   da908:	07d0      	lsls	r0, r2, #31
   da90a:	bf5c      	itt	pl
   da90c:	2201      	movpl	r2, #1
   da90e:	601a      	strpl	r2, [r3, #0]
   da910:	4b12      	ldr	r3, [pc, #72]	; (da95c <_GLOBAL__sub_I__ZNSt12ctype_bynameIwEC2ERKNSt7__cxx1112basic_stringIcSt11char_traitsIcESaIcEEEj+0x70>)
   da912:	681a      	ldr	r2, [r3, #0]
   da914:	07d1      	lsls	r1, r2, #31
   da916:	bf5c      	itt	pl
   da918:	2201      	movpl	r2, #1
   da91a:	601a      	strpl	r2, [r3, #0]
   da91c:	4b10      	ldr	r3, [pc, #64]	; (da960 <_GLOBAL__sub_I__ZNSt12ctype_bynameIwEC2ERKNSt7__cxx1112basic_stringIcSt11char_traitsIcESaIcEEEj+0x74>)
   da91e:	681a      	ldr	r2, [r3, #0]
   da920:	07d2      	lsls	r2, r2, #31
   da922:	bf5c      	itt	pl
   da924:	2201      	movpl	r2, #1
   da926:	601a      	strpl	r2, [r3, #0]
   da928:	4b0e      	ldr	r3, [pc, #56]	; (da964 <_GLOBAL__sub_I__ZNSt12ctype_bynameIwEC2ERKNSt7__cxx1112basic_stringIcSt11char_traitsIcESaIcEEEj+0x78>)
   da92a:	681a      	ldr	r2, [r3, #0]
   da92c:	07d0      	lsls	r0, r2, #31
   da92e:	bf5c      	itt	pl
   da930:	2201      	movpl	r2, #1
   da932:	601a      	strpl	r2, [r3, #0]
   da934:	4b0c      	ldr	r3, [pc, #48]	; (da968 <_GLOBAL__sub_I__ZNSt12ctype_bynameIwEC2ERKNSt7__cxx1112basic_stringIcSt11char_traitsIcESaIcEEEj+0x7c>)
   da936:	681a      	ldr	r2, [r3, #0]
   da938:	07d1      	lsls	r1, r2, #31
   da93a:	bf5c      	itt	pl
   da93c:	2201      	movpl	r2, #1
   da93e:	601a      	strpl	r2, [r3, #0]
   da940:	4b0a      	ldr	r3, [pc, #40]	; (da96c <_GLOBAL__sub_I__ZNSt12ctype_bynameIwEC2ERKNSt7__cxx1112basic_stringIcSt11char_traitsIcESaIcEEEj+0x80>)
   da942:	681a      	ldr	r2, [r3, #0]
   da944:	07d2      	lsls	r2, r2, #31
   da946:	bf5c      	itt	pl
   da948:	2201      	movpl	r2, #1
   da94a:	601a      	strpl	r2, [r3, #0]
   da94c:	4770      	bx	lr
   da94e:	bf00      	nop
   da950:	2003e5a0 	.word	0x2003e5a0
   da954:	2003e59c 	.word	0x2003e59c
   da958:	2003e598 	.word	0x2003e598
   da95c:	2003e594 	.word	0x2003e594
   da960:	2003e590 	.word	0x2003e590
   da964:	2003e58c 	.word	0x2003e58c
   da968:	2003e588 	.word	0x2003e588
   da96c:	2003e584 	.word	0x2003e584

000da970 <__aeabi_drsub>:
   da970:	f081 4100 	eor.w	r1, r1, #2147483648	; 0x80000000
   da974:	e002      	b.n	da97c <__adddf3>
   da976:	bf00      	nop

000da978 <__aeabi_dsub>:
   da978:	f083 4300 	eor.w	r3, r3, #2147483648	; 0x80000000

000da97c <__adddf3>:
   da97c:	b530      	push	{r4, r5, lr}
   da97e:	ea4f 0441 	mov.w	r4, r1, lsl #1
   da982:	ea4f 0543 	mov.w	r5, r3, lsl #1
   da986:	ea94 0f05 	teq	r4, r5
   da98a:	bf08      	it	eq
   da98c:	ea90 0f02 	teqeq	r0, r2
   da990:	bf1f      	itttt	ne
   da992:	ea54 0c00 	orrsne.w	ip, r4, r0
   da996:	ea55 0c02 	orrsne.w	ip, r5, r2
   da99a:	ea7f 5c64 	mvnsne.w	ip, r4, asr #21
   da99e:	ea7f 5c65 	mvnsne.w	ip, r5, asr #21
   da9a2:	f000 80e2 	beq.w	dab6a <__adddf3+0x1ee>
   da9a6:	ea4f 5454 	mov.w	r4, r4, lsr #21
   da9aa:	ebd4 5555 	rsbs	r5, r4, r5, lsr #21
   da9ae:	bfb8      	it	lt
   da9b0:	426d      	neglt	r5, r5
   da9b2:	dd0c      	ble.n	da9ce <__adddf3+0x52>
   da9b4:	442c      	add	r4, r5
   da9b6:	ea80 0202 	eor.w	r2, r0, r2
   da9ba:	ea81 0303 	eor.w	r3, r1, r3
   da9be:	ea82 0000 	eor.w	r0, r2, r0
   da9c2:	ea83 0101 	eor.w	r1, r3, r1
   da9c6:	ea80 0202 	eor.w	r2, r0, r2
   da9ca:	ea81 0303 	eor.w	r3, r1, r3
   da9ce:	2d36      	cmp	r5, #54	; 0x36
   da9d0:	bf88      	it	hi
   da9d2:	bd30      	pophi	{r4, r5, pc}
   da9d4:	f011 4f00 	tst.w	r1, #2147483648	; 0x80000000
   da9d8:	ea4f 3101 	mov.w	r1, r1, lsl #12
   da9dc:	f44f 1c80 	mov.w	ip, #1048576	; 0x100000
   da9e0:	ea4c 3111 	orr.w	r1, ip, r1, lsr #12
   da9e4:	d002      	beq.n	da9ec <__adddf3+0x70>
   da9e6:	4240      	negs	r0, r0
   da9e8:	eb61 0141 	sbc.w	r1, r1, r1, lsl #1
   da9ec:	f013 4f00 	tst.w	r3, #2147483648	; 0x80000000
   da9f0:	ea4f 3303 	mov.w	r3, r3, lsl #12
   da9f4:	ea4c 3313 	orr.w	r3, ip, r3, lsr #12
   da9f8:	d002      	beq.n	daa00 <__adddf3+0x84>
   da9fa:	4252      	negs	r2, r2
   da9fc:	eb63 0343 	sbc.w	r3, r3, r3, lsl #1
   daa00:	ea94 0f05 	teq	r4, r5
   daa04:	f000 80a7 	beq.w	dab56 <__adddf3+0x1da>
   daa08:	f1a4 0401 	sub.w	r4, r4, #1
   daa0c:	f1d5 0e20 	rsbs	lr, r5, #32
   daa10:	db0d      	blt.n	daa2e <__adddf3+0xb2>
   daa12:	fa02 fc0e 	lsl.w	ip, r2, lr
   daa16:	fa22 f205 	lsr.w	r2, r2, r5
   daa1a:	1880      	adds	r0, r0, r2
   daa1c:	f141 0100 	adc.w	r1, r1, #0
   daa20:	fa03 f20e 	lsl.w	r2, r3, lr
   daa24:	1880      	adds	r0, r0, r2
   daa26:	fa43 f305 	asr.w	r3, r3, r5
   daa2a:	4159      	adcs	r1, r3
   daa2c:	e00e      	b.n	daa4c <__adddf3+0xd0>
   daa2e:	f1a5 0520 	sub.w	r5, r5, #32
   daa32:	f10e 0e20 	add.w	lr, lr, #32
   daa36:	2a01      	cmp	r2, #1
   daa38:	fa03 fc0e 	lsl.w	ip, r3, lr
   daa3c:	bf28      	it	cs
   daa3e:	f04c 0c02 	orrcs.w	ip, ip, #2
   daa42:	fa43 f305 	asr.w	r3, r3, r5
   daa46:	18c0      	adds	r0, r0, r3
   daa48:	eb51 71e3 	adcs.w	r1, r1, r3, asr #31
   daa4c:	f001 4500 	and.w	r5, r1, #2147483648	; 0x80000000
   daa50:	d507      	bpl.n	daa62 <__adddf3+0xe6>
   daa52:	f04f 0e00 	mov.w	lr, #0
   daa56:	f1dc 0c00 	rsbs	ip, ip, #0
   daa5a:	eb7e 0000 	sbcs.w	r0, lr, r0
   daa5e:	eb6e 0101 	sbc.w	r1, lr, r1
   daa62:	f5b1 1f80 	cmp.w	r1, #1048576	; 0x100000
   daa66:	d31b      	bcc.n	daaa0 <__adddf3+0x124>
   daa68:	f5b1 1f00 	cmp.w	r1, #2097152	; 0x200000
   daa6c:	d30c      	bcc.n	daa88 <__adddf3+0x10c>
   daa6e:	0849      	lsrs	r1, r1, #1
   daa70:	ea5f 0030 	movs.w	r0, r0, rrx
   daa74:	ea4f 0c3c 	mov.w	ip, ip, rrx
   daa78:	f104 0401 	add.w	r4, r4, #1
   daa7c:	ea4f 5244 	mov.w	r2, r4, lsl #21
   daa80:	f512 0f80 	cmn.w	r2, #4194304	; 0x400000
   daa84:	f080 809a 	bcs.w	dabbc <__adddf3+0x240>
   daa88:	f1bc 4f00 	cmp.w	ip, #2147483648	; 0x80000000
   daa8c:	bf08      	it	eq
   daa8e:	ea5f 0c50 	movseq.w	ip, r0, lsr #1
   daa92:	f150 0000 	adcs.w	r0, r0, #0
   daa96:	eb41 5104 	adc.w	r1, r1, r4, lsl #20
   daa9a:	ea41 0105 	orr.w	r1, r1, r5
   daa9e:	bd30      	pop	{r4, r5, pc}
   daaa0:	ea5f 0c4c 	movs.w	ip, ip, lsl #1
   daaa4:	4140      	adcs	r0, r0
   daaa6:	eb41 0101 	adc.w	r1, r1, r1
   daaaa:	f411 1f80 	tst.w	r1, #1048576	; 0x100000
   daaae:	f1a4 0401 	sub.w	r4, r4, #1
   daab2:	d1e9      	bne.n	daa88 <__adddf3+0x10c>
   daab4:	f091 0f00 	teq	r1, #0
   daab8:	bf04      	itt	eq
   daaba:	4601      	moveq	r1, r0
   daabc:	2000      	moveq	r0, #0
   daabe:	fab1 f381 	clz	r3, r1
   daac2:	bf08      	it	eq
   daac4:	3320      	addeq	r3, #32
   daac6:	f1a3 030b 	sub.w	r3, r3, #11
   daaca:	f1b3 0220 	subs.w	r2, r3, #32
   daace:	da0c      	bge.n	daaea <__adddf3+0x16e>
   daad0:	320c      	adds	r2, #12
   daad2:	dd08      	ble.n	daae6 <__adddf3+0x16a>
   daad4:	f102 0c14 	add.w	ip, r2, #20
   daad8:	f1c2 020c 	rsb	r2, r2, #12
   daadc:	fa01 f00c 	lsl.w	r0, r1, ip
   daae0:	fa21 f102 	lsr.w	r1, r1, r2
   daae4:	e00c      	b.n	dab00 <__adddf3+0x184>
   daae6:	f102 0214 	add.w	r2, r2, #20
   daaea:	bfd8      	it	le
   daaec:	f1c2 0c20 	rsble	ip, r2, #32
   daaf0:	fa01 f102 	lsl.w	r1, r1, r2
   daaf4:	fa20 fc0c 	lsr.w	ip, r0, ip
   daaf8:	bfdc      	itt	le
   daafa:	ea41 010c 	orrle.w	r1, r1, ip
   daafe:	4090      	lslle	r0, r2
   dab00:	1ae4      	subs	r4, r4, r3
   dab02:	bfa2      	ittt	ge
   dab04:	eb01 5104 	addge.w	r1, r1, r4, lsl #20
   dab08:	4329      	orrge	r1, r5
   dab0a:	bd30      	popge	{r4, r5, pc}
   dab0c:	ea6f 0404 	mvn.w	r4, r4
   dab10:	3c1f      	subs	r4, #31
   dab12:	da1c      	bge.n	dab4e <__adddf3+0x1d2>
   dab14:	340c      	adds	r4, #12
   dab16:	dc0e      	bgt.n	dab36 <__adddf3+0x1ba>
   dab18:	f104 0414 	add.w	r4, r4, #20
   dab1c:	f1c4 0220 	rsb	r2, r4, #32
   dab20:	fa20 f004 	lsr.w	r0, r0, r4
   dab24:	fa01 f302 	lsl.w	r3, r1, r2
   dab28:	ea40 0003 	orr.w	r0, r0, r3
   dab2c:	fa21 f304 	lsr.w	r3, r1, r4
   dab30:	ea45 0103 	orr.w	r1, r5, r3
   dab34:	bd30      	pop	{r4, r5, pc}
   dab36:	f1c4 040c 	rsb	r4, r4, #12
   dab3a:	f1c4 0220 	rsb	r2, r4, #32
   dab3e:	fa20 f002 	lsr.w	r0, r0, r2
   dab42:	fa01 f304 	lsl.w	r3, r1, r4
   dab46:	ea40 0003 	orr.w	r0, r0, r3
   dab4a:	4629      	mov	r1, r5
   dab4c:	bd30      	pop	{r4, r5, pc}
   dab4e:	fa21 f004 	lsr.w	r0, r1, r4
   dab52:	4629      	mov	r1, r5
   dab54:	bd30      	pop	{r4, r5, pc}
   dab56:	f094 0f00 	teq	r4, #0
   dab5a:	f483 1380 	eor.w	r3, r3, #1048576	; 0x100000
   dab5e:	bf06      	itte	eq
   dab60:	f481 1180 	eoreq.w	r1, r1, #1048576	; 0x100000
   dab64:	3401      	addeq	r4, #1
   dab66:	3d01      	subne	r5, #1
   dab68:	e74e      	b.n	daa08 <__adddf3+0x8c>
   dab6a:	ea7f 5c64 	mvns.w	ip, r4, asr #21
   dab6e:	bf18      	it	ne
   dab70:	ea7f 5c65 	mvnsne.w	ip, r5, asr #21
   dab74:	d029      	beq.n	dabca <__adddf3+0x24e>
   dab76:	ea94 0f05 	teq	r4, r5
   dab7a:	bf08      	it	eq
   dab7c:	ea90 0f02 	teqeq	r0, r2
   dab80:	d005      	beq.n	dab8e <__adddf3+0x212>
   dab82:	ea54 0c00 	orrs.w	ip, r4, r0
   dab86:	bf04      	itt	eq
   dab88:	4619      	moveq	r1, r3
   dab8a:	4610      	moveq	r0, r2
   dab8c:	bd30      	pop	{r4, r5, pc}
   dab8e:	ea91 0f03 	teq	r1, r3
   dab92:	bf1e      	ittt	ne
   dab94:	2100      	movne	r1, #0
   dab96:	2000      	movne	r0, #0
   dab98:	bd30      	popne	{r4, r5, pc}
   dab9a:	ea5f 5c54 	movs.w	ip, r4, lsr #21
   dab9e:	d105      	bne.n	dabac <__adddf3+0x230>
   daba0:	0040      	lsls	r0, r0, #1
   daba2:	4149      	adcs	r1, r1
   daba4:	bf28      	it	cs
   daba6:	f041 4100 	orrcs.w	r1, r1, #2147483648	; 0x80000000
   dabaa:	bd30      	pop	{r4, r5, pc}
   dabac:	f514 0480 	adds.w	r4, r4, #4194304	; 0x400000
   dabb0:	bf3c      	itt	cc
   dabb2:	f501 1180 	addcc.w	r1, r1, #1048576	; 0x100000
   dabb6:	bd30      	popcc	{r4, r5, pc}
   dabb8:	f001 4500 	and.w	r5, r1, #2147483648	; 0x80000000
   dabbc:	f045 41fe 	orr.w	r1, r5, #2130706432	; 0x7f000000
   dabc0:	f441 0170 	orr.w	r1, r1, #15728640	; 0xf00000
   dabc4:	f04f 0000 	mov.w	r0, #0
   dabc8:	bd30      	pop	{r4, r5, pc}
   dabca:	ea7f 5c64 	mvns.w	ip, r4, asr #21
   dabce:	bf1a      	itte	ne
   dabd0:	4619      	movne	r1, r3
   dabd2:	4610      	movne	r0, r2
   dabd4:	ea7f 5c65 	mvnseq.w	ip, r5, asr #21
   dabd8:	bf1c      	itt	ne
   dabda:	460b      	movne	r3, r1
   dabdc:	4602      	movne	r2, r0
   dabde:	ea50 3401 	orrs.w	r4, r0, r1, lsl #12
   dabe2:	bf06      	itte	eq
   dabe4:	ea52 3503 	orrseq.w	r5, r2, r3, lsl #12
   dabe8:	ea91 0f03 	teqeq	r1, r3
   dabec:	f441 2100 	orrne.w	r1, r1, #524288	; 0x80000
   dabf0:	bd30      	pop	{r4, r5, pc}
   dabf2:	bf00      	nop

000dabf4 <__aeabi_ui2d>:
   dabf4:	f090 0f00 	teq	r0, #0
   dabf8:	bf04      	itt	eq
   dabfa:	2100      	moveq	r1, #0
   dabfc:	4770      	bxeq	lr
   dabfe:	b530      	push	{r4, r5, lr}
   dac00:	f44f 6480 	mov.w	r4, #1024	; 0x400
   dac04:	f104 0432 	add.w	r4, r4, #50	; 0x32
   dac08:	f04f 0500 	mov.w	r5, #0
   dac0c:	f04f 0100 	mov.w	r1, #0
   dac10:	e750      	b.n	daab4 <__adddf3+0x138>
   dac12:	bf00      	nop

000dac14 <__aeabi_i2d>:
   dac14:	f090 0f00 	teq	r0, #0
   dac18:	bf04      	itt	eq
   dac1a:	2100      	moveq	r1, #0
   dac1c:	4770      	bxeq	lr
   dac1e:	b530      	push	{r4, r5, lr}
   dac20:	f44f 6480 	mov.w	r4, #1024	; 0x400
   dac24:	f104 0432 	add.w	r4, r4, #50	; 0x32
   dac28:	f010 4500 	ands.w	r5, r0, #2147483648	; 0x80000000
   dac2c:	bf48      	it	mi
   dac2e:	4240      	negmi	r0, r0
   dac30:	f04f 0100 	mov.w	r1, #0
   dac34:	e73e      	b.n	daab4 <__adddf3+0x138>
   dac36:	bf00      	nop

000dac38 <__aeabi_f2d>:
   dac38:	0042      	lsls	r2, r0, #1
   dac3a:	ea4f 01e2 	mov.w	r1, r2, asr #3
   dac3e:	ea4f 0131 	mov.w	r1, r1, rrx
   dac42:	ea4f 7002 	mov.w	r0, r2, lsl #28
   dac46:	bf1f      	itttt	ne
   dac48:	f012 437f 	andsne.w	r3, r2, #4278190080	; 0xff000000
   dac4c:	f093 4f7f 	teqne	r3, #4278190080	; 0xff000000
   dac50:	f081 5160 	eorne.w	r1, r1, #939524096	; 0x38000000
   dac54:	4770      	bxne	lr
   dac56:	f092 0f00 	teq	r2, #0
   dac5a:	bf14      	ite	ne
   dac5c:	f093 4f7f 	teqne	r3, #4278190080	; 0xff000000
   dac60:	4770      	bxeq	lr
   dac62:	b530      	push	{r4, r5, lr}
   dac64:	f44f 7460 	mov.w	r4, #896	; 0x380
   dac68:	f001 4500 	and.w	r5, r1, #2147483648	; 0x80000000
   dac6c:	f021 4100 	bic.w	r1, r1, #2147483648	; 0x80000000
   dac70:	e720      	b.n	daab4 <__adddf3+0x138>
   dac72:	bf00      	nop

000dac74 <__aeabi_ul2d>:
   dac74:	ea50 0201 	orrs.w	r2, r0, r1
   dac78:	bf08      	it	eq
   dac7a:	4770      	bxeq	lr
   dac7c:	b530      	push	{r4, r5, lr}
   dac7e:	f04f 0500 	mov.w	r5, #0
   dac82:	e00a      	b.n	dac9a <__aeabi_l2d+0x16>

000dac84 <__aeabi_l2d>:
   dac84:	ea50 0201 	orrs.w	r2, r0, r1
   dac88:	bf08      	it	eq
   dac8a:	4770      	bxeq	lr
   dac8c:	b530      	push	{r4, r5, lr}
   dac8e:	f011 4500 	ands.w	r5, r1, #2147483648	; 0x80000000
   dac92:	d502      	bpl.n	dac9a <__aeabi_l2d+0x16>
   dac94:	4240      	negs	r0, r0
   dac96:	eb61 0141 	sbc.w	r1, r1, r1, lsl #1
   dac9a:	f44f 6480 	mov.w	r4, #1024	; 0x400
   dac9e:	f104 0432 	add.w	r4, r4, #50	; 0x32
   daca2:	ea5f 5c91 	movs.w	ip, r1, lsr #22
   daca6:	f43f aedc 	beq.w	daa62 <__adddf3+0xe6>
   dacaa:	f04f 0203 	mov.w	r2, #3
   dacae:	ea5f 0cdc 	movs.w	ip, ip, lsr #3
   dacb2:	bf18      	it	ne
   dacb4:	3203      	addne	r2, #3
   dacb6:	ea5f 0cdc 	movs.w	ip, ip, lsr #3
   dacba:	bf18      	it	ne
   dacbc:	3203      	addne	r2, #3
   dacbe:	eb02 02dc 	add.w	r2, r2, ip, lsr #3
   dacc2:	f1c2 0320 	rsb	r3, r2, #32
   dacc6:	fa00 fc03 	lsl.w	ip, r0, r3
   dacca:	fa20 f002 	lsr.w	r0, r0, r2
   dacce:	fa01 fe03 	lsl.w	lr, r1, r3
   dacd2:	ea40 000e 	orr.w	r0, r0, lr
   dacd6:	fa21 f102 	lsr.w	r1, r1, r2
   dacda:	4414      	add	r4, r2
   dacdc:	e6c1      	b.n	daa62 <__adddf3+0xe6>
   dacde:	bf00      	nop

000dace0 <__aeabi_dmul>:
   dace0:	b570      	push	{r4, r5, r6, lr}
   dace2:	f04f 0cff 	mov.w	ip, #255	; 0xff
   dace6:	f44c 6ce0 	orr.w	ip, ip, #1792	; 0x700
   dacea:	ea1c 5411 	ands.w	r4, ip, r1, lsr #20
   dacee:	bf1d      	ittte	ne
   dacf0:	ea1c 5513 	andsne.w	r5, ip, r3, lsr #20
   dacf4:	ea94 0f0c 	teqne	r4, ip
   dacf8:	ea95 0f0c 	teqne	r5, ip
   dacfc:	f000 f8de 	bleq	daebc <__aeabi_dmul+0x1dc>
   dad00:	442c      	add	r4, r5
   dad02:	ea81 0603 	eor.w	r6, r1, r3
   dad06:	ea21 514c 	bic.w	r1, r1, ip, lsl #21
   dad0a:	ea23 534c 	bic.w	r3, r3, ip, lsl #21
   dad0e:	ea50 3501 	orrs.w	r5, r0, r1, lsl #12
   dad12:	bf18      	it	ne
   dad14:	ea52 3503 	orrsne.w	r5, r2, r3, lsl #12
   dad18:	f441 1180 	orr.w	r1, r1, #1048576	; 0x100000
   dad1c:	f443 1380 	orr.w	r3, r3, #1048576	; 0x100000
   dad20:	d038      	beq.n	dad94 <__aeabi_dmul+0xb4>
   dad22:	fba0 ce02 	umull	ip, lr, r0, r2
   dad26:	f04f 0500 	mov.w	r5, #0
   dad2a:	fbe1 e502 	umlal	lr, r5, r1, r2
   dad2e:	f006 4200 	and.w	r2, r6, #2147483648	; 0x80000000
   dad32:	fbe0 e503 	umlal	lr, r5, r0, r3
   dad36:	f04f 0600 	mov.w	r6, #0
   dad3a:	fbe1 5603 	umlal	r5, r6, r1, r3
   dad3e:	f09c 0f00 	teq	ip, #0
   dad42:	bf18      	it	ne
   dad44:	f04e 0e01 	orrne.w	lr, lr, #1
   dad48:	f1a4 04ff 	sub.w	r4, r4, #255	; 0xff
   dad4c:	f5b6 7f00 	cmp.w	r6, #512	; 0x200
   dad50:	f564 7440 	sbc.w	r4, r4, #768	; 0x300
   dad54:	d204      	bcs.n	dad60 <__aeabi_dmul+0x80>
   dad56:	ea5f 0e4e 	movs.w	lr, lr, lsl #1
   dad5a:	416d      	adcs	r5, r5
   dad5c:	eb46 0606 	adc.w	r6, r6, r6
   dad60:	ea42 21c6 	orr.w	r1, r2, r6, lsl #11
   dad64:	ea41 5155 	orr.w	r1, r1, r5, lsr #21
   dad68:	ea4f 20c5 	mov.w	r0, r5, lsl #11
   dad6c:	ea40 505e 	orr.w	r0, r0, lr, lsr #21
   dad70:	ea4f 2ece 	mov.w	lr, lr, lsl #11
   dad74:	f1b4 0cfd 	subs.w	ip, r4, #253	; 0xfd
   dad78:	bf88      	it	hi
   dad7a:	f5bc 6fe0 	cmphi.w	ip, #1792	; 0x700
   dad7e:	d81e      	bhi.n	dadbe <__aeabi_dmul+0xde>
   dad80:	f1be 4f00 	cmp.w	lr, #2147483648	; 0x80000000
   dad84:	bf08      	it	eq
   dad86:	ea5f 0e50 	movseq.w	lr, r0, lsr #1
   dad8a:	f150 0000 	adcs.w	r0, r0, #0
   dad8e:	eb41 5104 	adc.w	r1, r1, r4, lsl #20
   dad92:	bd70      	pop	{r4, r5, r6, pc}
   dad94:	f006 4600 	and.w	r6, r6, #2147483648	; 0x80000000
   dad98:	ea46 0101 	orr.w	r1, r6, r1
   dad9c:	ea40 0002 	orr.w	r0, r0, r2
   dada0:	ea81 0103 	eor.w	r1, r1, r3
   dada4:	ebb4 045c 	subs.w	r4, r4, ip, lsr #1
   dada8:	bfc2      	ittt	gt
   dadaa:	ebd4 050c 	rsbsgt	r5, r4, ip
   dadae:	ea41 5104 	orrgt.w	r1, r1, r4, lsl #20
   dadb2:	bd70      	popgt	{r4, r5, r6, pc}
   dadb4:	f441 1180 	orr.w	r1, r1, #1048576	; 0x100000
   dadb8:	f04f 0e00 	mov.w	lr, #0
   dadbc:	3c01      	subs	r4, #1
   dadbe:	f300 80ab 	bgt.w	daf18 <__aeabi_dmul+0x238>
   dadc2:	f114 0f36 	cmn.w	r4, #54	; 0x36
   dadc6:	bfde      	ittt	le
   dadc8:	2000      	movle	r0, #0
   dadca:	f001 4100 	andle.w	r1, r1, #2147483648	; 0x80000000
   dadce:	bd70      	pople	{r4, r5, r6, pc}
   dadd0:	f1c4 0400 	rsb	r4, r4, #0
   dadd4:	3c20      	subs	r4, #32
   dadd6:	da35      	bge.n	dae44 <__aeabi_dmul+0x164>
   dadd8:	340c      	adds	r4, #12
   dadda:	dc1b      	bgt.n	dae14 <__aeabi_dmul+0x134>
   daddc:	f104 0414 	add.w	r4, r4, #20
   dade0:	f1c4 0520 	rsb	r5, r4, #32
   dade4:	fa00 f305 	lsl.w	r3, r0, r5
   dade8:	fa20 f004 	lsr.w	r0, r0, r4
   dadec:	fa01 f205 	lsl.w	r2, r1, r5
   dadf0:	ea40 0002 	orr.w	r0, r0, r2
   dadf4:	f001 4200 	and.w	r2, r1, #2147483648	; 0x80000000
   dadf8:	f021 4100 	bic.w	r1, r1, #2147483648	; 0x80000000
   dadfc:	eb10 70d3 	adds.w	r0, r0, r3, lsr #31
   dae00:	fa21 f604 	lsr.w	r6, r1, r4
   dae04:	eb42 0106 	adc.w	r1, r2, r6
   dae08:	ea5e 0e43 	orrs.w	lr, lr, r3, lsl #1
   dae0c:	bf08      	it	eq
   dae0e:	ea20 70d3 	biceq.w	r0, r0, r3, lsr #31
   dae12:	bd70      	pop	{r4, r5, r6, pc}
   dae14:	f1c4 040c 	rsb	r4, r4, #12
   dae18:	f1c4 0520 	rsb	r5, r4, #32
   dae1c:	fa00 f304 	lsl.w	r3, r0, r4
   dae20:	fa20 f005 	lsr.w	r0, r0, r5
   dae24:	fa01 f204 	lsl.w	r2, r1, r4
   dae28:	ea40 0002 	orr.w	r0, r0, r2
   dae2c:	f001 4100 	and.w	r1, r1, #2147483648	; 0x80000000
   dae30:	eb10 70d3 	adds.w	r0, r0, r3, lsr #31
   dae34:	f141 0100 	adc.w	r1, r1, #0
   dae38:	ea5e 0e43 	orrs.w	lr, lr, r3, lsl #1
   dae3c:	bf08      	it	eq
   dae3e:	ea20 70d3 	biceq.w	r0, r0, r3, lsr #31
   dae42:	bd70      	pop	{r4, r5, r6, pc}
   dae44:	f1c4 0520 	rsb	r5, r4, #32
   dae48:	fa00 f205 	lsl.w	r2, r0, r5
   dae4c:	ea4e 0e02 	orr.w	lr, lr, r2
   dae50:	fa20 f304 	lsr.w	r3, r0, r4
   dae54:	fa01 f205 	lsl.w	r2, r1, r5
   dae58:	ea43 0302 	orr.w	r3, r3, r2
   dae5c:	fa21 f004 	lsr.w	r0, r1, r4
   dae60:	f001 4100 	and.w	r1, r1, #2147483648	; 0x80000000
   dae64:	fa21 f204 	lsr.w	r2, r1, r4
   dae68:	ea20 0002 	bic.w	r0, r0, r2
   dae6c:	eb00 70d3 	add.w	r0, r0, r3, lsr #31
   dae70:	ea5e 0e43 	orrs.w	lr, lr, r3, lsl #1
   dae74:	bf08      	it	eq
   dae76:	ea20 70d3 	biceq.w	r0, r0, r3, lsr #31
   dae7a:	bd70      	pop	{r4, r5, r6, pc}
   dae7c:	f094 0f00 	teq	r4, #0
   dae80:	d10f      	bne.n	daea2 <__aeabi_dmul+0x1c2>
   dae82:	f001 4600 	and.w	r6, r1, #2147483648	; 0x80000000
   dae86:	0040      	lsls	r0, r0, #1
   dae88:	eb41 0101 	adc.w	r1, r1, r1
   dae8c:	f411 1f80 	tst.w	r1, #1048576	; 0x100000
   dae90:	bf08      	it	eq
   dae92:	3c01      	subeq	r4, #1
   dae94:	d0f7      	beq.n	dae86 <__aeabi_dmul+0x1a6>
   dae96:	ea41 0106 	orr.w	r1, r1, r6
   dae9a:	f095 0f00 	teq	r5, #0
   dae9e:	bf18      	it	ne
   daea0:	4770      	bxne	lr
   daea2:	f003 4600 	and.w	r6, r3, #2147483648	; 0x80000000
   daea6:	0052      	lsls	r2, r2, #1
   daea8:	eb43 0303 	adc.w	r3, r3, r3
   daeac:	f413 1f80 	tst.w	r3, #1048576	; 0x100000
   daeb0:	bf08      	it	eq
   daeb2:	3d01      	subeq	r5, #1
   daeb4:	d0f7      	beq.n	daea6 <__aeabi_dmul+0x1c6>
   daeb6:	ea43 0306 	orr.w	r3, r3, r6
   daeba:	4770      	bx	lr
   daebc:	ea94 0f0c 	teq	r4, ip
   daec0:	ea0c 5513 	and.w	r5, ip, r3, lsr #20
   daec4:	bf18      	it	ne
   daec6:	ea95 0f0c 	teqne	r5, ip
   daeca:	d00c      	beq.n	daee6 <__aeabi_dmul+0x206>
   daecc:	ea50 0641 	orrs.w	r6, r0, r1, lsl #1
   daed0:	bf18      	it	ne
   daed2:	ea52 0643 	orrsne.w	r6, r2, r3, lsl #1
   daed6:	d1d1      	bne.n	dae7c <__aeabi_dmul+0x19c>
   daed8:	ea81 0103 	eor.w	r1, r1, r3
   daedc:	f001 4100 	and.w	r1, r1, #2147483648	; 0x80000000
   daee0:	f04f 0000 	mov.w	r0, #0
   daee4:	bd70      	pop	{r4, r5, r6, pc}
   daee6:	ea50 0641 	orrs.w	r6, r0, r1, lsl #1
   daeea:	bf06      	itte	eq
   daeec:	4610      	moveq	r0, r2
   daeee:	4619      	moveq	r1, r3
   daef0:	ea52 0643 	orrsne.w	r6, r2, r3, lsl #1
   daef4:	d019      	beq.n	daf2a <__aeabi_dmul+0x24a>
   daef6:	ea94 0f0c 	teq	r4, ip
   daefa:	d102      	bne.n	daf02 <__aeabi_dmul+0x222>
   daefc:	ea50 3601 	orrs.w	r6, r0, r1, lsl #12
   daf00:	d113      	bne.n	daf2a <__aeabi_dmul+0x24a>
   daf02:	ea95 0f0c 	teq	r5, ip
   daf06:	d105      	bne.n	daf14 <__aeabi_dmul+0x234>
   daf08:	ea52 3603 	orrs.w	r6, r2, r3, lsl #12
   daf0c:	bf1c      	itt	ne
   daf0e:	4610      	movne	r0, r2
   daf10:	4619      	movne	r1, r3
   daf12:	d10a      	bne.n	daf2a <__aeabi_dmul+0x24a>
   daf14:	ea81 0103 	eor.w	r1, r1, r3
   daf18:	f001 4100 	and.w	r1, r1, #2147483648	; 0x80000000
   daf1c:	f041 41fe 	orr.w	r1, r1, #2130706432	; 0x7f000000
   daf20:	f441 0170 	orr.w	r1, r1, #15728640	; 0xf00000
   daf24:	f04f 0000 	mov.w	r0, #0
   daf28:	bd70      	pop	{r4, r5, r6, pc}
   daf2a:	f041 41fe 	orr.w	r1, r1, #2130706432	; 0x7f000000
   daf2e:	f441 0178 	orr.w	r1, r1, #16252928	; 0xf80000
   daf32:	bd70      	pop	{r4, r5, r6, pc}

000daf34 <__aeabi_ddiv>:
   daf34:	b570      	push	{r4, r5, r6, lr}
   daf36:	f04f 0cff 	mov.w	ip, #255	; 0xff
   daf3a:	f44c 6ce0 	orr.w	ip, ip, #1792	; 0x700
   daf3e:	ea1c 5411 	ands.w	r4, ip, r1, lsr #20
   daf42:	bf1d      	ittte	ne
   daf44:	ea1c 5513 	andsne.w	r5, ip, r3, lsr #20
   daf48:	ea94 0f0c 	teqne	r4, ip
   daf4c:	ea95 0f0c 	teqne	r5, ip
   daf50:	f000 f8a7 	bleq	db0a2 <__aeabi_ddiv+0x16e>
   daf54:	eba4 0405 	sub.w	r4, r4, r5
   daf58:	ea81 0e03 	eor.w	lr, r1, r3
   daf5c:	ea52 3503 	orrs.w	r5, r2, r3, lsl #12
   daf60:	ea4f 3101 	mov.w	r1, r1, lsl #12
   daf64:	f000 8088 	beq.w	db078 <__aeabi_ddiv+0x144>
   daf68:	ea4f 3303 	mov.w	r3, r3, lsl #12
   daf6c:	f04f 5580 	mov.w	r5, #268435456	; 0x10000000
   daf70:	ea45 1313 	orr.w	r3, r5, r3, lsr #4
   daf74:	ea43 6312 	orr.w	r3, r3, r2, lsr #24
   daf78:	ea4f 2202 	mov.w	r2, r2, lsl #8
   daf7c:	ea45 1511 	orr.w	r5, r5, r1, lsr #4
   daf80:	ea45 6510 	orr.w	r5, r5, r0, lsr #24
   daf84:	ea4f 2600 	mov.w	r6, r0, lsl #8
   daf88:	f00e 4100 	and.w	r1, lr, #2147483648	; 0x80000000
   daf8c:	429d      	cmp	r5, r3
   daf8e:	bf08      	it	eq
   daf90:	4296      	cmpeq	r6, r2
   daf92:	f144 04fd 	adc.w	r4, r4, #253	; 0xfd
   daf96:	f504 7440 	add.w	r4, r4, #768	; 0x300
   daf9a:	d202      	bcs.n	dafa2 <__aeabi_ddiv+0x6e>
   daf9c:	085b      	lsrs	r3, r3, #1
   daf9e:	ea4f 0232 	mov.w	r2, r2, rrx
   dafa2:	1ab6      	subs	r6, r6, r2
   dafa4:	eb65 0503 	sbc.w	r5, r5, r3
   dafa8:	085b      	lsrs	r3, r3, #1
   dafaa:	ea4f 0232 	mov.w	r2, r2, rrx
   dafae:	f44f 1080 	mov.w	r0, #1048576	; 0x100000
   dafb2:	f44f 2c00 	mov.w	ip, #524288	; 0x80000
   dafb6:	ebb6 0e02 	subs.w	lr, r6, r2
   dafba:	eb75 0e03 	sbcs.w	lr, r5, r3
   dafbe:	bf22      	ittt	cs
   dafc0:	1ab6      	subcs	r6, r6, r2
   dafc2:	4675      	movcs	r5, lr
   dafc4:	ea40 000c 	orrcs.w	r0, r0, ip
   dafc8:	085b      	lsrs	r3, r3, #1
   dafca:	ea4f 0232 	mov.w	r2, r2, rrx
   dafce:	ebb6 0e02 	subs.w	lr, r6, r2
   dafd2:	eb75 0e03 	sbcs.w	lr, r5, r3
   dafd6:	bf22      	ittt	cs
   dafd8:	1ab6      	subcs	r6, r6, r2
   dafda:	4675      	movcs	r5, lr
   dafdc:	ea40 005c 	orrcs.w	r0, r0, ip, lsr #1
   dafe0:	085b      	lsrs	r3, r3, #1
   dafe2:	ea4f 0232 	mov.w	r2, r2, rrx
   dafe6:	ebb6 0e02 	subs.w	lr, r6, r2
   dafea:	eb75 0e03 	sbcs.w	lr, r5, r3
   dafee:	bf22      	ittt	cs
   daff0:	1ab6      	subcs	r6, r6, r2
   daff2:	4675      	movcs	r5, lr
   daff4:	ea40 009c 	orrcs.w	r0, r0, ip, lsr #2
   daff8:	085b      	lsrs	r3, r3, #1
   daffa:	ea4f 0232 	mov.w	r2, r2, rrx
   daffe:	ebb6 0e02 	subs.w	lr, r6, r2
   db002:	eb75 0e03 	sbcs.w	lr, r5, r3
   db006:	bf22      	ittt	cs
   db008:	1ab6      	subcs	r6, r6, r2
   db00a:	4675      	movcs	r5, lr
   db00c:	ea40 00dc 	orrcs.w	r0, r0, ip, lsr #3
   db010:	ea55 0e06 	orrs.w	lr, r5, r6
   db014:	d018      	beq.n	db048 <__aeabi_ddiv+0x114>
   db016:	ea4f 1505 	mov.w	r5, r5, lsl #4
   db01a:	ea45 7516 	orr.w	r5, r5, r6, lsr #28
   db01e:	ea4f 1606 	mov.w	r6, r6, lsl #4
   db022:	ea4f 03c3 	mov.w	r3, r3, lsl #3
   db026:	ea43 7352 	orr.w	r3, r3, r2, lsr #29
   db02a:	ea4f 02c2 	mov.w	r2, r2, lsl #3
   db02e:	ea5f 1c1c 	movs.w	ip, ip, lsr #4
   db032:	d1c0      	bne.n	dafb6 <__aeabi_ddiv+0x82>
   db034:	f411 1f80 	tst.w	r1, #1048576	; 0x100000
   db038:	d10b      	bne.n	db052 <__aeabi_ddiv+0x11e>
   db03a:	ea41 0100 	orr.w	r1, r1, r0
   db03e:	f04f 0000 	mov.w	r0, #0
   db042:	f04f 4c00 	mov.w	ip, #2147483648	; 0x80000000
   db046:	e7b6      	b.n	dafb6 <__aeabi_ddiv+0x82>
   db048:	f411 1f80 	tst.w	r1, #1048576	; 0x100000
   db04c:	bf04      	itt	eq
   db04e:	4301      	orreq	r1, r0
   db050:	2000      	moveq	r0, #0
   db052:	f1b4 0cfd 	subs.w	ip, r4, #253	; 0xfd
   db056:	bf88      	it	hi
   db058:	f5bc 6fe0 	cmphi.w	ip, #1792	; 0x700
   db05c:	f63f aeaf 	bhi.w	dadbe <__aeabi_dmul+0xde>
   db060:	ebb5 0c03 	subs.w	ip, r5, r3
   db064:	bf04      	itt	eq
   db066:	ebb6 0c02 	subseq.w	ip, r6, r2
   db06a:	ea5f 0c50 	movseq.w	ip, r0, lsr #1
   db06e:	f150 0000 	adcs.w	r0, r0, #0
   db072:	eb41 5104 	adc.w	r1, r1, r4, lsl #20
   db076:	bd70      	pop	{r4, r5, r6, pc}
   db078:	f00e 4e00 	and.w	lr, lr, #2147483648	; 0x80000000
   db07c:	ea4e 3111 	orr.w	r1, lr, r1, lsr #12
   db080:	eb14 045c 	adds.w	r4, r4, ip, lsr #1
   db084:	bfc2      	ittt	gt
   db086:	ebd4 050c 	rsbsgt	r5, r4, ip
   db08a:	ea41 5104 	orrgt.w	r1, r1, r4, lsl #20
   db08e:	bd70      	popgt	{r4, r5, r6, pc}
   db090:	f441 1180 	orr.w	r1, r1, #1048576	; 0x100000
   db094:	f04f 0e00 	mov.w	lr, #0
   db098:	3c01      	subs	r4, #1
   db09a:	e690      	b.n	dadbe <__aeabi_dmul+0xde>
   db09c:	ea45 0e06 	orr.w	lr, r5, r6
   db0a0:	e68d      	b.n	dadbe <__aeabi_dmul+0xde>
   db0a2:	ea0c 5513 	and.w	r5, ip, r3, lsr #20
   db0a6:	ea94 0f0c 	teq	r4, ip
   db0aa:	bf08      	it	eq
   db0ac:	ea95 0f0c 	teqeq	r5, ip
   db0b0:	f43f af3b 	beq.w	daf2a <__aeabi_dmul+0x24a>
   db0b4:	ea94 0f0c 	teq	r4, ip
   db0b8:	d10a      	bne.n	db0d0 <__aeabi_ddiv+0x19c>
   db0ba:	ea50 3401 	orrs.w	r4, r0, r1, lsl #12
   db0be:	f47f af34 	bne.w	daf2a <__aeabi_dmul+0x24a>
   db0c2:	ea95 0f0c 	teq	r5, ip
   db0c6:	f47f af25 	bne.w	daf14 <__aeabi_dmul+0x234>
   db0ca:	4610      	mov	r0, r2
   db0cc:	4619      	mov	r1, r3
   db0ce:	e72c      	b.n	daf2a <__aeabi_dmul+0x24a>
   db0d0:	ea95 0f0c 	teq	r5, ip
   db0d4:	d106      	bne.n	db0e4 <__aeabi_ddiv+0x1b0>
   db0d6:	ea52 3503 	orrs.w	r5, r2, r3, lsl #12
   db0da:	f43f aefd 	beq.w	daed8 <__aeabi_dmul+0x1f8>
   db0de:	4610      	mov	r0, r2
   db0e0:	4619      	mov	r1, r3
   db0e2:	e722      	b.n	daf2a <__aeabi_dmul+0x24a>
   db0e4:	ea50 0641 	orrs.w	r6, r0, r1, lsl #1
   db0e8:	bf18      	it	ne
   db0ea:	ea52 0643 	orrsne.w	r6, r2, r3, lsl #1
   db0ee:	f47f aec5 	bne.w	dae7c <__aeabi_dmul+0x19c>
   db0f2:	ea50 0441 	orrs.w	r4, r0, r1, lsl #1
   db0f6:	f47f af0d 	bne.w	daf14 <__aeabi_dmul+0x234>
   db0fa:	ea52 0543 	orrs.w	r5, r2, r3, lsl #1
   db0fe:	f47f aeeb 	bne.w	daed8 <__aeabi_dmul+0x1f8>
   db102:	e712      	b.n	daf2a <__aeabi_dmul+0x24a>

000db104 <__aeabi_d2f>:
   db104:	ea4f 0241 	mov.w	r2, r1, lsl #1
   db108:	f1b2 43e0 	subs.w	r3, r2, #1879048192	; 0x70000000
   db10c:	bf24      	itt	cs
   db10e:	f5b3 1c00 	subscs.w	ip, r3, #2097152	; 0x200000
   db112:	f1dc 5cfe 	rsbscs	ip, ip, #532676608	; 0x1fc00000
   db116:	d90d      	bls.n	db134 <__aeabi_d2f+0x30>
   db118:	f001 4c00 	and.w	ip, r1, #2147483648	; 0x80000000
   db11c:	ea4f 02c0 	mov.w	r2, r0, lsl #3
   db120:	ea4c 7050 	orr.w	r0, ip, r0, lsr #29
   db124:	f1b2 4f00 	cmp.w	r2, #2147483648	; 0x80000000
   db128:	eb40 0083 	adc.w	r0, r0, r3, lsl #2
   db12c:	bf08      	it	eq
   db12e:	f020 0001 	biceq.w	r0, r0, #1
   db132:	4770      	bx	lr
   db134:	f011 4f80 	tst.w	r1, #1073741824	; 0x40000000
   db138:	d121      	bne.n	db17e <__aeabi_d2f+0x7a>
   db13a:	f113 7238 	adds.w	r2, r3, #48234496	; 0x2e00000
   db13e:	bfbc      	itt	lt
   db140:	f001 4000 	andlt.w	r0, r1, #2147483648	; 0x80000000
   db144:	4770      	bxlt	lr
   db146:	f441 1180 	orr.w	r1, r1, #1048576	; 0x100000
   db14a:	ea4f 5252 	mov.w	r2, r2, lsr #21
   db14e:	f1c2 0218 	rsb	r2, r2, #24
   db152:	f1c2 0c20 	rsb	ip, r2, #32
   db156:	fa10 f30c 	lsls.w	r3, r0, ip
   db15a:	fa20 f002 	lsr.w	r0, r0, r2
   db15e:	bf18      	it	ne
   db160:	f040 0001 	orrne.w	r0, r0, #1
   db164:	ea4f 23c1 	mov.w	r3, r1, lsl #11
   db168:	ea4f 23d3 	mov.w	r3, r3, lsr #11
   db16c:	fa03 fc0c 	lsl.w	ip, r3, ip
   db170:	ea40 000c 	orr.w	r0, r0, ip
   db174:	fa23 f302 	lsr.w	r3, r3, r2
   db178:	ea4f 0343 	mov.w	r3, r3, lsl #1
   db17c:	e7cc      	b.n	db118 <__aeabi_d2f+0x14>
   db17e:	ea7f 5362 	mvns.w	r3, r2, asr #21
   db182:	d107      	bne.n	db194 <__aeabi_d2f+0x90>
   db184:	ea50 3301 	orrs.w	r3, r0, r1, lsl #12
   db188:	bf1e      	ittt	ne
   db18a:	f04f 40fe 	movne.w	r0, #2130706432	; 0x7f000000
   db18e:	f440 0040 	orrne.w	r0, r0, #12582912	; 0xc00000
   db192:	4770      	bxne	lr
   db194:	f001 4000 	and.w	r0, r1, #2147483648	; 0x80000000
   db198:	f040 40fe 	orr.w	r0, r0, #2130706432	; 0x7f000000
   db19c:	f440 0000 	orr.w	r0, r0, #8388608	; 0x800000
   db1a0:	4770      	bx	lr
   db1a2:	bf00      	nop

000db1a4 <__cxa_atexit>:
   db1a4:	b510      	push	{r4, lr}
   db1a6:	4c05      	ldr	r4, [pc, #20]	; (db1bc <__cxa_atexit+0x18>)
   db1a8:	4613      	mov	r3, r2
   db1aa:	b12c      	cbz	r4, db1b8 <__cxa_atexit+0x14>
   db1ac:	460a      	mov	r2, r1
   db1ae:	4601      	mov	r1, r0
   db1b0:	2002      	movs	r0, #2
   db1b2:	f3af 8000 	nop.w
   db1b6:	bd10      	pop	{r4, pc}
   db1b8:	4620      	mov	r0, r4
   db1ba:	bd10      	pop	{r4, pc}
   db1bc:	00000000 	.word	0x00000000

000db1c0 <localtime>:
   db1c0:	b538      	push	{r3, r4, r5, lr}
   db1c2:	4b07      	ldr	r3, [pc, #28]	; (db1e0 <localtime+0x20>)
   db1c4:	681c      	ldr	r4, [r3, #0]
   db1c6:	6be3      	ldr	r3, [r4, #60]	; 0x3c
   db1c8:	4605      	mov	r5, r0
   db1ca:	b91b      	cbnz	r3, db1d4 <localtime+0x14>
   db1cc:	2024      	movs	r0, #36	; 0x24
   db1ce:	f7fd fcf5 	bl	d8bbc <malloc>
   db1d2:	63e0      	str	r0, [r4, #60]	; 0x3c
   db1d4:	6be1      	ldr	r1, [r4, #60]	; 0x3c
   db1d6:	4628      	mov	r0, r5
   db1d8:	e8bd 4038 	ldmia.w	sp!, {r3, r4, r5, lr}
   db1dc:	f000 b802 	b.w	db1e4 <localtime_r>
   db1e0:	2003d96c 	.word	0x2003d96c

000db1e4 <localtime_r>:
   db1e4:	e92d 41f0 	stmdb	sp!, {r4, r5, r6, r7, r8, lr}
   db1e8:	460c      	mov	r4, r1
   db1ea:	4680      	mov	r8, r0
   db1ec:	f000 fc64 	bl	dbab8 <__gettzinfo>
   db1f0:	4621      	mov	r1, r4
   db1f2:	4607      	mov	r7, r0
   db1f4:	4640      	mov	r0, r8
   db1f6:	f000 fc63 	bl	dbac0 <gmtime_r>
   db1fa:	6946      	ldr	r6, [r0, #20]
   db1fc:	f206 766c 	addw	r6, r6, #1900	; 0x76c
   db200:	07b3      	lsls	r3, r6, #30
   db202:	4604      	mov	r4, r0
   db204:	d105      	bne.n	db212 <localtime_r+0x2e>
   db206:	2264      	movs	r2, #100	; 0x64
   db208:	fb96 f3f2 	sdiv	r3, r6, r2
   db20c:	fb02 6313 	mls	r3, r2, r3, r6
   db210:	b94b      	cbnz	r3, db226 <localtime_r+0x42>
   db212:	f44f 75c8 	mov.w	r5, #400	; 0x190
   db216:	fb96 f3f5 	sdiv	r3, r6, r5
   db21a:	fb05 6513 	mls	r5, r5, r3, r6
   db21e:	fab5 f385 	clz	r3, r5
   db222:	095b      	lsrs	r3, r3, #5
   db224:	e000      	b.n	db228 <localtime_r+0x44>
   db226:	2301      	movs	r3, #1
   db228:	4a5f      	ldr	r2, [pc, #380]	; (db3a8 <localtime_r+0x1c4>)
   db22a:	2530      	movs	r5, #48	; 0x30
   db22c:	fb05 2503 	mla	r5, r5, r3, r2
   db230:	f000 fa76 	bl	db720 <__tz_lock>
   db234:	f000 fa76 	bl	db724 <_tzset_unlocked>
   db238:	4b5c      	ldr	r3, [pc, #368]	; (db3ac <localtime_r+0x1c8>)
   db23a:	681b      	ldr	r3, [r3, #0]
   db23c:	b1f3      	cbz	r3, db27c <localtime_r+0x98>
   db23e:	687b      	ldr	r3, [r7, #4]
   db240:	429e      	cmp	r6, r3
   db242:	d105      	bne.n	db250 <localtime_r+0x6c>
   db244:	6839      	ldr	r1, [r7, #0]
   db246:	f8d8 3000 	ldr.w	r3, [r8]
   db24a:	69fa      	ldr	r2, [r7, #28]
   db24c:	b941      	cbnz	r1, db260 <localtime_r+0x7c>
   db24e:	e00a      	b.n	db266 <localtime_r+0x82>
   db250:	4630      	mov	r0, r6
   db252:	f000 f9bd 	bl	db5d0 <__tzcalc_limits>
   db256:	2800      	cmp	r0, #0
   db258:	d1f4      	bne.n	db244 <localtime_r+0x60>
   db25a:	f04f 33ff 	mov.w	r3, #4294967295
   db25e:	e00d      	b.n	db27c <localtime_r+0x98>
   db260:	4293      	cmp	r3, r2
   db262:	db08      	blt.n	db276 <localtime_r+0x92>
   db264:	e001      	b.n	db26a <localtime_r+0x86>
   db266:	4293      	cmp	r3, r2
   db268:	da07      	bge.n	db27a <localtime_r+0x96>
   db26a:	6bba      	ldr	r2, [r7, #56]	; 0x38
   db26c:	4293      	cmp	r3, r2
   db26e:	bfac      	ite	ge
   db270:	2300      	movge	r3, #0
   db272:	2301      	movlt	r3, #1
   db274:	e002      	b.n	db27c <localtime_r+0x98>
   db276:	2300      	movs	r3, #0
   db278:	e000      	b.n	db27c <localtime_r+0x98>
   db27a:	2301      	movs	r3, #1
   db27c:	6223      	str	r3, [r4, #32]
   db27e:	6a23      	ldr	r3, [r4, #32]
   db280:	2b01      	cmp	r3, #1
   db282:	bf0c      	ite	eq
   db284:	6bf9      	ldreq	r1, [r7, #60]	; 0x3c
   db286:	6a39      	ldrne	r1, [r7, #32]
   db288:	f44f 6361 	mov.w	r3, #3600	; 0xe10
   db28c:	203c      	movs	r0, #60	; 0x3c
   db28e:	fb91 f6f3 	sdiv	r6, r1, r3
   db292:	fb03 1316 	mls	r3, r3, r6, r1
   db296:	6861      	ldr	r1, [r4, #4]
   db298:	fb93 f2f0 	sdiv	r2, r3, r0
   db29c:	fb00 3012 	mls	r0, r0, r2, r3
   db2a0:	6823      	ldr	r3, [r4, #0]
   db2a2:	1a89      	subs	r1, r1, r2
   db2a4:	68a2      	ldr	r2, [r4, #8]
   db2a6:	6061      	str	r1, [r4, #4]
   db2a8:	1a1b      	subs	r3, r3, r0
   db2aa:	1b92      	subs	r2, r2, r6
   db2ac:	2b3b      	cmp	r3, #59	; 0x3b
   db2ae:	6023      	str	r3, [r4, #0]
   db2b0:	60a2      	str	r2, [r4, #8]
   db2b2:	dd03      	ble.n	db2bc <localtime_r+0xd8>
   db2b4:	3101      	adds	r1, #1
   db2b6:	6061      	str	r1, [r4, #4]
   db2b8:	3b3c      	subs	r3, #60	; 0x3c
   db2ba:	e004      	b.n	db2c6 <localtime_r+0xe2>
   db2bc:	2b00      	cmp	r3, #0
   db2be:	da03      	bge.n	db2c8 <localtime_r+0xe4>
   db2c0:	3901      	subs	r1, #1
   db2c2:	6061      	str	r1, [r4, #4]
   db2c4:	333c      	adds	r3, #60	; 0x3c
   db2c6:	6023      	str	r3, [r4, #0]
   db2c8:	6863      	ldr	r3, [r4, #4]
   db2ca:	2b3b      	cmp	r3, #59	; 0x3b
   db2cc:	dd03      	ble.n	db2d6 <localtime_r+0xf2>
   db2ce:	3201      	adds	r2, #1
   db2d0:	60a2      	str	r2, [r4, #8]
   db2d2:	3b3c      	subs	r3, #60	; 0x3c
   db2d4:	e004      	b.n	db2e0 <localtime_r+0xfc>
   db2d6:	2b00      	cmp	r3, #0
   db2d8:	da03      	bge.n	db2e2 <localtime_r+0xfe>
   db2da:	3a01      	subs	r2, #1
   db2dc:	60a2      	str	r2, [r4, #8]
   db2de:	333c      	adds	r3, #60	; 0x3c
   db2e0:	6063      	str	r3, [r4, #4]
   db2e2:	68a3      	ldr	r3, [r4, #8]
   db2e4:	2b17      	cmp	r3, #23
   db2e6:	dd22      	ble.n	db32e <localtime_r+0x14a>
   db2e8:	69e2      	ldr	r2, [r4, #28]
   db2ea:	3201      	adds	r2, #1
   db2ec:	61e2      	str	r2, [r4, #28]
   db2ee:	69a2      	ldr	r2, [r4, #24]
   db2f0:	3201      	adds	r2, #1
   db2f2:	2a06      	cmp	r2, #6
   db2f4:	bfc8      	it	gt
   db2f6:	2200      	movgt	r2, #0
   db2f8:	61a2      	str	r2, [r4, #24]
   db2fa:	68e2      	ldr	r2, [r4, #12]
   db2fc:	3b18      	subs	r3, #24
   db2fe:	3201      	adds	r2, #1
   db300:	60a3      	str	r3, [r4, #8]
   db302:	6923      	ldr	r3, [r4, #16]
   db304:	60e2      	str	r2, [r4, #12]
   db306:	f855 1023 	ldr.w	r1, [r5, r3, lsl #2]
   db30a:	428a      	cmp	r2, r1
   db30c:	dd46      	ble.n	db39c <localtime_r+0x1b8>
   db30e:	3301      	adds	r3, #1
   db310:	2b0c      	cmp	r3, #12
   db312:	bf0c      	ite	eq
   db314:	6963      	ldreq	r3, [r4, #20]
   db316:	6123      	strne	r3, [r4, #16]
   db318:	eba2 0201 	sub.w	r2, r2, r1
   db31c:	60e2      	str	r2, [r4, #12]
   db31e:	bf01      	itttt	eq
   db320:	3301      	addeq	r3, #1
   db322:	2200      	moveq	r2, #0
   db324:	6122      	streq	r2, [r4, #16]
   db326:	6163      	streq	r3, [r4, #20]
   db328:	bf08      	it	eq
   db32a:	61e2      	streq	r2, [r4, #28]
   db32c:	e036      	b.n	db39c <localtime_r+0x1b8>
   db32e:	2b00      	cmp	r3, #0
   db330:	da34      	bge.n	db39c <localtime_r+0x1b8>
   db332:	69e2      	ldr	r2, [r4, #28]
   db334:	3a01      	subs	r2, #1
   db336:	61e2      	str	r2, [r4, #28]
   db338:	69a2      	ldr	r2, [r4, #24]
   db33a:	3a01      	subs	r2, #1
   db33c:	bf48      	it	mi
   db33e:	2206      	movmi	r2, #6
   db340:	61a2      	str	r2, [r4, #24]
   db342:	68e2      	ldr	r2, [r4, #12]
   db344:	3318      	adds	r3, #24
   db346:	3a01      	subs	r2, #1
   db348:	60e2      	str	r2, [r4, #12]
   db34a:	60a3      	str	r3, [r4, #8]
   db34c:	bb32      	cbnz	r2, db39c <localtime_r+0x1b8>
   db34e:	6923      	ldr	r3, [r4, #16]
   db350:	3b01      	subs	r3, #1
   db352:	d401      	bmi.n	db358 <localtime_r+0x174>
   db354:	6123      	str	r3, [r4, #16]
   db356:	e01d      	b.n	db394 <localtime_r+0x1b0>
   db358:	230b      	movs	r3, #11
   db35a:	6123      	str	r3, [r4, #16]
   db35c:	6963      	ldr	r3, [r4, #20]
   db35e:	1e5a      	subs	r2, r3, #1
   db360:	f012 0f03 	tst.w	r2, #3
   db364:	6162      	str	r2, [r4, #20]
   db366:	f203 736b 	addw	r3, r3, #1899	; 0x76b
   db36a:	d105      	bne.n	db378 <localtime_r+0x194>
   db36c:	2164      	movs	r1, #100	; 0x64
   db36e:	fb93 f2f1 	sdiv	r2, r3, r1
   db372:	fb01 3212 	mls	r2, r1, r2, r3
   db376:	b94a      	cbnz	r2, db38c <localtime_r+0x1a8>
   db378:	f44f 71c8 	mov.w	r1, #400	; 0x190
   db37c:	fb93 f2f1 	sdiv	r2, r3, r1
   db380:	fb01 3312 	mls	r3, r1, r2, r3
   db384:	fab3 f383 	clz	r3, r3
   db388:	095b      	lsrs	r3, r3, #5
   db38a:	e000      	b.n	db38e <localtime_r+0x1aa>
   db38c:	2301      	movs	r3, #1
   db38e:	f503 73b6 	add.w	r3, r3, #364	; 0x16c
   db392:	61e3      	str	r3, [r4, #28]
   db394:	6923      	ldr	r3, [r4, #16]
   db396:	f855 3023 	ldr.w	r3, [r5, r3, lsl #2]
   db39a:	60e3      	str	r3, [r4, #12]
   db39c:	f000 f9c1 	bl	db722 <__tz_unlock>
   db3a0:	4620      	mov	r0, r4
   db3a2:	e8bd 81f0 	ldmia.w	sp!, {r4, r5, r6, r7, r8, pc}
   db3a6:	bf00      	nop
   db3a8:	000dc410 	.word	0x000dc410
   db3ac:	2003e5c0 	.word	0x2003e5c0

000db3b0 <memcmp>:
   db3b0:	b510      	push	{r4, lr}
   db3b2:	3901      	subs	r1, #1
   db3b4:	4402      	add	r2, r0
   db3b6:	4290      	cmp	r0, r2
   db3b8:	d007      	beq.n	db3ca <memcmp+0x1a>
   db3ba:	f810 3b01 	ldrb.w	r3, [r0], #1
   db3be:	f811 4f01 	ldrb.w	r4, [r1, #1]!
   db3c2:	42a3      	cmp	r3, r4
   db3c4:	d0f7      	beq.n	db3b6 <memcmp+0x6>
   db3c6:	1b18      	subs	r0, r3, r4
   db3c8:	bd10      	pop	{r4, pc}
   db3ca:	2000      	movs	r0, #0
   db3cc:	bd10      	pop	{r4, pc}

000db3ce <memcpy>:
   db3ce:	b510      	push	{r4, lr}
   db3d0:	1e43      	subs	r3, r0, #1
   db3d2:	440a      	add	r2, r1
   db3d4:	4291      	cmp	r1, r2
   db3d6:	d004      	beq.n	db3e2 <memcpy+0x14>
   db3d8:	f811 4b01 	ldrb.w	r4, [r1], #1
   db3dc:	f803 4f01 	strb.w	r4, [r3, #1]!
   db3e0:	e7f8      	b.n	db3d4 <memcpy+0x6>
   db3e2:	bd10      	pop	{r4, pc}

000db3e4 <memset>:
   db3e4:	4402      	add	r2, r0
   db3e6:	4603      	mov	r3, r0
   db3e8:	4293      	cmp	r3, r2
   db3ea:	d002      	beq.n	db3f2 <memset+0xe>
   db3ec:	f803 1b01 	strb.w	r1, [r3], #1
   db3f0:	e7fa      	b.n	db3e8 <memset+0x4>
   db3f2:	4770      	bx	lr

000db3f4 <srand>:
   db3f4:	b538      	push	{r3, r4, r5, lr}
   db3f6:	4b12      	ldr	r3, [pc, #72]	; (db440 <srand+0x4c>)
   db3f8:	681c      	ldr	r4, [r3, #0]
   db3fa:	6ba3      	ldr	r3, [r4, #56]	; 0x38
   db3fc:	4605      	mov	r5, r0
   db3fe:	b9d3      	cbnz	r3, db436 <srand+0x42>
   db400:	2018      	movs	r0, #24
   db402:	f7fd fbdb 	bl	d8bbc <malloc>
   db406:	f243 330e 	movw	r3, #13070	; 0x330e
   db40a:	63a0      	str	r0, [r4, #56]	; 0x38
   db40c:	8003      	strh	r3, [r0, #0]
   db40e:	f64a 33cd 	movw	r3, #43981	; 0xabcd
   db412:	8043      	strh	r3, [r0, #2]
   db414:	f241 2334 	movw	r3, #4660	; 0x1234
   db418:	8083      	strh	r3, [r0, #4]
   db41a:	f24e 636d 	movw	r3, #58989	; 0xe66d
   db41e:	80c3      	strh	r3, [r0, #6]
   db420:	f64d 63ec 	movw	r3, #57068	; 0xdeec
   db424:	8103      	strh	r3, [r0, #8]
   db426:	2305      	movs	r3, #5
   db428:	8143      	strh	r3, [r0, #10]
   db42a:	230b      	movs	r3, #11
   db42c:	8183      	strh	r3, [r0, #12]
   db42e:	2201      	movs	r2, #1
   db430:	2300      	movs	r3, #0
   db432:	e9c0 2304 	strd	r2, r3, [r0, #16]
   db436:	6ba3      	ldr	r3, [r4, #56]	; 0x38
   db438:	2200      	movs	r2, #0
   db43a:	611d      	str	r5, [r3, #16]
   db43c:	615a      	str	r2, [r3, #20]
   db43e:	bd38      	pop	{r3, r4, r5, pc}
   db440:	2003d96c 	.word	0x2003d96c

000db444 <strchr>:
   db444:	b2c9      	uxtb	r1, r1
   db446:	4603      	mov	r3, r0
   db448:	f810 2b01 	ldrb.w	r2, [r0], #1
   db44c:	b11a      	cbz	r2, db456 <strchr+0x12>
   db44e:	4291      	cmp	r1, r2
   db450:	d1f9      	bne.n	db446 <strchr+0x2>
   db452:	4618      	mov	r0, r3
   db454:	4770      	bx	lr
   db456:	2900      	cmp	r1, #0
   db458:	bf0c      	ite	eq
   db45a:	4618      	moveq	r0, r3
   db45c:	2000      	movne	r0, #0
   db45e:	4770      	bx	lr

000db460 <strcmp>:
   db460:	f810 2b01 	ldrb.w	r2, [r0], #1
   db464:	f811 3b01 	ldrb.w	r3, [r1], #1
   db468:	2a01      	cmp	r2, #1
   db46a:	bf28      	it	cs
   db46c:	429a      	cmpcs	r2, r3
   db46e:	d0f7      	beq.n	db460 <strcmp>
   db470:	1ad0      	subs	r0, r2, r3
   db472:	4770      	bx	lr

000db474 <strcpy>:
   db474:	4603      	mov	r3, r0
   db476:	f811 2b01 	ldrb.w	r2, [r1], #1
   db47a:	f803 2b01 	strb.w	r2, [r3], #1
   db47e:	2a00      	cmp	r2, #0
   db480:	d1f9      	bne.n	db476 <strcpy+0x2>
   db482:	4770      	bx	lr

000db484 <strlen>:
   db484:	4603      	mov	r3, r0
   db486:	f813 2b01 	ldrb.w	r2, [r3], #1
   db48a:	2a00      	cmp	r2, #0
   db48c:	d1fb      	bne.n	db486 <strlen+0x2>
   db48e:	1a18      	subs	r0, r3, r0
   db490:	3801      	subs	r0, #1
   db492:	4770      	bx	lr

000db494 <strncmp>:
   db494:	b530      	push	{r4, r5, lr}
   db496:	b182      	cbz	r2, db4ba <strncmp+0x26>
   db498:	1e45      	subs	r5, r0, #1
   db49a:	3901      	subs	r1, #1
   db49c:	f815 3f01 	ldrb.w	r3, [r5, #1]!
   db4a0:	f811 4f01 	ldrb.w	r4, [r1, #1]!
   db4a4:	42a3      	cmp	r3, r4
   db4a6:	d106      	bne.n	db4b6 <strncmp+0x22>
   db4a8:	43ec      	mvns	r4, r5
   db4aa:	4414      	add	r4, r2
   db4ac:	42e0      	cmn	r0, r4
   db4ae:	d001      	beq.n	db4b4 <strncmp+0x20>
   db4b0:	2b00      	cmp	r3, #0
   db4b2:	d1f3      	bne.n	db49c <strncmp+0x8>
   db4b4:	461c      	mov	r4, r3
   db4b6:	1b18      	subs	r0, r3, r4
   db4b8:	bd30      	pop	{r4, r5, pc}
   db4ba:	4610      	mov	r0, r2
   db4bc:	bd30      	pop	{r4, r5, pc}
	...

000db4c0 <_strtoul_r>:
   db4c0:	e92d 47f0 	stmdb	sp!, {r4, r5, r6, r7, r8, r9, sl, lr}
   db4c4:	4680      	mov	r8, r0
   db4c6:	483c      	ldr	r0, [pc, #240]	; (db5b8 <_strtoul_r+0xf8>)
   db4c8:	f8d0 9000 	ldr.w	r9, [r0]
   db4cc:	460e      	mov	r6, r1
   db4ce:	4635      	mov	r5, r6
   db4d0:	f815 4b01 	ldrb.w	r4, [r5], #1
   db4d4:	eb09 0004 	add.w	r0, r9, r4
   db4d8:	7840      	ldrb	r0, [r0, #1]
   db4da:	f000 0008 	and.w	r0, r0, #8
   db4de:	f000 07ff 	and.w	r7, r0, #255	; 0xff
   db4e2:	b108      	cbz	r0, db4e8 <_strtoul_r+0x28>
   db4e4:	462e      	mov	r6, r5
   db4e6:	e7f2      	b.n	db4ce <_strtoul_r+0xe>
   db4e8:	2c2d      	cmp	r4, #45	; 0x2d
   db4ea:	d103      	bne.n	db4f4 <_strtoul_r+0x34>
   db4ec:	1cb5      	adds	r5, r6, #2
   db4ee:	7874      	ldrb	r4, [r6, #1]
   db4f0:	2701      	movs	r7, #1
   db4f2:	e003      	b.n	db4fc <_strtoul_r+0x3c>
   db4f4:	2c2b      	cmp	r4, #43	; 0x2b
   db4f6:	bf04      	itt	eq
   db4f8:	7874      	ldrbeq	r4, [r6, #1]
   db4fa:	1cb5      	addeq	r5, r6, #2
   db4fc:	b113      	cbz	r3, db504 <_strtoul_r+0x44>
   db4fe:	2b10      	cmp	r3, #16
   db500:	d10a      	bne.n	db518 <_strtoul_r+0x58>
   db502:	e053      	b.n	db5ac <_strtoul_r+0xec>
   db504:	2c30      	cmp	r4, #48	; 0x30
   db506:	d14f      	bne.n	db5a8 <_strtoul_r+0xe8>
   db508:	7828      	ldrb	r0, [r5, #0]
   db50a:	f000 00df 	and.w	r0, r0, #223	; 0xdf
   db50e:	2858      	cmp	r0, #88	; 0x58
   db510:	d145      	bne.n	db59e <_strtoul_r+0xde>
   db512:	786c      	ldrb	r4, [r5, #1]
   db514:	2310      	movs	r3, #16
   db516:	3502      	adds	r5, #2
   db518:	f04f 3cff 	mov.w	ip, #4294967295
   db51c:	2600      	movs	r6, #0
   db51e:	fbbc fcf3 	udiv	ip, ip, r3
   db522:	fb03 fa0c 	mul.w	sl, r3, ip
   db526:	ea6f 0a0a 	mvn.w	sl, sl
   db52a:	4630      	mov	r0, r6
   db52c:	eb09 0e04 	add.w	lr, r9, r4
   db530:	f89e e001 	ldrb.w	lr, [lr, #1]
   db534:	f01e 0f04 	tst.w	lr, #4
   db538:	d001      	beq.n	db53e <_strtoul_r+0x7e>
   db53a:	3c30      	subs	r4, #48	; 0x30
   db53c:	e00b      	b.n	db556 <_strtoul_r+0x96>
   db53e:	f01e 0e03 	ands.w	lr, lr, #3
   db542:	d01a      	beq.n	db57a <_strtoul_r+0xba>
   db544:	f1be 0f01 	cmp.w	lr, #1
   db548:	bf0c      	ite	eq
   db54a:	f04f 0e37 	moveq.w	lr, #55	; 0x37
   db54e:	f04f 0e57 	movne.w	lr, #87	; 0x57
   db552:	ebce 0404 	rsb	r4, lr, r4
   db556:	42a3      	cmp	r3, r4
   db558:	dd0f      	ble.n	db57a <_strtoul_r+0xba>
   db55a:	2e00      	cmp	r6, #0
   db55c:	db08      	blt.n	db570 <_strtoul_r+0xb0>
   db55e:	4560      	cmp	r0, ip
   db560:	d806      	bhi.n	db570 <_strtoul_r+0xb0>
   db562:	d101      	bne.n	db568 <_strtoul_r+0xa8>
   db564:	4554      	cmp	r4, sl
   db566:	dc03      	bgt.n	db570 <_strtoul_r+0xb0>
   db568:	fb03 4000 	mla	r0, r3, r0, r4
   db56c:	2601      	movs	r6, #1
   db56e:	e001      	b.n	db574 <_strtoul_r+0xb4>
   db570:	f04f 36ff 	mov.w	r6, #4294967295
   db574:	f815 4b01 	ldrb.w	r4, [r5], #1
   db578:	e7d8      	b.n	db52c <_strtoul_r+0x6c>
   db57a:	2e00      	cmp	r6, #0
   db57c:	da07      	bge.n	db58e <_strtoul_r+0xce>
   db57e:	2322      	movs	r3, #34	; 0x22
   db580:	f8c8 3000 	str.w	r3, [r8]
   db584:	f04f 30ff 	mov.w	r0, #4294967295
   db588:	b92a      	cbnz	r2, db596 <_strtoul_r+0xd6>
   db58a:	e8bd 87f0 	ldmia.w	sp!, {r4, r5, r6, r7, r8, r9, sl, pc}
   db58e:	b107      	cbz	r7, db592 <_strtoul_r+0xd2>
   db590:	4240      	negs	r0, r0
   db592:	b172      	cbz	r2, db5b2 <_strtoul_r+0xf2>
   db594:	b106      	cbz	r6, db598 <_strtoul_r+0xd8>
   db596:	1e69      	subs	r1, r5, #1
   db598:	6011      	str	r1, [r2, #0]
   db59a:	e8bd 87f0 	ldmia.w	sp!, {r4, r5, r6, r7, r8, r9, sl, pc}
   db59e:	2430      	movs	r4, #48	; 0x30
   db5a0:	2b00      	cmp	r3, #0
   db5a2:	d1b9      	bne.n	db518 <_strtoul_r+0x58>
   db5a4:	2308      	movs	r3, #8
   db5a6:	e7b7      	b.n	db518 <_strtoul_r+0x58>
   db5a8:	230a      	movs	r3, #10
   db5aa:	e7b5      	b.n	db518 <_strtoul_r+0x58>
   db5ac:	2c30      	cmp	r4, #48	; 0x30
   db5ae:	d0ab      	beq.n	db508 <_strtoul_r+0x48>
   db5b0:	e7b2      	b.n	db518 <_strtoul_r+0x58>
   db5b2:	e8bd 87f0 	ldmia.w	sp!, {r4, r5, r6, r7, r8, r9, sl, pc}
   db5b6:	bf00      	nop
   db5b8:	2003d908 	.word	0x2003d908

000db5bc <strtoul>:
   db5bc:	4613      	mov	r3, r2
   db5be:	460a      	mov	r2, r1
   db5c0:	4601      	mov	r1, r0
   db5c2:	4802      	ldr	r0, [pc, #8]	; (db5cc <strtoul+0x10>)
   db5c4:	6800      	ldr	r0, [r0, #0]
   db5c6:	f7ff bf7b 	b.w	db4c0 <_strtoul_r>
   db5ca:	bf00      	nop
   db5cc:	2003d96c 	.word	0x2003d96c

000db5d0 <__tzcalc_limits>:
   db5d0:	e92d 4ff7 	stmdb	sp!, {r0, r1, r2, r4, r5, r6, r7, r8, r9, sl, fp, lr}
   db5d4:	4604      	mov	r4, r0
   db5d6:	f000 fa6f 	bl	dbab8 <__gettzinfo>
   db5da:	f240 73b1 	movw	r3, #1969	; 0x7b1
   db5de:	429c      	cmp	r4, r3
   db5e0:	f340 8096 	ble.w	db710 <__tzcalc_limits+0x140>
   db5e4:	f46f 63f6 	mvn.w	r3, #1968	; 0x7b0
   db5e8:	18e3      	adds	r3, r4, r3
   db5ea:	f2a4 72b2 	subw	r2, r4, #1970	; 0x7b2
   db5ee:	109b      	asrs	r3, r3, #2
   db5f0:	f240 156d 	movw	r5, #365	; 0x16d
   db5f4:	fb05 3502 	mla	r5, r5, r2, r3
   db5f8:	f2a4 726d 	subw	r2, r4, #1901	; 0x76d
   db5fc:	f06f 0363 	mvn.w	r3, #99	; 0x63
   db600:	fb92 f3f3 	sdiv	r3, r2, r3
   db604:	f46f 62c8 	mvn.w	r2, #1600	; 0x640
   db608:	442b      	add	r3, r5
   db60a:	18a5      	adds	r5, r4, r2
   db60c:	f44f 72c8 	mov.w	r2, #400	; 0x190
   db610:	fb95 f5f2 	sdiv	r5, r5, r2
   db614:	441d      	add	r5, r3
   db616:	2364      	movs	r3, #100	; 0x64
   db618:	fb94 f7f2 	sdiv	r7, r4, r2
   db61c:	fb94 f6f3 	sdiv	r6, r4, r3
   db620:	fb02 4717 	mls	r7, r2, r7, r4
   db624:	fb03 4616 	mls	r6, r3, r6, r4
   db628:	f100 0338 	add.w	r3, r0, #56	; 0x38
   db62c:	fab7 fe87 	clz	lr, r7
   db630:	9301      	str	r3, [sp, #4]
   db632:	f004 0303 	and.w	r3, r4, #3
   db636:	6044      	str	r4, [r0, #4]
   db638:	ea4f 1e5e 	mov.w	lr, lr, lsr #5
   db63c:	4601      	mov	r1, r0
   db63e:	9300      	str	r3, [sp, #0]
   db640:	f04f 0c07 	mov.w	ip, #7
   db644:	7a0b      	ldrb	r3, [r1, #8]
   db646:	2b4a      	cmp	r3, #74	; 0x4a
   db648:	d10e      	bne.n	db668 <__tzcalc_limits+0x98>
   db64a:	694b      	ldr	r3, [r1, #20]
   db64c:	9a00      	ldr	r2, [sp, #0]
   db64e:	18ec      	adds	r4, r5, r3
   db650:	b902      	cbnz	r2, db654 <__tzcalc_limits+0x84>
   db652:	b906      	cbnz	r6, db656 <__tzcalc_limits+0x86>
   db654:	b927      	cbnz	r7, db660 <__tzcalc_limits+0x90>
   db656:	2b3b      	cmp	r3, #59	; 0x3b
   db658:	bfd4      	ite	le
   db65a:	2300      	movle	r3, #0
   db65c:	2301      	movgt	r3, #1
   db65e:	e000      	b.n	db662 <__tzcalc_limits+0x92>
   db660:	2300      	movs	r3, #0
   db662:	4423      	add	r3, r4
   db664:	3b01      	subs	r3, #1
   db666:	e03f      	b.n	db6e8 <__tzcalc_limits+0x118>
   db668:	2b44      	cmp	r3, #68	; 0x44
   db66a:	d102      	bne.n	db672 <__tzcalc_limits+0xa2>
   db66c:	694b      	ldr	r3, [r1, #20]
   db66e:	442b      	add	r3, r5
   db670:	e03a      	b.n	db6e8 <__tzcalc_limits+0x118>
   db672:	9b00      	ldr	r3, [sp, #0]
   db674:	b92b      	cbnz	r3, db682 <__tzcalc_limits+0xb2>
   db676:	2e00      	cmp	r6, #0
   db678:	bf0c      	ite	eq
   db67a:	46f0      	moveq	r8, lr
   db67c:	f04f 0801 	movne.w	r8, #1
   db680:	e000      	b.n	db684 <__tzcalc_limits+0xb4>
   db682:	46f0      	mov	r8, lr
   db684:	4b24      	ldr	r3, [pc, #144]	; (db718 <__tzcalc_limits+0x148>)
   db686:	68cc      	ldr	r4, [r1, #12]
   db688:	2230      	movs	r2, #48	; 0x30
   db68a:	fb02 3808 	mla	r8, r2, r8, r3
   db68e:	f1a8 0a04 	sub.w	sl, r8, #4
   db692:	46a9      	mov	r9, r5
   db694:	2301      	movs	r3, #1
   db696:	42a3      	cmp	r3, r4
   db698:	da04      	bge.n	db6a4 <__tzcalc_limits+0xd4>
   db69a:	f85a bf04 	ldr.w	fp, [sl, #4]!
   db69e:	3301      	adds	r3, #1
   db6a0:	44d9      	add	r9, fp
   db6a2:	e7f8      	b.n	db696 <__tzcalc_limits+0xc6>
   db6a4:	f109 0304 	add.w	r3, r9, #4
   db6a8:	fb93 fbfc 	sdiv	fp, r3, ip
   db6ac:	ebcb 0acb 	rsb	sl, fp, fp, lsl #3
   db6b0:	2c01      	cmp	r4, #1
   db6b2:	ebca 0a03 	rsb	sl, sl, r3
   db6b6:	694b      	ldr	r3, [r1, #20]
   db6b8:	bfb8      	it	lt
   db6ba:	2401      	movlt	r4, #1
   db6bc:	f104 4480 	add.w	r4, r4, #1073741824	; 0x40000000
   db6c0:	ebb3 0a0a 	subs.w	sl, r3, sl
   db6c4:	690b      	ldr	r3, [r1, #16]
   db6c6:	f104 34ff 	add.w	r4, r4, #4294967295
   db6ca:	f103 33ff 	add.w	r3, r3, #4294967295
   db6ce:	bf48      	it	mi
   db6d0:	f10a 0a07 	addmi.w	sl, sl, #7
   db6d4:	ebc3 03c3 	rsb	r3, r3, r3, lsl #3
   db6d8:	f858 4024 	ldr.w	r4, [r8, r4, lsl #2]
   db6dc:	4453      	add	r3, sl
   db6de:	42a3      	cmp	r3, r4
   db6e0:	db01      	blt.n	db6e6 <__tzcalc_limits+0x116>
   db6e2:	3b07      	subs	r3, #7
   db6e4:	e7fb      	b.n	db6de <__tzcalc_limits+0x10e>
   db6e6:	444b      	add	r3, r9
   db6e8:	698c      	ldr	r4, [r1, #24]
   db6ea:	4a0c      	ldr	r2, [pc, #48]	; (db71c <__tzcalc_limits+0x14c>)
   db6ec:	fb02 4303 	mla	r3, r2, r3, r4
   db6f0:	6a0c      	ldr	r4, [r1, #32]
   db6f2:	4423      	add	r3, r4
   db6f4:	f841 3f1c 	str.w	r3, [r1, #28]!
   db6f8:	9b01      	ldr	r3, [sp, #4]
   db6fa:	4299      	cmp	r1, r3
   db6fc:	d1a2      	bne.n	db644 <__tzcalc_limits+0x74>
   db6fe:	69c3      	ldr	r3, [r0, #28]
   db700:	6b82      	ldr	r2, [r0, #56]	; 0x38
   db702:	4293      	cmp	r3, r2
   db704:	bfac      	ite	ge
   db706:	2300      	movge	r3, #0
   db708:	2301      	movlt	r3, #1
   db70a:	6003      	str	r3, [r0, #0]
   db70c:	2001      	movs	r0, #1
   db70e:	e000      	b.n	db712 <__tzcalc_limits+0x142>
   db710:	2000      	movs	r0, #0
   db712:	b003      	add	sp, #12
   db714:	e8bd 8ff0 	ldmia.w	sp!, {r4, r5, r6, r7, r8, r9, sl, fp, pc}
   db718:	000dc410 	.word	0x000dc410
   db71c:	00015180 	.word	0x00015180

000db720 <__tz_lock>:
   db720:	4770      	bx	lr

000db722 <__tz_unlock>:
   db722:	4770      	bx	lr

000db724 <_tzset_unlocked>:
   db724:	4b01      	ldr	r3, [pc, #4]	; (db72c <_tzset_unlocked+0x8>)
   db726:	6818      	ldr	r0, [r3, #0]
   db728:	f000 b802 	b.w	db730 <_tzset_unlocked_r>
   db72c:	2003d96c 	.word	0x2003d96c

000db730 <_tzset_unlocked_r>:
   db730:	e92d 4ff0 	stmdb	sp!, {r4, r5, r6, r7, r8, r9, sl, fp, lr}
   db734:	b08d      	sub	sp, #52	; 0x34
   db736:	4607      	mov	r7, r0
   db738:	f000 f9be 	bl	dbab8 <__gettzinfo>
   db73c:	49b0      	ldr	r1, [pc, #704]	; (dba00 <_tzset_unlocked_r+0x2d0>)
   db73e:	4eb1      	ldr	r6, [pc, #708]	; (dba04 <_tzset_unlocked_r+0x2d4>)
   db740:	4604      	mov	r4, r0
   db742:	4638      	mov	r0, r7
   db744:	f000 f9b0 	bl	dbaa8 <_getenv_r>
   db748:	4605      	mov	r5, r0
   db74a:	b960      	cbnz	r0, db766 <_tzset_unlocked_r+0x36>
   db74c:	4bae      	ldr	r3, [pc, #696]	; (dba08 <_tzset_unlocked_r+0x2d8>)
   db74e:	4aaf      	ldr	r2, [pc, #700]	; (dba0c <_tzset_unlocked_r+0x2dc>)
   db750:	6018      	str	r0, [r3, #0]
   db752:	4baf      	ldr	r3, [pc, #700]	; (dba10 <_tzset_unlocked_r+0x2e0>)
   db754:	6018      	str	r0, [r3, #0]
   db756:	4baf      	ldr	r3, [pc, #700]	; (dba14 <_tzset_unlocked_r+0x2e4>)
   db758:	6830      	ldr	r0, [r6, #0]
   db75a:	601a      	str	r2, [r3, #0]
   db75c:	605a      	str	r2, [r3, #4]
   db75e:	f7fd fa35 	bl	d8bcc <free>
   db762:	6035      	str	r5, [r6, #0]
   db764:	e148      	b.n	db9f8 <_tzset_unlocked_r+0x2c8>
   db766:	6831      	ldr	r1, [r6, #0]
   db768:	b979      	cbnz	r1, db78a <_tzset_unlocked_r+0x5a>
   db76a:	6830      	ldr	r0, [r6, #0]
   db76c:	f7fd fa2e 	bl	d8bcc <free>
   db770:	4628      	mov	r0, r5
   db772:	f7ff fe87 	bl	db484 <strlen>
   db776:	1c41      	adds	r1, r0, #1
   db778:	4638      	mov	r0, r7
   db77a:	f7fd fa4f 	bl	d8c1c <_malloc_r>
   db77e:	6030      	str	r0, [r6, #0]
   db780:	b148      	cbz	r0, db796 <_tzset_unlocked_r+0x66>
   db782:	4629      	mov	r1, r5
   db784:	f7ff fe76 	bl	db474 <strcpy>
   db788:	e005      	b.n	db796 <_tzset_unlocked_r+0x66>
   db78a:	f7ff fe69 	bl	db460 <strcmp>
   db78e:	2800      	cmp	r0, #0
   db790:	f000 8132 	beq.w	db9f8 <_tzset_unlocked_r+0x2c8>
   db794:	e7e9      	b.n	db76a <_tzset_unlocked_r+0x3a>
   db796:	782b      	ldrb	r3, [r5, #0]
   db798:	4a9f      	ldr	r2, [pc, #636]	; (dba18 <_tzset_unlocked_r+0x2e8>)
   db79a:	49a0      	ldr	r1, [pc, #640]	; (dba1c <_tzset_unlocked_r+0x2ec>)
   db79c:	2b3a      	cmp	r3, #58	; 0x3a
   db79e:	bf08      	it	eq
   db7a0:	3501      	addeq	r5, #1
   db7a2:	ae0a      	add	r6, sp, #40	; 0x28
   db7a4:	4633      	mov	r3, r6
   db7a6:	4628      	mov	r0, r5
   db7a8:	f7fd fa28 	bl	d8bfc <siscanf>
   db7ac:	2800      	cmp	r0, #0
   db7ae:	f340 8123 	ble.w	db9f8 <_tzset_unlocked_r+0x2c8>
   db7b2:	9b0a      	ldr	r3, [sp, #40]	; 0x28
   db7b4:	18ef      	adds	r7, r5, r3
   db7b6:	5ceb      	ldrb	r3, [r5, r3]
   db7b8:	2b2d      	cmp	r3, #45	; 0x2d
   db7ba:	d103      	bne.n	db7c4 <_tzset_unlocked_r+0x94>
   db7bc:	3701      	adds	r7, #1
   db7be:	f04f 35ff 	mov.w	r5, #4294967295
   db7c2:	e003      	b.n	db7cc <_tzset_unlocked_r+0x9c>
   db7c4:	2b2b      	cmp	r3, #43	; 0x2b
   db7c6:	bf08      	it	eq
   db7c8:	3701      	addeq	r7, #1
   db7ca:	2501      	movs	r5, #1
   db7cc:	f10d 0a20 	add.w	sl, sp, #32
   db7d0:	f10d 0b1e 	add.w	fp, sp, #30
   db7d4:	f04f 0800 	mov.w	r8, #0
   db7d8:	9603      	str	r6, [sp, #12]
   db7da:	f8cd a008 	str.w	sl, [sp, #8]
   db7de:	9601      	str	r6, [sp, #4]
   db7e0:	f8cd b000 	str.w	fp, [sp]
   db7e4:	4633      	mov	r3, r6
   db7e6:	aa07      	add	r2, sp, #28
   db7e8:	498d      	ldr	r1, [pc, #564]	; (dba20 <_tzset_unlocked_r+0x2f0>)
   db7ea:	f8ad 801e 	strh.w	r8, [sp, #30]
   db7ee:	4638      	mov	r0, r7
   db7f0:	f8ad 8020 	strh.w	r8, [sp, #32]
   db7f4:	f7fd fa02 	bl	d8bfc <siscanf>
   db7f8:	4540      	cmp	r0, r8
   db7fa:	f340 80fd 	ble.w	db9f8 <_tzset_unlocked_r+0x2c8>
   db7fe:	f8bd 201e 	ldrh.w	r2, [sp, #30]
   db802:	f8bd 3020 	ldrh.w	r3, [sp, #32]
   db806:	f8df 9224 	ldr.w	r9, [pc, #548]	; dba2c <_tzset_unlocked_r+0x2fc>
   db80a:	213c      	movs	r1, #60	; 0x3c
   db80c:	fb01 3302 	mla	r3, r1, r2, r3
   db810:	f8bd 201c 	ldrh.w	r2, [sp, #28]
   db814:	f44f 6161 	mov.w	r1, #3600	; 0xe10
   db818:	fb01 3302 	mla	r3, r1, r2, r3
   db81c:	435d      	muls	r5, r3
   db81e:	6225      	str	r5, [r4, #32]
   db820:	4d7c      	ldr	r5, [pc, #496]	; (dba14 <_tzset_unlocked_r+0x2e4>)
   db822:	4b7d      	ldr	r3, [pc, #500]	; (dba18 <_tzset_unlocked_r+0x2e8>)
   db824:	602b      	str	r3, [r5, #0]
   db826:	9b0a      	ldr	r3, [sp, #40]	; 0x28
   db828:	497c      	ldr	r1, [pc, #496]	; (dba1c <_tzset_unlocked_r+0x2ec>)
   db82a:	441f      	add	r7, r3
   db82c:	464a      	mov	r2, r9
   db82e:	4633      	mov	r3, r6
   db830:	4638      	mov	r0, r7
   db832:	f7fd f9e3 	bl	d8bfc <siscanf>
   db836:	4540      	cmp	r0, r8
   db838:	dc08      	bgt.n	db84c <_tzset_unlocked_r+0x11c>
   db83a:	682b      	ldr	r3, [r5, #0]
   db83c:	606b      	str	r3, [r5, #4]
   db83e:	4b72      	ldr	r3, [pc, #456]	; (dba08 <_tzset_unlocked_r+0x2d8>)
   db840:	6a22      	ldr	r2, [r4, #32]
   db842:	601a      	str	r2, [r3, #0]
   db844:	4b72      	ldr	r3, [pc, #456]	; (dba10 <_tzset_unlocked_r+0x2e0>)
   db846:	f8c3 8000 	str.w	r8, [r3]
   db84a:	e0d5      	b.n	db9f8 <_tzset_unlocked_r+0x2c8>
   db84c:	9b0a      	ldr	r3, [sp, #40]	; 0x28
   db84e:	f8c5 9004 	str.w	r9, [r5, #4]
   db852:	18fd      	adds	r5, r7, r3
   db854:	5cfb      	ldrb	r3, [r7, r3]
   db856:	2b2d      	cmp	r3, #45	; 0x2d
   db858:	d103      	bne.n	db862 <_tzset_unlocked_r+0x132>
   db85a:	3501      	adds	r5, #1
   db85c:	f04f 37ff 	mov.w	r7, #4294967295
   db860:	e003      	b.n	db86a <_tzset_unlocked_r+0x13a>
   db862:	2b2b      	cmp	r3, #43	; 0x2b
   db864:	bf08      	it	eq
   db866:	3501      	addeq	r5, #1
   db868:	2701      	movs	r7, #1
   db86a:	2300      	movs	r3, #0
   db86c:	f8ad 301c 	strh.w	r3, [sp, #28]
   db870:	f8ad 301e 	strh.w	r3, [sp, #30]
   db874:	f8ad 3020 	strh.w	r3, [sp, #32]
   db878:	930a      	str	r3, [sp, #40]	; 0x28
   db87a:	9603      	str	r6, [sp, #12]
   db87c:	f8cd a008 	str.w	sl, [sp, #8]
   db880:	9601      	str	r6, [sp, #4]
   db882:	f8cd b000 	str.w	fp, [sp]
   db886:	4633      	mov	r3, r6
   db888:	aa07      	add	r2, sp, #28
   db88a:	4965      	ldr	r1, [pc, #404]	; (dba20 <_tzset_unlocked_r+0x2f0>)
   db88c:	4628      	mov	r0, r5
   db88e:	f7fd f9b5 	bl	d8bfc <siscanf>
   db892:	2800      	cmp	r0, #0
   db894:	dc04      	bgt.n	db8a0 <_tzset_unlocked_r+0x170>
   db896:	6a23      	ldr	r3, [r4, #32]
   db898:	f5a3 6361 	sub.w	r3, r3, #3600	; 0xe10
   db89c:	63e3      	str	r3, [r4, #60]	; 0x3c
   db89e:	e00e      	b.n	db8be <_tzset_unlocked_r+0x18e>
   db8a0:	f8bd 201e 	ldrh.w	r2, [sp, #30]
   db8a4:	f8bd 3020 	ldrh.w	r3, [sp, #32]
   db8a8:	213c      	movs	r1, #60	; 0x3c
   db8aa:	fb01 3302 	mla	r3, r1, r2, r3
   db8ae:	f8bd 201c 	ldrh.w	r2, [sp, #28]
   db8b2:	f44f 6161 	mov.w	r1, #3600	; 0xe10
   db8b6:	fb01 3302 	mla	r3, r1, r2, r3
   db8ba:	435f      	muls	r7, r3
   db8bc:	63e7      	str	r7, [r4, #60]	; 0x3c
   db8be:	9b0a      	ldr	r3, [sp, #40]	; 0x28
   db8c0:	4627      	mov	r7, r4
   db8c2:	441d      	add	r5, r3
   db8c4:	f04f 0900 	mov.w	r9, #0
   db8c8:	782b      	ldrb	r3, [r5, #0]
   db8ca:	2b2c      	cmp	r3, #44	; 0x2c
   db8cc:	bf08      	it	eq
   db8ce:	3501      	addeq	r5, #1
   db8d0:	f895 8000 	ldrb.w	r8, [r5]
   db8d4:	f1b8 0f4d 	cmp.w	r8, #77	; 0x4d
   db8d8:	d126      	bne.n	db928 <_tzset_unlocked_r+0x1f8>
   db8da:	f10d 0326 	add.w	r3, sp, #38	; 0x26
   db8de:	9302      	str	r3, [sp, #8]
   db8e0:	ab09      	add	r3, sp, #36	; 0x24
   db8e2:	9300      	str	r3, [sp, #0]
   db8e4:	9603      	str	r6, [sp, #12]
   db8e6:	9601      	str	r6, [sp, #4]
   db8e8:	4633      	mov	r3, r6
   db8ea:	f10d 0222 	add.w	r2, sp, #34	; 0x22
   db8ee:	494d      	ldr	r1, [pc, #308]	; (dba24 <_tzset_unlocked_r+0x2f4>)
   db8f0:	4628      	mov	r0, r5
   db8f2:	f7fd f983 	bl	d8bfc <siscanf>
   db8f6:	2803      	cmp	r0, #3
   db8f8:	d17e      	bne.n	db9f8 <_tzset_unlocked_r+0x2c8>
   db8fa:	f8bd 1022 	ldrh.w	r1, [sp, #34]	; 0x22
   db8fe:	1e4b      	subs	r3, r1, #1
   db900:	2b0b      	cmp	r3, #11
   db902:	d879      	bhi.n	db9f8 <_tzset_unlocked_r+0x2c8>
   db904:	f8bd 2024 	ldrh.w	r2, [sp, #36]	; 0x24
   db908:	1e53      	subs	r3, r2, #1
   db90a:	2b04      	cmp	r3, #4
   db90c:	d874      	bhi.n	db9f8 <_tzset_unlocked_r+0x2c8>
   db90e:	f8bd 3026 	ldrh.w	r3, [sp, #38]	; 0x26
   db912:	2b06      	cmp	r3, #6
   db914:	d870      	bhi.n	db9f8 <_tzset_unlocked_r+0x2c8>
   db916:	f887 8008 	strb.w	r8, [r7, #8]
   db91a:	60f9      	str	r1, [r7, #12]
   db91c:	613a      	str	r2, [r7, #16]
   db91e:	617b      	str	r3, [r7, #20]
   db920:	9b0a      	ldr	r3, [sp, #40]	; 0x28
   db922:	eb05 0803 	add.w	r8, r5, r3
   db926:	e02a      	b.n	db97e <_tzset_unlocked_r+0x24e>
   db928:	f1b8 0f4a 	cmp.w	r8, #74	; 0x4a
   db92c:	bf06      	itte	eq
   db92e:	3501      	addeq	r5, #1
   db930:	4643      	moveq	r3, r8
   db932:	2344      	movne	r3, #68	; 0x44
   db934:	220a      	movs	r2, #10
   db936:	a90b      	add	r1, sp, #44	; 0x2c
   db938:	4628      	mov	r0, r5
   db93a:	9305      	str	r3, [sp, #20]
   db93c:	f7ff fe3e 	bl	db5bc <strtoul>
   db940:	f8dd 802c 	ldr.w	r8, [sp, #44]	; 0x2c
   db944:	f8ad 0026 	strh.w	r0, [sp, #38]	; 0x26
   db948:	4545      	cmp	r5, r8
   db94a:	9b05      	ldr	r3, [sp, #20]
   db94c:	d114      	bne.n	db978 <_tzset_unlocked_r+0x248>
   db94e:	234d      	movs	r3, #77	; 0x4d
   db950:	f1b9 0f00 	cmp.w	r9, #0
   db954:	d107      	bne.n	db966 <_tzset_unlocked_r+0x236>
   db956:	7223      	strb	r3, [r4, #8]
   db958:	2303      	movs	r3, #3
   db95a:	60e3      	str	r3, [r4, #12]
   db95c:	2302      	movs	r3, #2
   db95e:	6123      	str	r3, [r4, #16]
   db960:	f8c4 9014 	str.w	r9, [r4, #20]
   db964:	e00b      	b.n	db97e <_tzset_unlocked_r+0x24e>
   db966:	f884 3024 	strb.w	r3, [r4, #36]	; 0x24
   db96a:	230b      	movs	r3, #11
   db96c:	62a3      	str	r3, [r4, #40]	; 0x28
   db96e:	2301      	movs	r3, #1
   db970:	62e3      	str	r3, [r4, #44]	; 0x2c
   db972:	2300      	movs	r3, #0
   db974:	6323      	str	r3, [r4, #48]	; 0x30
   db976:	e002      	b.n	db97e <_tzset_unlocked_r+0x24e>
   db978:	b280      	uxth	r0, r0
   db97a:	723b      	strb	r3, [r7, #8]
   db97c:	6178      	str	r0, [r7, #20]
   db97e:	2302      	movs	r3, #2
   db980:	f8ad 301c 	strh.w	r3, [sp, #28]
   db984:	2300      	movs	r3, #0
   db986:	f8ad 301e 	strh.w	r3, [sp, #30]
   db98a:	f8ad 3020 	strh.w	r3, [sp, #32]
   db98e:	930a      	str	r3, [sp, #40]	; 0x28
   db990:	f898 3000 	ldrb.w	r3, [r8]
   db994:	2b2f      	cmp	r3, #47	; 0x2f
   db996:	d10b      	bne.n	db9b0 <_tzset_unlocked_r+0x280>
   db998:	9603      	str	r6, [sp, #12]
   db99a:	f8cd a008 	str.w	sl, [sp, #8]
   db99e:	9601      	str	r6, [sp, #4]
   db9a0:	f8cd b000 	str.w	fp, [sp]
   db9a4:	4633      	mov	r3, r6
   db9a6:	aa07      	add	r2, sp, #28
   db9a8:	491f      	ldr	r1, [pc, #124]	; (dba28 <_tzset_unlocked_r+0x2f8>)
   db9aa:	4640      	mov	r0, r8
   db9ac:	f7fd f926 	bl	d8bfc <siscanf>
   db9b0:	f8bd 201e 	ldrh.w	r2, [sp, #30]
   db9b4:	f8bd 3020 	ldrh.w	r3, [sp, #32]
   db9b8:	213c      	movs	r1, #60	; 0x3c
   db9ba:	fb01 3302 	mla	r3, r1, r2, r3
   db9be:	f8bd 201c 	ldrh.w	r2, [sp, #28]
   db9c2:	f44f 6161 	mov.w	r1, #3600	; 0xe10
   db9c6:	fb01 3302 	mla	r3, r1, r2, r3
   db9ca:	61bb      	str	r3, [r7, #24]
   db9cc:	9d0a      	ldr	r5, [sp, #40]	; 0x28
   db9ce:	f109 0901 	add.w	r9, r9, #1
   db9d2:	f1b9 0f02 	cmp.w	r9, #2
   db9d6:	4445      	add	r5, r8
   db9d8:	f107 071c 	add.w	r7, r7, #28
   db9dc:	f47f af74 	bne.w	db8c8 <_tzset_unlocked_r+0x198>
   db9e0:	6860      	ldr	r0, [r4, #4]
   db9e2:	f7ff fdf5 	bl	db5d0 <__tzcalc_limits>
   db9e6:	4b08      	ldr	r3, [pc, #32]	; (dba08 <_tzset_unlocked_r+0x2d8>)
   db9e8:	6a22      	ldr	r2, [r4, #32]
   db9ea:	601a      	str	r2, [r3, #0]
   db9ec:	6be3      	ldr	r3, [r4, #60]	; 0x3c
   db9ee:	1a9b      	subs	r3, r3, r2
   db9f0:	4a07      	ldr	r2, [pc, #28]	; (dba10 <_tzset_unlocked_r+0x2e0>)
   db9f2:	bf18      	it	ne
   db9f4:	2301      	movne	r3, #1
   db9f6:	6013      	str	r3, [r2, #0]
   db9f8:	b00d      	add	sp, #52	; 0x34
   db9fa:	e8bd 8ff0 	ldmia.w	sp!, {r4, r5, r6, r7, r8, r9, sl, fp, pc}
   db9fe:	bf00      	nop
   dba00:	000dc470 	.word	0x000dc470
   dba04:	2003e5bc 	.word	0x2003e5bc
   dba08:	2003e5c4 	.word	0x2003e5c4
   dba0c:	000dc473 	.word	0x000dc473
   dba10:	2003e5c0 	.word	0x2003e5c0
   dba14:	2003d970 	.word	0x2003d970
   dba18:	2003e5af 	.word	0x2003e5af
   dba1c:	000dc477 	.word	0x000dc477
   dba20:	000dc49a 	.word	0x000dc49a
   dba24:	000dc486 	.word	0x000dc486
   dba28:	000dc499 	.word	0x000dc499
   dba2c:	2003e5a4 	.word	0x2003e5a4

000dba30 <_findenv_r>:
   dba30:	e92d 4ff8 	stmdb	sp!, {r3, r4, r5, r6, r7, r8, r9, sl, fp, lr}
   dba34:	4607      	mov	r7, r0
   dba36:	468b      	mov	fp, r1
   dba38:	4690      	mov	r8, r2
   dba3a:	f000 f8d9 	bl	dbbf0 <__env_lock>
   dba3e:	4b19      	ldr	r3, [pc, #100]	; (dbaa4 <_findenv_r+0x74>)
   dba40:	681d      	ldr	r5, [r3, #0]
   dba42:	469a      	mov	sl, r3
   dba44:	b13d      	cbz	r5, dba56 <_findenv_r+0x26>
   dba46:	465c      	mov	r4, fp
   dba48:	4623      	mov	r3, r4
   dba4a:	f813 2b01 	ldrb.w	r2, [r3], #1
   dba4e:	b142      	cbz	r2, dba62 <_findenv_r+0x32>
   dba50:	2a3d      	cmp	r2, #61	; 0x3d
   dba52:	461c      	mov	r4, r3
   dba54:	d1f8      	bne.n	dba48 <_findenv_r+0x18>
   dba56:	4638      	mov	r0, r7
   dba58:	f000 f8cb 	bl	dbbf2 <__env_unlock>
   dba5c:	2000      	movs	r0, #0
   dba5e:	e8bd 8ff8 	ldmia.w	sp!, {r3, r4, r5, r6, r7, r8, r9, sl, fp, pc}
   dba62:	ebcb 0404 	rsb	r4, fp, r4
   dba66:	46a9      	mov	r9, r5
   dba68:	f859 0b04 	ldr.w	r0, [r9], #4
   dba6c:	2800      	cmp	r0, #0
   dba6e:	d0f2      	beq.n	dba56 <_findenv_r+0x26>
   dba70:	4622      	mov	r2, r4
   dba72:	4659      	mov	r1, fp
   dba74:	f7ff fd0e 	bl	db494 <strncmp>
   dba78:	b988      	cbnz	r0, dba9e <_findenv_r+0x6e>
   dba7a:	f859 3c04 	ldr.w	r3, [r9, #-4]
   dba7e:	191e      	adds	r6, r3, r4
   dba80:	5d1b      	ldrb	r3, [r3, r4]
   dba82:	2b3d      	cmp	r3, #61	; 0x3d
   dba84:	d10b      	bne.n	dba9e <_findenv_r+0x6e>
   dba86:	f8da 3000 	ldr.w	r3, [sl]
   dba8a:	1aed      	subs	r5, r5, r3
   dba8c:	10ad      	asrs	r5, r5, #2
   dba8e:	4638      	mov	r0, r7
   dba90:	f8c8 5000 	str.w	r5, [r8]
   dba94:	f000 f8ad 	bl	dbbf2 <__env_unlock>
   dba98:	1c70      	adds	r0, r6, #1
   dba9a:	e8bd 8ff8 	ldmia.w	sp!, {r3, r4, r5, r6, r7, r8, r9, sl, fp, pc}
   dba9e:	464d      	mov	r5, r9
   dbaa0:	e7e1      	b.n	dba66 <_findenv_r+0x36>
   dbaa2:	bf00      	nop
   dbaa4:	2003d9b8 	.word	0x2003d9b8

000dbaa8 <_getenv_r>:
   dbaa8:	b507      	push	{r0, r1, r2, lr}
   dbaaa:	aa01      	add	r2, sp, #4
   dbaac:	f7ff ffc0 	bl	dba30 <_findenv_r>
   dbab0:	b003      	add	sp, #12
   dbab2:	f85d fb04 	ldr.w	pc, [sp], #4
	...

000dbab8 <__gettzinfo>:
   dbab8:	4800      	ldr	r0, [pc, #0]	; (dbabc <__gettzinfo+0x4>)
   dbaba:	4770      	bx	lr
   dbabc:	2003d978 	.word	0x2003d978

000dbac0 <gmtime_r>:
   dbac0:	6802      	ldr	r2, [r0, #0]
   dbac2:	4b47      	ldr	r3, [pc, #284]	; (dbbe0 <gmtime_r+0x120>)
   dbac4:	b5f0      	push	{r4, r5, r6, r7, lr}
   dbac6:	fb92 f4f3 	sdiv	r4, r2, r3
   dbaca:	fb03 2214 	mls	r2, r3, r4, r2
   dbace:	2a00      	cmp	r2, #0
   dbad0:	bfbc      	itt	lt
   dbad2:	f502 32a8 	addlt.w	r2, r2, #86016	; 0x15000
   dbad6:	f502 72c0 	addlt.w	r2, r2, #384	; 0x180
   dbada:	f44f 6061 	mov.w	r0, #3600	; 0xe10
   dbade:	f504 242f 	add.w	r4, r4, #716800	; 0xaf000
   dbae2:	fb92 f3f0 	sdiv	r3, r2, r0
   dbae6:	fb00 2213 	mls	r2, r0, r3, r2
   dbaea:	f04f 003c 	mov.w	r0, #60	; 0x3c
   dbaee:	bfac      	ite	ge
   dbaf0:	f604 246c 	addwge	r4, r4, #2668	; 0xa6c
   dbaf4:	f604 246b 	addwlt	r4, r4, #2667	; 0xa6b
   dbaf8:	608b      	str	r3, [r1, #8]
   dbafa:	fb92 f3f0 	sdiv	r3, r2, r0
   dbafe:	fb00 2213 	mls	r2, r0, r3, r2
   dbb02:	604b      	str	r3, [r1, #4]
   dbb04:	600a      	str	r2, [r1, #0]
   dbb06:	2307      	movs	r3, #7
   dbb08:	1ce2      	adds	r2, r4, #3
   dbb0a:	fb92 f3f3 	sdiv	r3, r2, r3
   dbb0e:	ebc3 03c3 	rsb	r3, r3, r3, lsl #3
   dbb12:	1ad3      	subs	r3, r2, r3
   dbb14:	618b      	str	r3, [r1, #24]
   dbb16:	4b33      	ldr	r3, [pc, #204]	; (dbbe4 <gmtime_r+0x124>)
   dbb18:	4d33      	ldr	r5, [pc, #204]	; (dbbe8 <gmtime_r+0x128>)
   dbb1a:	fb94 f5f5 	sdiv	r5, r4, r5
   dbb1e:	fb03 4405 	mla	r4, r3, r5, r4
   dbb22:	f648 62ac 	movw	r2, #36524	; 0x8eac
   dbb26:	fbb4 f2f2 	udiv	r2, r4, r2
   dbb2a:	4422      	add	r2, r4
   dbb2c:	f240 57b4 	movw	r7, #1460	; 0x5b4
   dbb30:	fbb4 f3f7 	udiv	r3, r4, r7
   dbb34:	1ad2      	subs	r2, r2, r3
   dbb36:	482d      	ldr	r0, [pc, #180]	; (dbbec <gmtime_r+0x12c>)
   dbb38:	fbb4 f0f0 	udiv	r0, r4, r0
   dbb3c:	f648 6694 	movw	r6, #36500	; 0x8e94
   dbb40:	1a13      	subs	r3, r2, r0
   dbb42:	fbb3 f6f6 	udiv	r6, r3, r6
   dbb46:	4434      	add	r4, r6
   dbb48:	f240 126d 	movw	r2, #365	; 0x16d
   dbb4c:	fbb3 f0f2 	udiv	r0, r3, r2
   dbb50:	fbb3 f3f7 	udiv	r3, r3, r7
   dbb54:	1ae3      	subs	r3, r4, r3
   dbb56:	fb02 3310 	mls	r3, r2, r0, r3
   dbb5a:	2499      	movs	r4, #153	; 0x99
   dbb5c:	eb03 0283 	add.w	r2, r3, r3, lsl #2
   dbb60:	3202      	adds	r2, #2
   dbb62:	fbb2 f2f4 	udiv	r2, r2, r4
   dbb66:	2a0a      	cmp	r2, #10
   dbb68:	fb04 f402 	mul.w	r4, r4, r2
   dbb6c:	f104 0602 	add.w	r6, r4, #2
   dbb70:	f04f 0405 	mov.w	r4, #5
   dbb74:	fbb6 f4f4 	udiv	r4, r6, r4
   dbb78:	bf34      	ite	cc
   dbb7a:	2602      	movcc	r6, #2
   dbb7c:	f06f 0609 	mvncs.w	r6, #9
   dbb80:	4416      	add	r6, r2
   dbb82:	f44f 72c8 	mov.w	r2, #400	; 0x190
   dbb86:	fb02 0505 	mla	r5, r2, r5, r0
   dbb8a:	1c5f      	adds	r7, r3, #1
   dbb8c:	2e01      	cmp	r6, #1
   dbb8e:	bf98      	it	ls
   dbb90:	3501      	addls	r5, #1
   dbb92:	f5b3 7f99 	cmp.w	r3, #306	; 0x132
   dbb96:	eba7 0704 	sub.w	r7, r7, r4
   dbb9a:	d302      	bcc.n	dbba2 <gmtime_r+0xe2>
   dbb9c:	f5a3 7299 	sub.w	r2, r3, #306	; 0x132
   dbba0:	e014      	b.n	dbbcc <gmtime_r+0x10c>
   dbba2:	0782      	lsls	r2, r0, #30
   dbba4:	d105      	bne.n	dbbb2 <gmtime_r+0xf2>
   dbba6:	2464      	movs	r4, #100	; 0x64
   dbba8:	fbb0 f2f4 	udiv	r2, r0, r4
   dbbac:	fb04 0212 	mls	r2, r4, r2, r0
   dbbb0:	b94a      	cbnz	r2, dbbc6 <gmtime_r+0x106>
   dbbb2:	f44f 72c8 	mov.w	r2, #400	; 0x190
   dbbb6:	fbb0 f4f2 	udiv	r4, r0, r2
   dbbba:	fb02 0014 	mls	r0, r2, r4, r0
   dbbbe:	fab0 f280 	clz	r2, r0
   dbbc2:	0952      	lsrs	r2, r2, #5
   dbbc4:	e000      	b.n	dbbc8 <gmtime_r+0x108>
   dbbc6:	2201      	movs	r2, #1
   dbbc8:	333b      	adds	r3, #59	; 0x3b
   dbbca:	441a      	add	r2, r3
   dbbcc:	f2a5 756c 	subw	r5, r5, #1900	; 0x76c
   dbbd0:	2300      	movs	r3, #0
   dbbd2:	61ca      	str	r2, [r1, #28]
   dbbd4:	614d      	str	r5, [r1, #20]
   dbbd6:	610e      	str	r6, [r1, #16]
   dbbd8:	60cf      	str	r7, [r1, #12]
   dbbda:	620b      	str	r3, [r1, #32]
   dbbdc:	4608      	mov	r0, r1
   dbbde:	bdf0      	pop	{r4, r5, r6, r7, pc}
   dbbe0:	00015180 	.word	0x00015180
   dbbe4:	fffdc54f 	.word	0xfffdc54f
   dbbe8:	00023ab1 	.word	0x00023ab1
   dbbec:	00023ab0 	.word	0x00023ab0

000dbbf0 <__env_lock>:
   dbbf0:	4770      	bx	lr

000dbbf2 <__env_unlock>:
   dbbf2:	4770      	bx	lr

000dbbf4 <dynalib_user>:
   dbbf4:	4021 000d 405d 000d 4089 000d 408d 000d     !@..]@...@...@..
   dbc04:	0000 0000 7055 6f6c 6461 6e69 3a67 0020     ....Uploading: .
   dbc14:	4f20 004b 4420 4c45 4520 5252 524f 2000      OK. DEL ERROR. 
   dbc24:	514d 5454 4520 5252 524f 5300 5245 4149     MQTT ERROR.SERIA
   dbc34:	204c 4144 4154 5320 5445 4954 474e 2053     L DATA SETTINGS 
   dbc44:	2d2d 203e 007b 0030 0a7d 5300 5445 4954     --> {.0.}..SETTI
   dbc54:	474e 2053 4146 4c49 4445 0a00 4954 454d     NGS FAILED..TIME
   dbc64:	203a 4f00 2050 5453 5441 3a45 5200 5045     : .OP STATE:.REP
   dbc74:	524f 4954 474e 4920 544e 5245 4156 3a4c     ORTING INTERVAL:
   dbc84:	0020 4144 4154 5220 5345 4c4f 5455 4f49      .DATA RESOLUTIO
   dbc94:	3a4e 0020 4553 4952 4c41 4e20 4d55 4542     N: .SERIAL NUMBE
   dbca4:	3a52 0020 514d 5454 4220 4f52 454b 3a52     R: .MQTT BROKER:
   dbcb4:	0020 514d 5454 4220 4f52 454b 2052 4f50      .MQTT BROKER PO
   dbcc4:	5452 203a 5400 4d49 5a45 4e4f 3a45 0020     RT: .TIMEZONE: .
   dbcd4:	5249 4952 4147 4954 4e4f 4820 554f 3a52     IRRIGATION HOUR:
   dbce4:	0020 4156 564c 2045 504f 4e45 5020 5245      .VALVE OPEN PER
   dbcf4:	4f49 3a44 0020 4843 4345 534b 4d55 203a     IOD: .CHECKSUM: 
   dbd04:	5300 7465 6974 676e 2073 6153 6576 2064     .Settings Saved 
   dbd14:	7573 6363 7365 6673 6c75 796c 5200 4345     successfully.REC
   dbd24:	4945 4556 2044 534d 3a47 0020 4d0a 5345     EIVED MSG: ..MES
   dbd34:	4153 4547 5420 5059 3a45 0020 3434 3500     SAGE TYPE: .44.5
   dbd44:	0035 5550 4c42 5349 2048 4146 4c49 4445     5.PUBLISH FAILED
   dbd54:	6200 6f72 656b 2e72 6968 6576 716d 632e     .broker.hivemq.c
   dbd64:	6d6f 0a00 6544 6976 6563 4920 3a44 0020     om..Device ID: .
   dbd74:	540a 7365 6974 676e 4520 5045 4f52 3a4d     .Testing EEPROM:
   dbd84:	0a00 7250 7365 2073 7562 7474 6e6f 6620     ..Press button f
   dbd94:	726f 203a 2000 6553 6f63 646e 0073 540a     or: . Seconds..T
   dbda4:	7365 6974 676e 4220 7475 6f74 3a6e 0a00     esting Button:..
   dbdb4:	6554 7473 6e69 2067 6156 766c 3a65 0a00     Testing Valve:..
   dbdc4:	6554 7473 6e69 2067 4453 4320 7261 3a64     Testing SD Card:
   dbdd4:	0a00 6554 7473 6e69 2067 6152 6964 3a6f     ..Testing Radio:
   dbde4:	0a00 6e55 6e6b 776f 206e 6f63 6d6d 6e61     ..Unknown comman
   dbdf4:	0064 5355 4e49 2047 4544 4146 4c55 2054     d.USING DEFAULT 
   dbe04:	4553 5454 4e49 5347 5500 4953 474e 5320     SETTINGS.USING S
   dbe14:	5445 4954 474e 2053 5246 4d4f 4d20 4d45     ETTINGS FROM MEM
   dbe24:	524f 0059 6574 7473 622e 6f72 656b 2e72     ORY.test.broker.
   dbe34:	6f63 006d                                   com.

000dbe38 <_ZTV5Timer>:
	...
   dbe40:	535d 000d 53a5 000d 527d 000d               ]S...S..}R..

000dbe4c <_ZTVN8particle13__SPISettingsE>:
	...
   dbe54:	56f9 000d                                   .V..

000dbe58 <_ZTV4File>:
	...
   dbe60:	56f7 000d 578f 000d 5769 000d 575d 000d     .V...W..iW..]W..
   dbe70:	56d9 000d 57d3 000d 5757 000d 5751 000d     .V...W..WW..QW..

000dbe80 <_ZTV6SdFile>:
	...
   dbe88:	56f5 000d 5781 000d 579d 000d 5763 000d     .V...W...W..cW..
   dbe98:	6564 6166 6c75 2074 4d00 4253 4c00 4253     default .MSB.LSB
   dbea8:	3c00 5053 5349 7465 6974 676e 2073 6564     .<SPISettings de
   dbeb8:	6166 6c75 3e74 3c00 5053 5349 7465 6974     fault>.<SPISetti
   dbec8:	676e 2073 7325 6c25 2075 7325 4d20 444f     ngs %s%lu %s MOD
   dbed8:	2545 3e64 2500 3230 2558 3230 2558 3230     E%d>.%02X%02X%02
   dbee8:	2558 3230 2e58 4f4c 0047 6153 6976 676e     X%02X.LOG.Saving
   dbef8:	203a 2000 6953 657a 203a 2f00 5200 4d46     : . Size: ./.RFM
   dbf08:	3936 4920 494e 2054 5245 4f52 0052 454e     69 INIT ERROR.NE
   dbf18:	2057 4853 4549 444c 5220 2046 4449 203a     W SHIELD RF ID: 
   dbf28:	4e00 5745 4e20 5445 4f57 4b52 4920 3a44     .NEW NETWORK ID:
   dbf38:	0020 4749 2d48 4652 364d 4839 5743 4b2d      .IGH-RFM69HCW-K
   dbf48:	5945 3c00 4554 5453 003e 543c 5345 3a54     EY.<TEST>.<TEST:
   dbf58:	4b4f 003e 0400 514d 5454 0004 4d06 4951     OK>...MQTT...MQI
   dbf68:	6473 0370                                   sdp.

000dbf6c <_ZTV5RFM69>:
	...
   dbf74:	8185 000d                                   ....

000dbf78 <_ZTVN5spark13EthernetClassE>:
	...
   dbf80:	8c9b 000d 8c91 000d 8c87 000d 8c7d 000d     ............}...
   dbf90:	8c71 000d 8c65 000d 8c59 000d 8c51 000d     q...e...Y...Q...
   dbfa0:	8c47 000d 8c3d 000d a3ab 000d               G...=.......

000dbfac <_ZN12_GLOBAL__N_1L14clock_divisorsE>:
   dbfac:	0800 1810 2820 3830 6162 6475 5300 7265     .... (08baud.Ser
   dbfbc:	6169 006c 6553 6972 6c61 0031 7974 6570     ial.Serial1.type
   dbfcc:	7000 7261 6d61 6300 646d 6900 0064 6e68     .param.cmd.id.hn
   dbfdc:	0064 7473 6d72 6600 6c69 0074 766c 006c     d.strm.filt.lvl.
   dbfec:	6461 4864 6e61 6c64 7265 7200 6d65 766f     addHandler.remov
   dbffc:	4865 6e61 6c64 7265 6500 756e 486d 6e61     eHandler.enumHan
   dc00c:	6c64 7265 0073 534a 4e4f 7453 6572 6d61     dlers.JSONStream
   dc01c:	6f4c 4867 6e61 6c64 7265 6100 7070 2500     LogHandler.app.%
   dc02c:	3130 7530 0020 205d 2c00 0020 2928 203a     010u .] ., .(): 
   dc03c:	2000 005b 6f63 6564 3d20 0020 6925 6400     . [.code = .%i.d
   dc04c:	7465 6961 736c 3d20 0020 0a0d 6600 6c00     etails = ....f.l
   dc05c:	006e 6e66 6300 646f 0065 6564 6174 6c69     n.fn.code.detail
   dc06c:	6e00 6e6f 0065 7274 6361 0065 6e69 6f66     .none.trace.info
   dc07c:	7700 7261 006e 7265 6f72 0072 6170 696e     .warn.error.pani
   dc08c:	0063 6c61 006c 2b25 3330 3a64 3025 7532     c.all.%+03d:%02u
   dc09c:	2500 2d59 6d25 252d 5464 4825 253a 3a4d     .%Y-%m-%dT%H:%M:
   dc0ac:	5325 7a25 6100 6373 6974 656d 0000 0000     %S%z.asctime....

000dc0bc <_ZTV14CellularSignal>:
	...
   dc0c4:	5b31 000d 5b33 000d 9399 000d 9429 000d     1[..3[......)...
   dc0d4:	939d 000d 93f5 000d 93c9 000d 949b 000d     ................
   dc0e4:	fffc ffff 0000 0000 94c5 000d               ............

000dc0f0 <_ZTV9IPAddress>:
	...
   dc0f8:	96d1 000d 96c1 000d 96c3 000d               ............

000dc104 <_ZTV9USBSerial>:
	...
   dc10c:	97e9 000d 9839 000d 9847 000d 9145 000d     ....9...G...E...
   dc11c:	9825 000d 97eb 000d 9801 000d 9833 000d     %...........3...
   dc12c:	9817 000d 97e5 000d                         ........

000dc134 <_ZTVN5spark13CellularClassE>:
	...
   dc13c:	99e3 000d 99d9 000d 99cf 000d 9985 000d     ................
   dc14c:	99c3 000d 99b7 000d 99ab 000d 99a3 000d     ................
   dc15c:	9999 000d 998f 000d a3ab 000d               ............

000dc168 <_ZTV11USARTSerial>:
	...
   dc170:	9a1d 000d 9a6d 000d 9a7b 000d 9145 000d     ....m...{...E...
   dc180:	9a31 000d 9a53 000d 9a3f 000d 9a67 000d     1...S...?...g...
   dc190:	9a1f 000d 9a23 000d                         ....#...

000dc198 <_ZTV7TwoWire>:
	...
   dc1a0:	9b21 000d 9b6b 000d 9b43 000d 9b23 000d     !...k...C...#...
   dc1b0:	9b4b 000d 9b53 000d 9b5b 000d 9b63 000d     K...S...[...c...

000dc1c0 <_ZTVN5spark9MeshClassE>:
	...
   dc1c8:	9c99 000d 9c8f 000d 9c85 000d 9c7b 000d     ............{...
   dc1d8:	9c6f 000d 9c63 000d 9c57 000d 9c4f 000d     o...c...W...O...
   dc1e8:	9c45 000d 9c3b 000d a3ab 000d               E...;.......

000dc1f4 <_ZTVSt19_Sp_counted_deleterIPN9TCPClient4DataENSt12__shared_ptrIS1_LN9__gnu_cxx12_Lock_policyE0EE8_DeleterISaIS1_EEES8_LS5_0EE>:
	...
   dc1fc:	9e3d 000d 9e43 000d a32b 000d 9e51 000d     =...C...+...Q...
   dc20c:	9e3f 000d                                   ?...

000dc210 <_ZTV9TCPClient>:
	...
   dc218:	5de9 000d 5e1d 000d 9db5 000d 9dcf 000d     .]...^..........
   dc228:	a1d1 000d 9f23 000d 9ef5 000d 9df9 000d     ....#...........
   dc238:	a0ad 000d 9fa9 000d 9f57 000d a1a1 000d     ........W.......
   dc248:	9dfb 000d 9e33 000d 9de1 000d 9e55 000d     ....3.......U...
   dc258:	9ed5 000d 6977 6972 676e 7200 6365 2076     ....wiring.recv 
   dc268:	7265 6f72 2072 203d 6425 0000               error = %d..

000dc274 <_ZTVN5spark12NetworkClassE>:
	...
   dc27c:	a343 000d a34d 000d a357 000d a361 000d     C...M...W...a...
   dc28c:	a36b 000d a377 000d a383 000d a38f 000d     k...w...........
   dc29c:	a397 000d a3a1 000d a3ab 000d               ............

000dc2a8 <_ZSt7nothrow>:
	...

000dc2a9 <_ctype_>:
   dc2a9:	2000 2020 2020 2020 2020 2828 2828 2028     .         ((((( 
   dc2b9:	2020 2020 2020 2020 2020 2020 2020 2020                     
   dc2c9:	8820 1010 1010 1010 1010 1010 1010 1010      ...............
   dc2d9:	0410 0404 0404 0404 0404 1004 1010 1010     ................
   dc2e9:	1010 4141 4141 4141 0101 0101 0101 0101     ..AAAAAA........
   dc2f9:	0101 0101 0101 0101 0101 0101 1010 1010     ................
   dc309:	1010 4242 4242 4242 0202 0202 0202 0202     ..BBBBBB........
   dc319:	0202 0202 0202 0202 0202 0202 1010 1010     ................
   dc329:	0020 0000 0000 0000 0000 0000 0000 0000      ...............
	...

000dc3ac <__sf_fake_stdin>:
	...

000dc3cc <__sf_fake_stdout>:
	...

000dc3ec <__sf_fake_stderr>:
	...
   dc40c:	0043 0000                                   C...

000dc410 <__month_lengths>:
   dc410:	001f 0000 001c 0000 001f 0000 001e 0000     ................
   dc420:	001f 0000 001e 0000 001f 0000 001f 0000     ................
   dc430:	001e 0000 001f 0000 001e 0000 001f 0000     ................
   dc440:	001f 0000 001d 0000 001f 0000 001e 0000     ................
   dc450:	001f 0000 001e 0000 001f 0000 001f 0000     ................
   dc460:	001e 0000 001f 0000 001e 0000 001f 0000     ................
   dc470:	5a54 4700 544d 2500 3031 5e5b 2d30 2c39     TZ.GMT.%10[^0-9,
   dc480:	2d2b 255d 006e 254d 7568 6e25 252e 7568     +-]%n.M%hu%n.%hu
   dc490:	6e25 252e 7568 6e25 2f00 6825 2575 3a6e     %n.%hu%n./%hu%n:
   dc4a0:	6825 2575 3a6e 6825 2575 006e               %hu%n:%hu%n.

000dc4ac <link_const_variable_data_end>:
   dc4ac:	000d4629 	.word	0x000d4629
   dc4b0:	000d4e5f 	.word	0x000d4e5f
   dc4b4:	000d50c9 	.word	0x000d50c9
   dc4b8:	000d5159 	.word	0x000d5159
   dc4bc:	000d524b 	.word	0x000d524b
   dc4c0:	000d5651 	.word	0x000d5651
   dc4c4:	000d5a5d 	.word	0x000d5a5d
   dc4c8:	000d5c05 	.word	0x000d5c05
   dc4cc:	000d5db5 	.word	0x000d5db5
   dc4d0:	000d6637 	.word	0x000d6637
   dc4d4:	000d663b 	.word	0x000d663b
   dc4d8:	000d663f 	.word	0x000d663f
   dc4dc:	000d6d59 	.word	0x000d6d59
   dc4e0:	000d6d5d 	.word	0x000d6d5d
   dc4e4:	000d6d61 	.word	0x000d6d61
   dc4e8:	000d6d93 	.word	0x000d6d93
   dc4ec:	000d7559 	.word	0x000d7559
   dc4f0:	000d757d 	.word	0x000d757d
   dc4f4:	000d7581 	.word	0x000d7581
   dc4f8:	000d78a5 	.word	0x000d78a5
   dc4fc:	000d78a9 	.word	0x000d78a9
   dc500:	000d78ad 	.word	0x000d78ad
   dc504:	000d7de7 	.word	0x000d7de7
   dc508:	000d7deb 	.word	0x000d7deb
   dc50c:	000d7def 	.word	0x000d7def
   dc510:	000d7e95 	.word	0x000d7e95
   dc514:	000d851d 	.word	0x000d851d
   dc518:	000d8521 	.word	0x000d8521
   dc51c:	000d8ca5 	.word	0x000d8ca5
   dc520:	000d8f55 	.word	0x000d8f55
   dc524:	000d911d 	.word	0x000d911d
   dc528:	000d9261 	.word	0x000d9261
   dc52c:	000d9355 	.word	0x000d9355
   dc530:	000d937d 	.word	0x000d937d
   dc534:	000d99ed 	.word	0x000d99ed
   dc538:	000d9d65 	.word	0x000d9d65
   dc53c:	000da479 	.word	0x000da479
   dc540:	000da6e1 	.word	0x000da6e1
   dc544:	000da765 	.word	0x000da765
   dc548:	000da829 	.word	0x000da829
   dc54c:	000da8ed 	.word	0x000da8ed
